Archive member included because of file (symbol)

/home/tuofeichen/SLAM/MAV-Project/Firmware/build_px4fmu-v2_lpe/px4io-v2/NuttX/nuttx-export/libs/libnuttx.a(sched-irq_attach.o)
                              src/modules/px4iofirmware/CMakeFiles/px4io-v2.dir/__/__/drivers/stm32/drv_hrt.c.obj (irq_attach)
/home/tuofeichen/SLAM/MAV-Project/Firmware/build_px4fmu-v2_lpe/px4io-v2/NuttX/nuttx-export/libs/libnuttx.a(sched-irq_initialize.o)
                              /home/tuofeichen/SLAM/MAV-Project/Firmware/build_px4fmu-v2_lpe/px4io-v2/NuttX/nuttx-export/libs/libnuttx.a(sched-irq_attach.o) (g_irqvector)
/home/tuofeichen/SLAM/MAV-Project/Firmware/build_px4fmu-v2_lpe/px4io-v2/NuttX/nuttx-export/libs/libnuttx.a(sched-irq_unexpectedisr.o)
                              /home/tuofeichen/SLAM/MAV-Project/Firmware/build_px4fmu-v2_lpe/px4io-v2/NuttX/nuttx-export/libs/libnuttx.a(sched-irq_attach.o) (irq_unexpected_isr)
/home/tuofeichen/SLAM/MAV-Project/Firmware/build_px4fmu-v2_lpe/px4io-v2/NuttX/nuttx-export/libs/libnuttx.a(c-lib_abort.o)
                              (abort)
/home/tuofeichen/SLAM/MAV-Project/Firmware/build_px4fmu-v2_lpe/px4io-v2/NuttX/nuttx-export/libs/libnuttx.a(c-lib_cfsetspeed.o)
                              src/modules/px4iofirmware/CMakeFiles/px4io-v2.dir/__/__/lib/rc/sbus.c.obj (cfsetspeed)
/home/tuofeichen/SLAM/MAV-Project/Firmware/build_px4fmu-v2_lpe/px4io-v2/NuttX/nuttx-export/libs/libnuttx.a(c-lib_crc32.o)
                              src/modules/px4iofirmware/CMakeFiles/px4io-v2.dir/px4io.c.obj (crc32part)
/home/tuofeichen/SLAM/MAV-Project/Firmware/build_px4fmu-v2_lpe/px4io-v2/NuttX/nuttx-export/libs/libnuttx.a(c-lib_dprintf.o)
                              src/modules/px4iofirmware/CMakeFiles/px4io-v2.dir/__/systemlib/perf_counter.c.obj (dprintf)
/home/tuofeichen/SLAM/MAV-Project/Firmware/build_px4fmu-v2_lpe/px4io-v2/NuttX/nuttx-export/libs/libnuttx.a(c-lib_lowsyslog.o)
                              src/modules/px4iofirmware/CMakeFiles/px4io-v2.dir/px4io.c.obj (lowsyslog)
/home/tuofeichen/SLAM/MAV-Project/Firmware/build_px4fmu-v2_lpe/px4io-v2/NuttX/nuttx-export/libs/libnuttx.a(c-lib_memchr.o)
                              src/modules/px4iofirmware/CMakeFiles/px4io-v2.dir/__/systemlib/mixer/mixer.cpp.obj (memchr)
/home/tuofeichen/SLAM/MAV-Project/Firmware/build_px4fmu-v2_lpe/px4io-v2/NuttX/nuttx-export/libs/libnuttx.a(c-lib_memcpy.o)
                              src/modules/px4iofirmware/CMakeFiles/px4io-v2.dir/mixer.cpp.obj (memcpy)
/home/tuofeichen/SLAM/MAV-Project/Firmware/build_px4fmu-v2_lpe/px4io-v2/NuttX/nuttx-export/libs/libnuttx.a(c-lib_memset.o)
                              src/modules/px4iofirmware/CMakeFiles/px4io-v2.dir/registers.c.obj (memset)
/home/tuofeichen/SLAM/MAV-Project/Firmware/build_px4fmu-v2_lpe/px4io-v2/NuttX/nuttx-export/libs/libnuttx.a(c-lib_printf.o)
                              src/modules/px4iofirmware/CMakeFiles/px4io-v2.dir/__/systemlib/perf_counter.c.obj (printf)
/home/tuofeichen/SLAM/MAV-Project/Firmware/build_px4fmu-v2_lpe/px4io-v2/NuttX/nuttx-export/libs/libnuttx.a(c-lib_sscanf.o)
                              src/modules/px4iofirmware/CMakeFiles/px4io-v2.dir/__/systemlib/mixer/mixer_multirotor.cpp.obj (sscanf)
/home/tuofeichen/SLAM/MAV-Project/Firmware/build_px4fmu-v2_lpe/px4io-v2/NuttX/nuttx-export/libs/libnuttx.a(c-lib_strchr.o)
                              /home/tuofeichen/SLAM/MAV-Project/Firmware/build_px4fmu-v2_lpe/px4io-v2/NuttX/nuttx-export/libs/libnuttx.a(c-lib_sscanf.o) (strchr)
/home/tuofeichen/SLAM/MAV-Project/Firmware/build_px4fmu-v2_lpe/px4io-v2/NuttX/nuttx-export/libs/libnuttx.a(c-lib_strcmp.o)
                              src/modules/px4iofirmware/CMakeFiles/px4io-v2.dir/__/systemlib/perf_counter.c.obj (strcmp)
/home/tuofeichen/SLAM/MAV-Project/Firmware/build_px4fmu-v2_lpe/px4io-v2/NuttX/nuttx-export/libs/libnuttx.a(c-lib_strcspn.o)
                              /home/tuofeichen/SLAM/MAV-Project/Firmware/build_px4fmu-v2_lpe/px4io-v2/NuttX/nuttx-export/libs/libnuttx.a(c-lib_sscanf.o) (strcspn)
/home/tuofeichen/SLAM/MAV-Project/Firmware/build_px4fmu-v2_lpe/px4io-v2/NuttX/nuttx-export/libs/libnuttx.a(c-lib_strncpy.o)
                              /home/tuofeichen/SLAM/MAV-Project/Firmware/build_px4fmu-v2_lpe/px4io-v2/NuttX/nuttx-export/libs/libnuttx.a(c-lib_sscanf.o) (strncpy)
/home/tuofeichen/SLAM/MAV-Project/Firmware/build_px4fmu-v2_lpe/px4io-v2/NuttX/nuttx-export/libs/libnuttx.a(c-lib_strtol.o)
                              /home/tuofeichen/SLAM/MAV-Project/Firmware/build_px4fmu-v2_lpe/px4io-v2/NuttX/nuttx-export/libs/libnuttx.a(c-lib_sscanf.o) (strtol)
/home/tuofeichen/SLAM/MAV-Project/Firmware/build_px4fmu-v2_lpe/px4io-v2/NuttX/nuttx-export/libs/libnuttx.a(c-lib_strtoul.o)
                              /home/tuofeichen/SLAM/MAV-Project/Firmware/build_px4fmu-v2_lpe/px4io-v2/NuttX/nuttx-export/libs/libnuttx.a(c-lib_strtol.o) (strtoul)
/home/tuofeichen/SLAM/MAV-Project/Firmware/build_px4fmu-v2_lpe/px4io-v2/NuttX/nuttx-export/libs/libnuttx.a(c-lib_syslog.o)
                              /home/tuofeichen/SLAM/MAV-Project/Firmware/build_px4fmu-v2_lpe/px4io-v2/NuttX/nuttx-export/libs/libnuttx.a(c-lib_printf.o) (vsyslog)
/home/tuofeichen/SLAM/MAV-Project/Firmware/build_px4fmu-v2_lpe/px4io-v2/NuttX/nuttx-export/libs/libnuttx.a(c-lib_tcgetattr.o)
                              src/modules/px4iofirmware/CMakeFiles/px4io-v2.dir/__/__/lib/rc/sbus.c.obj (tcgetattr)
/home/tuofeichen/SLAM/MAV-Project/Firmware/build_px4fmu-v2_lpe/px4io-v2/NuttX/nuttx-export/libs/libnuttx.a(c-lib_tcsetattr.o)
                              src/modules/px4iofirmware/CMakeFiles/px4io-v2.dir/__/__/lib/rc/sbus.c.obj (tcsetattr)
/home/tuofeichen/SLAM/MAV-Project/Firmware/build_px4fmu-v2_lpe/px4io-v2/NuttX/nuttx-export/libs/libnuttx.a(c-lib_vdprintf.o)
                              /home/tuofeichen/SLAM/MAV-Project/Firmware/build_px4fmu-v2_lpe/px4io-v2/NuttX/nuttx-export/libs/libnuttx.a(c-lib_dprintf.o) (vdprintf)
/home/tuofeichen/SLAM/MAV-Project/Firmware/build_px4fmu-v2_lpe/px4io-v2/NuttX/nuttx-export/libs/libnuttx.a(c-lib_vsnprintf.o)
                              src/modules/px4iofirmware/CMakeFiles/px4io-v2.dir/px4io.c.obj (vsnprintf)
/home/tuofeichen/SLAM/MAV-Project/Firmware/build_px4fmu-v2_lpe/px4io-v2/NuttX/nuttx-export/libs/libnuttx.a(c-sq_addafter.o)
                              src/modules/px4iofirmware/CMakeFiles/px4io-v2.dir/__/__/drivers/stm32/drv_hrt.c.obj (sq_addafter)
/home/tuofeichen/SLAM/MAV-Project/Firmware/build_px4fmu-v2_lpe/px4io-v2/NuttX/nuttx-export/libs/libnuttx.a(c-sq_addfirst.o)
                              src/modules/px4iofirmware/CMakeFiles/px4io-v2.dir/__/systemlib/perf_counter.c.obj (sq_addfirst)
/home/tuofeichen/SLAM/MAV-Project/Firmware/build_px4fmu-v2_lpe/px4io-v2/NuttX/nuttx-export/libs/libnuttx.a(c-sq_addlast.o)
                              /home/tuofeichen/SLAM/MAV-Project/Firmware/build_px4fmu-v2_lpe/px4io-v2/NuttX/nuttx-export/libs/libnuttx.a(c-sq_addafter.o) (sq_addlast)
/home/tuofeichen/SLAM/MAV-Project/Firmware/build_px4fmu-v2_lpe/px4io-v2/NuttX/nuttx-export/libs/libnuttx.a(c-sq_rem.o)
                              src/modules/px4iofirmware/CMakeFiles/px4io-v2.dir/__/systemlib/perf_counter.c.obj (sq_rem)
/home/tuofeichen/SLAM/MAV-Project/Firmware/build_px4fmu-v2_lpe/px4io-v2/NuttX/nuttx-export/libs/libnuttx.a(mm-mm_calloc.o)
                              src/modules/px4iofirmware/CMakeFiles/px4io-v2.dir/__/systemlib/perf_counter.c.obj (calloc)
/home/tuofeichen/SLAM/MAV-Project/Firmware/build_px4fmu-v2_lpe/px4io-v2/NuttX/nuttx-export/libs/libnuttx.a(mm-mm_free.o)
                              src/modules/px4iofirmware/CMakeFiles/px4io-v2.dir/__/systemlib/perf_counter.c.obj (free)
/home/tuofeichen/SLAM/MAV-Project/Firmware/build_px4fmu-v2_lpe/px4io-v2/NuttX/nuttx-export/libs/libnuttx.a(mm-mm_mallinfo.o)
                              src/modules/px4iofirmware/CMakeFiles/px4io-v2.dir/px4io.c.obj (mallinfo)
/home/tuofeichen/SLAM/MAV-Project/Firmware/build_px4fmu-v2_lpe/px4io-v2/NuttX/nuttx-export/libs/libnuttx.a(mm-mm_malloc.o)
                              src/modules/px4iofirmware/CMakeFiles/px4io-v2.dir/__/systemlib/mixer/mixer_simple.cpp.obj (malloc)
/home/tuofeichen/SLAM/MAV-Project/Firmware/build_px4fmu-v2_lpe/px4io-v2/NuttX/nuttx-export/libs/libnuttx.a(mm-mm_sem.o)
                              /home/tuofeichen/SLAM/MAV-Project/Firmware/build_px4fmu-v2_lpe/px4io-v2/NuttX/nuttx-export/libs/libnuttx.a(mm-mm_free.o) (mm_takesemaphore)
/home/tuofeichen/SLAM/MAV-Project/Firmware/build_px4fmu-v2_lpe/px4io-v2/NuttX/nuttx-export/libs/libnuttx.a(mm-mm_size2ndx.o)
                              /home/tuofeichen/SLAM/MAV-Project/Firmware/build_px4fmu-v2_lpe/px4io-v2/NuttX/nuttx-export/libs/libnuttx.a(mm-mm_malloc.o) (mm_size2ndx)
/home/tuofeichen/SLAM/MAV-Project/Firmware/build_px4fmu-v2_lpe/px4io-v2/NuttX/nuttx-export/libs/libnuttx.a(mm-mm_user.o)
                              /home/tuofeichen/SLAM/MAV-Project/Firmware/build_px4fmu-v2_lpe/px4io-v2/NuttX/nuttx-export/libs/libnuttx.a(mm-mm_free.o) (g_mmheap)
/home/tuofeichen/SLAM/MAV-Project/Firmware/build_px4fmu-v2_lpe/px4io-v2/NuttX/nuttx-export/libs/libnuttx.a(mm-mm_zalloc.o)
                              /home/tuofeichen/SLAM/MAV-Project/Firmware/build_px4fmu-v2_lpe/px4io-v2/NuttX/nuttx-export/libs/libnuttx.a(mm-mm_calloc.o) (zalloc)
/home/tuofeichen/SLAM/MAV-Project/Firmware/build_px4fmu-v2_lpe/px4io-v2/NuttX/nuttx-export/libs/libnuttx.a(arch-stm32_dma.o)
                              src/modules/px4iofirmware/CMakeFiles/px4io-v2.dir/serial.c.obj (stm32_dmachannel)
/home/tuofeichen/SLAM/MAV-Project/Firmware/build_px4fmu-v2_lpe/px4io-v2/NuttX/nuttx-export/libs/libnuttx.a(arch-stm32_gpio.o)
                              src/modules/px4iofirmware/CMakeFiles/px4io-v2.dir/__/__/lib/rc/dsm.c.obj (stm32_configgpio)
/home/tuofeichen/SLAM/MAV-Project/Firmware/build_px4fmu-v2_lpe/px4io-v2/NuttX/nuttx-export/libs/libnuttx.a(arch-stm32_irq.o)
                              /home/tuofeichen/SLAM/MAV-Project/Firmware/build_px4fmu-v2_lpe/px4io-v2/NuttX/nuttx-export/libs/libnuttx.a(sched-irq_attach.o) (up_disable_irq)
/home/tuofeichen/SLAM/MAV-Project/Firmware/build_px4fmu-v2_lpe/px4io-v2/NuttX/nuttx-export/libs/libnuttx.a(arch-stm32_serial.o)
                              src/modules/px4iofirmware/CMakeFiles/px4io-v2.dir/px4io.c.obj (stm32_serial_dma_poll)
/home/tuofeichen/SLAM/MAV-Project/Firmware/build_px4fmu-v2_lpe/px4io-v2/NuttX/nuttx-export/libs/libnuttx.a(arch-stm32_start.o)
                              (__start)
/home/tuofeichen/SLAM/MAV-Project/Firmware/build_px4fmu-v2_lpe/px4io-v2/NuttX/nuttx-export/libs/libnuttx.a(arch-up_assert.o)
                              /home/tuofeichen/SLAM/MAV-Project/Firmware/build_px4fmu-v2_lpe/px4io-v2/NuttX/nuttx-export/libs/libnuttx.a(sched-irq_unexpectedisr.o) (up_assert)
/home/tuofeichen/SLAM/MAV-Project/Firmware/build_px4fmu-v2_lpe/px4io-v2/NuttX/nuttx-export/libs/libnuttx.a(arch-up_hardfault.o)
                              /home/tuofeichen/SLAM/MAV-Project/Firmware/build_px4fmu-v2_lpe/px4io-v2/NuttX/nuttx-export/libs/libnuttx.a(arch-stm32_irq.o) (up_hardfault)
/home/tuofeichen/SLAM/MAV-Project/Firmware/build_px4fmu-v2_lpe/px4io-v2/NuttX/nuttx-export/libs/libnuttx.a(arch-up_modifyreg32.o)
                              src/modules/px4iofirmware/CMakeFiles/px4io-v2.dir/__/__/drivers/stm32/drv_hrt.c.obj (modifyreg32)
/home/tuofeichen/SLAM/MAV-Project/Firmware/build_px4fmu-v2_lpe/px4io-v2/NuttX/nuttx-export/libs/libnuttx.a(arch-up_svcall.o)
                              /home/tuofeichen/SLAM/MAV-Project/Firmware/build_px4fmu-v2_lpe/px4io-v2/NuttX/nuttx-export/libs/libnuttx.a(arch-stm32_irq.o) (up_svcall)
/home/tuofeichen/SLAM/MAV-Project/Firmware/build_px4fmu-v2_lpe/px4io-v2/NuttX/nuttx-export/libs/libnuttx.a(arch-up_systemreset.o)
                              src/modules/px4iofirmware/CMakeFiles/px4io-v2.dir/px4io.c.obj (up_systemreset)
/home/tuofeichen/SLAM/MAV-Project/Firmware/build_px4fmu-v2_lpe/px4io-v2/NuttX/nuttx-export/libs/libnuttx.a(arch-up_udelay.o)
                              src/modules/px4iofirmware/CMakeFiles/px4io-v2.dir/adc.c.obj (up_udelay)
/home/tuofeichen/SLAM/MAV-Project/Firmware/build_px4fmu-v2_lpe/px4io-v2/NuttX/nuttx-export/libs/libnuttx.a(arch-up_vectors.o)
                              (_vectors)
/home/tuofeichen/SLAM/MAV-Project/Firmware/build_px4fmu-v2_lpe/px4io-v2/NuttX/nuttx-export/libs/libnuttx.a(cxx-libxx_cxa_atexit.o)
                              src/modules/px4iofirmware/CMakeFiles/px4io-v2.dir/mixer.cpp.obj (__dso_handle)
/home/tuofeichen/SLAM/MAV-Project/Firmware/build_px4fmu-v2_lpe/px4io-v2/NuttX/nuttx-export/libs/libnuttx.a(cxx-libxx_cxapurevirtual.o)
                              src/modules/px4iofirmware/CMakeFiles/px4io-v2.dir/__/systemlib/mixer/mixer.cpp.obj (__cxa_pure_virtual)
/home/tuofeichen/SLAM/MAV-Project/Firmware/build_px4fmu-v2_lpe/px4io-v2/NuttX/nuttx-export/libs/libnuttx.a(cxx-libxx_delete.o)
                              src/modules/px4iofirmware/CMakeFiles/px4io-v2.dir/__/systemlib/mixer/mixer.cpp.obj (operator delete(void*))
/home/tuofeichen/SLAM/MAV-Project/Firmware/build_px4fmu-v2_lpe/px4io-v2/NuttX/nuttx-export/libs/libnuttx.a(cxx-libxx_eabi_atexit.o)
                              src/modules/px4iofirmware/CMakeFiles/px4io-v2.dir/mixer.cpp.obj (__aeabi_atexit)
/home/tuofeichen/SLAM/MAV-Project/Firmware/build_px4fmu-v2_lpe/px4io-v2/NuttX/nuttx-export/libs/libnuttx.a(cxx-libxx_new.o)
                              src/modules/px4iofirmware/CMakeFiles/px4io-v2.dir/__/systemlib/mixer/mixer.cpp.obj (operator new(unsigned int))
/home/tuofeichen/SLAM/MAV-Project/Firmware/build_px4fmu-v2_lpe/px4io-v2/NuttX/nuttx-export/libs/libnuttx.a(fs-fs_ioctl.o)
                              src/modules/px4iofirmware/CMakeFiles/px4io-v2.dir/__/__/lib/rc/sbus.c.obj (ioctl)
/home/tuofeichen/SLAM/MAV-Project/Firmware/build_px4fmu-v2_lpe/px4io-v2/NuttX/nuttx-export/libs/libnuttx.a(fs-fs_open.o)
                              src/modules/px4iofirmware/CMakeFiles/px4io-v2.dir/__/__/lib/rc/sbus.c.obj (open)
/home/tuofeichen/SLAM/MAV-Project/Firmware/build_px4fmu-v2_lpe/px4io-v2/NuttX/nuttx-export/libs/libnuttx.a(fs-fs_read.o)
                              src/modules/px4iofirmware/CMakeFiles/px4io-v2.dir/__/__/lib/rc/sbus.c.obj (read)
/home/tuofeichen/SLAM/MAV-Project/Firmware/build_px4fmu-v2_lpe/px4io-v2/NuttX/nuttx-export/libs/libnuttx.a(fs-fs_write.o)
                              src/modules/px4iofirmware/CMakeFiles/px4io-v2.dir/__/__/lib/rc/sbus.c.obj (write)
/home/tuofeichen/SLAM/MAV-Project/Firmware/build_px4fmu-v2_lpe/px4io-v2/NuttX/nuttx-export/libs/libnuttx.a(drivers-serialirq.o)
                              /home/tuofeichen/SLAM/MAV-Project/Firmware/build_px4fmu-v2_lpe/px4io-v2/NuttX/nuttx-export/libs/libnuttx.a(arch-stm32_serial.o) (uart_xmitchars)
/home/tuofeichen/SLAM/MAV-Project/Firmware/build_px4fmu-v2_lpe/px4io-v2/NuttX/nuttx-export/libs/libnuttx.a(drivers-serial.o)
                              /home/tuofeichen/SLAM/MAV-Project/Firmware/build_px4fmu-v2_lpe/px4io-v2/NuttX/nuttx-export/libs/libnuttx.a(arch-stm32_serial.o) (uart_register)
/home/tuofeichen/SLAM/MAV-Project/Firmware/build_px4fmu-v2_lpe/px4io-v2/NuttX/nuttx-export/libs/libnuttx.a(sched-errno_getptr.o)
                              /home/tuofeichen/SLAM/MAV-Project/Firmware/build_px4fmu-v2_lpe/px4io-v2/NuttX/nuttx-export/libs/libnuttx.a(mm-mm_sem.o) (get_errno_ptr)
/home/tuofeichen/SLAM/MAV-Project/Firmware/build_px4fmu-v2_lpe/px4io-v2/NuttX/nuttx-export/libs/libnuttx.a(sched-exit.o)
                              /home/tuofeichen/SLAM/MAV-Project/Firmware/build_px4fmu-v2_lpe/px4io-v2/NuttX/nuttx-export/libs/libnuttx.a(c-lib_abort.o) (exit)
/home/tuofeichen/SLAM/MAV-Project/Firmware/build_px4fmu-v2_lpe/px4io-v2/NuttX/nuttx-export/libs/libnuttx.a(sched-getpid.o)
                              /home/tuofeichen/SLAM/MAV-Project/Firmware/build_px4fmu-v2_lpe/px4io-v2/NuttX/nuttx-export/libs/libnuttx.a(mm-mm_sem.o) (getpid)
/home/tuofeichen/SLAM/MAV-Project/Firmware/build_px4fmu-v2_lpe/px4io-v2/NuttX/nuttx-export/libs/libnuttx.a(sched-os_start.o)
                              /home/tuofeichen/SLAM/MAV-Project/Firmware/build_px4fmu-v2_lpe/px4io-v2/NuttX/nuttx-export/libs/libnuttx.a(arch-stm32_start.o) (os_start)
/home/tuofeichen/SLAM/MAV-Project/Firmware/build_px4fmu-v2_lpe/px4io-v2/NuttX/nuttx-export/libs/libnuttx.a(sched-sched_garbage.o)
                              /home/tuofeichen/SLAM/MAV-Project/Firmware/build_px4fmu-v2_lpe/px4io-v2/NuttX/nuttx-export/libs/libnuttx.a(sched-os_start.o) (sched_garbagecollection)
/home/tuofeichen/SLAM/MAV-Project/Firmware/build_px4fmu-v2_lpe/px4io-v2/NuttX/nuttx-export/libs/libnuttx.a(sched-sched_getfiles.o)
                              /home/tuofeichen/SLAM/MAV-Project/Firmware/build_px4fmu-v2_lpe/px4io-v2/NuttX/nuttx-export/libs/libnuttx.a(fs-fs_ioctl.o) (sched_getfiles)
/home/tuofeichen/SLAM/MAV-Project/Firmware/build_px4fmu-v2_lpe/px4io-v2/NuttX/nuttx-export/libs/libnuttx.a(sched-sem_post.o)
                              /home/tuofeichen/SLAM/MAV-Project/Firmware/build_px4fmu-v2_lpe/px4io-v2/NuttX/nuttx-export/libs/libnuttx.a(mm-mm_sem.o) (sem_post)
/home/tuofeichen/SLAM/MAV-Project/Firmware/build_px4fmu-v2_lpe/px4io-v2/NuttX/nuttx-export/libs/libnuttx.a(sched-sem_trywait.o)
                              /home/tuofeichen/SLAM/MAV-Project/Firmware/build_px4fmu-v2_lpe/px4io-v2/NuttX/nuttx-export/libs/libnuttx.a(mm-mm_sem.o) (sem_trywait)
/home/tuofeichen/SLAM/MAV-Project/Firmware/build_px4fmu-v2_lpe/px4io-v2/NuttX/nuttx-export/libs/libnuttx.a(sched-sem_wait.o)
                              /home/tuofeichen/SLAM/MAV-Project/Firmware/build_px4fmu-v2_lpe/px4io-v2/NuttX/nuttx-export/libs/libnuttx.a(mm-mm_sem.o) (sem_wait)
/home/tuofeichen/SLAM/MAV-Project/Firmware/build_px4fmu-v2_lpe/px4io-v2/NuttX/nuttx-export/libs/libnuttx.a(sched-task_exithook.o)
                              /home/tuofeichen/SLAM/MAV-Project/Firmware/build_px4fmu-v2_lpe/px4io-v2/NuttX/nuttx-export/libs/libnuttx.a(sched-exit.o) (task_exithook)
/home/tuofeichen/SLAM/MAV-Project/Firmware/build_px4fmu-v2_lpe/px4io-v2/NuttX/nuttx-export/libs/libnuttx.a(sched-task_recover.o)
                              /home/tuofeichen/SLAM/MAV-Project/Firmware/build_px4fmu-v2_lpe/px4io-v2/NuttX/nuttx-export/libs/libnuttx.a(sched-task_exithook.o) (task_recover)
/home/tuofeichen/SLAM/MAV-Project/Firmware/build_px4fmu-v2_lpe/px4io-v2/NuttX/nuttx-export/libs/libnuttx.a(sched-wd_cancel.o)
                              /home/tuofeichen/SLAM/MAV-Project/Firmware/build_px4fmu-v2_lpe/px4io-v2/NuttX/nuttx-export/libs/libnuttx.a(sched-task_recover.o) (wd_cancel)
/home/tuofeichen/SLAM/MAV-Project/Firmware/build_px4fmu-v2_lpe/px4io-v2/NuttX/nuttx-export/libs/libnuttx.a(sched-wd_delete.o)
                              /home/tuofeichen/SLAM/MAV-Project/Firmware/build_px4fmu-v2_lpe/px4io-v2/NuttX/nuttx-export/libs/libnuttx.a(sched-task_recover.o) (wd_delete)
/home/tuofeichen/SLAM/MAV-Project/Firmware/build_px4fmu-v2_lpe/px4io-v2/NuttX/nuttx-export/libs/libnuttx.a(sched-wd_initialize.o)
                              /home/tuofeichen/SLAM/MAV-Project/Firmware/build_px4fmu-v2_lpe/px4io-v2/NuttX/nuttx-export/libs/libnuttx.a(sched-wd_cancel.o) (g_wdactivelist)
/home/tuofeichen/SLAM/MAV-Project/Firmware/build_px4fmu-v2_lpe/px4io-v2/NuttX/nuttx-export/libs/libnuttx.a(c-dq_addfirst.o)
                              /home/tuofeichen/SLAM/MAV-Project/Firmware/build_px4fmu-v2_lpe/px4io-v2/NuttX/nuttx-export/libs/libnuttx.a(sched-os_start.o) (dq_addfirst)
/home/tuofeichen/SLAM/MAV-Project/Firmware/build_px4fmu-v2_lpe/px4io-v2/NuttX/nuttx-export/libs/libnuttx.a(c-lib_cfgetspeed.o)
                              /home/tuofeichen/SLAM/MAV-Project/Firmware/build_px4fmu-v2_lpe/px4io-v2/NuttX/nuttx-export/libs/libnuttx.a(arch-stm32_serial.o) (cfgetspeed)
/home/tuofeichen/SLAM/MAV-Project/Firmware/build_px4fmu-v2_lpe/px4io-v2/NuttX/nuttx-export/libs/libnuttx.a(c-lib_checkbase.o)
                              /home/tuofeichen/SLAM/MAV-Project/Firmware/build_px4fmu-v2_lpe/px4io-v2/NuttX/nuttx-export/libs/libnuttx.a(c-lib_strtoul.o) (lib_checkbase)
/home/tuofeichen/SLAM/MAV-Project/Firmware/build_px4fmu-v2_lpe/px4io-v2/NuttX/nuttx-export/libs/libnuttx.a(c-lib_isbasedigit.o)
                              /home/tuofeichen/SLAM/MAV-Project/Firmware/build_px4fmu-v2_lpe/px4io-v2/NuttX/nuttx-export/libs/libnuttx.a(c-lib_strtoul.o) (lib_isbasedigit)
/home/tuofeichen/SLAM/MAV-Project/Firmware/build_px4fmu-v2_lpe/px4io-v2/NuttX/nuttx-export/libs/libnuttx.a(c-lib_libvsprintf.o)
                              /home/tuofeichen/SLAM/MAV-Project/Firmware/build_px4fmu-v2_lpe/px4io-v2/NuttX/nuttx-export/libs/libnuttx.a(c-lib_lowsyslog.o) (lib_vsprintf)
/home/tuofeichen/SLAM/MAV-Project/Firmware/build_px4fmu-v2_lpe/px4io-v2/NuttX/nuttx-export/libs/libnuttx.a(c-lib_lowoutstream.o)
                              /home/tuofeichen/SLAM/MAV-Project/Firmware/build_px4fmu-v2_lpe/px4io-v2/NuttX/nuttx-export/libs/libnuttx.a(c-lib_lowsyslog.o) (lib_lowoutstream)
/home/tuofeichen/SLAM/MAV-Project/Firmware/build_px4fmu-v2_lpe/px4io-v2/NuttX/nuttx-export/libs/libnuttx.a(c-lib_memoutstream.o)
                              /home/tuofeichen/SLAM/MAV-Project/Firmware/build_px4fmu-v2_lpe/px4io-v2/NuttX/nuttx-export/libs/libnuttx.a(c-lib_vsnprintf.o) (lib_memoutstream)
/home/tuofeichen/SLAM/MAV-Project/Firmware/build_px4fmu-v2_lpe/px4io-v2/NuttX/nuttx-export/libs/libnuttx.a(c-lib_nulloutstream.o)
                              /home/tuofeichen/SLAM/MAV-Project/Firmware/build_px4fmu-v2_lpe/px4io-v2/NuttX/nuttx-export/libs/libnuttx.a(c-lib_libvsprintf.o) (lib_nulloutstream)
/home/tuofeichen/SLAM/MAV-Project/Firmware/build_px4fmu-v2_lpe/px4io-v2/NuttX/nuttx-export/libs/libnuttx.a(c-lib_rawoutstream.o)
                              /home/tuofeichen/SLAM/MAV-Project/Firmware/build_px4fmu-v2_lpe/px4io-v2/NuttX/nuttx-export/libs/libnuttx.a(c-lib_syslog.o) (lib_rawoutstream)
/home/tuofeichen/SLAM/MAV-Project/Firmware/build_px4fmu-v2_lpe/px4io-v2/NuttX/nuttx-export/libs/libnuttx.a(c-lib_skipspace.o)
                              /home/tuofeichen/SLAM/MAV-Project/Firmware/build_px4fmu-v2_lpe/px4io-v2/NuttX/nuttx-export/libs/libnuttx.a(c-lib_strtol.o) (lib_skipspace)
/home/tuofeichen/SLAM/MAV-Project/Firmware/build_px4fmu-v2_lpe/px4io-v2/NuttX/nuttx-export/libs/libnuttx.a(c-lib_strcpy.o)
                              /home/tuofeichen/SLAM/MAV-Project/Firmware/build_px4fmu-v2_lpe/px4io-v2/NuttX/nuttx-export/libs/libnuttx.a(arch-stm32_serial.o) (strcpy)
/home/tuofeichen/SLAM/MAV-Project/Firmware/build_px4fmu-v2_lpe/px4io-v2/NuttX/nuttx-export/libs/libnuttx.a(c-lib_strlen.o)
                              /home/tuofeichen/SLAM/MAV-Project/Firmware/build_px4fmu-v2_lpe/px4io-v2/NuttX/nuttx-export/libs/libnuttx.a(c-lib_libvsprintf.o) (strlen)
/home/tuofeichen/SLAM/MAV-Project/Firmware/build_px4fmu-v2_lpe/px4io-v2/NuttX/nuttx-export/libs/libnuttx.a(c-sem_init.o)
                              /home/tuofeichen/SLAM/MAV-Project/Firmware/build_px4fmu-v2_lpe/px4io-v2/NuttX/nuttx-export/libs/libnuttx.a(mm-mm_sem.o) (sem_init)
/home/tuofeichen/SLAM/MAV-Project/Firmware/build_px4fmu-v2_lpe/px4io-v2/NuttX/nuttx-export/libs/libnuttx.a(c-sq_remafter.o)
                              /home/tuofeichen/SLAM/MAV-Project/Firmware/build_px4fmu-v2_lpe/px4io-v2/NuttX/nuttx-export/libs/libnuttx.a(c-sq_rem.o) (sq_remafter)
/home/tuofeichen/SLAM/MAV-Project/Firmware/build_px4fmu-v2_lpe/px4io-v2/NuttX/nuttx-export/libs/libnuttx.a(c-sq_remfirst.o)
                              /home/tuofeichen/SLAM/MAV-Project/Firmware/build_px4fmu-v2_lpe/px4io-v2/NuttX/nuttx-export/libs/libnuttx.a(sched-sched_garbage.o) (sq_remfirst)
/home/tuofeichen/SLAM/MAV-Project/Firmware/build_px4fmu-v2_lpe/px4io-v2/NuttX/nuttx-export/libs/libnuttx.a(mm-mm_addfreechunk.o)
                              /home/tuofeichen/SLAM/MAV-Project/Firmware/build_px4fmu-v2_lpe/px4io-v2/NuttX/nuttx-export/libs/libnuttx.a(mm-mm_free.o) (mm_addfreechunk)
/home/tuofeichen/SLAM/MAV-Project/Firmware/build_px4fmu-v2_lpe/px4io-v2/NuttX/nuttx-export/libs/libnuttx.a(mm-mm_initialize.o)
                              /home/tuofeichen/SLAM/MAV-Project/Firmware/build_px4fmu-v2_lpe/px4io-v2/NuttX/nuttx-export/libs/libnuttx.a(mm-mm_user.o) (mm_addregion)
/home/tuofeichen/SLAM/MAV-Project/Firmware/build_px4fmu-v2_lpe/px4io-v2/NuttX/nuttx-export/libs/libnuttx.a(arch-stm32_allocateheap.o)
                              /home/tuofeichen/SLAM/MAV-Project/Firmware/build_px4fmu-v2_lpe/px4io-v2/NuttX/nuttx-export/libs/libnuttx.a(sched-os_start.o) (up_allocate_heap)
/home/tuofeichen/SLAM/MAV-Project/Firmware/build_px4fmu-v2_lpe/px4io-v2/NuttX/nuttx-export/libs/libnuttx.a(arch-stm32_idle.o)
                              /home/tuofeichen/SLAM/MAV-Project/Firmware/build_px4fmu-v2_lpe/px4io-v2/NuttX/nuttx-export/libs/libnuttx.a(sched-os_start.o) (up_idle)
/home/tuofeichen/SLAM/MAV-Project/Firmware/build_px4fmu-v2_lpe/px4io-v2/NuttX/nuttx-export/libs/libnuttx.a(arch-stm32_lowputc.o)
                              /home/tuofeichen/SLAM/MAV-Project/Firmware/build_px4fmu-v2_lpe/px4io-v2/NuttX/nuttx-export/libs/libnuttx.a(arch-stm32_serial.o) (up_lowputc)
/home/tuofeichen/SLAM/MAV-Project/Firmware/build_px4fmu-v2_lpe/px4io-v2/NuttX/nuttx-export/libs/libnuttx.a(arch-stm32_rcc.o)
                              /home/tuofeichen/SLAM/MAV-Project/Firmware/build_px4fmu-v2_lpe/px4io-v2/NuttX/nuttx-export/libs/libnuttx.a(arch-stm32_start.o) (stm32_clockconfig)
/home/tuofeichen/SLAM/MAV-Project/Firmware/build_px4fmu-v2_lpe/px4io-v2/NuttX/nuttx-export/libs/libnuttx.a(arch-stm32_vectors.o)
                              /home/tuofeichen/SLAM/MAV-Project/Firmware/build_px4fmu-v2_lpe/px4io-v2/NuttX/nuttx-export/libs/libnuttx.a(arch-up_assert.o) (g_idle_topstack)
/home/tuofeichen/SLAM/MAV-Project/Firmware/build_px4fmu-v2_lpe/px4io-v2/NuttX/nuttx-export/libs/libnuttx.a(arch-up_blocktask.o)
                              /home/tuofeichen/SLAM/MAV-Project/Firmware/build_px4fmu-v2_lpe/px4io-v2/NuttX/nuttx-export/libs/libnuttx.a(sched-sem_wait.o) (up_block_task)
/home/tuofeichen/SLAM/MAV-Project/Firmware/build_px4fmu-v2_lpe/px4io-v2/NuttX/nuttx-export/libs/libnuttx.a(arch-up_copystate.o)
                              /home/tuofeichen/SLAM/MAV-Project/Firmware/build_px4fmu-v2_lpe/px4io-v2/NuttX/nuttx-export/libs/libnuttx.a(arch-up_blocktask.o) (up_copystate)
/home/tuofeichen/SLAM/MAV-Project/Firmware/build_px4fmu-v2_lpe/px4io-v2/NuttX/nuttx-export/libs/libnuttx.a(arch-up_exception.o)
                              /home/tuofeichen/SLAM/MAV-Project/Firmware/build_px4fmu-v2_lpe/px4io-v2/NuttX/nuttx-export/libs/libnuttx.a(arch-up_vectors.o) (exception_common)
/home/tuofeichen/SLAM/MAV-Project/Firmware/build_px4fmu-v2_lpe/px4io-v2/NuttX/nuttx-export/libs/libnuttx.a(arch-up_exit.o)
                              /home/tuofeichen/SLAM/MAV-Project/Firmware/build_px4fmu-v2_lpe/px4io-v2/NuttX/nuttx-export/libs/libnuttx.a(sched-exit.o) (_exit)
/home/tuofeichen/SLAM/MAV-Project/Firmware/build_px4fmu-v2_lpe/px4io-v2/NuttX/nuttx-export/libs/libnuttx.a(arch-up_fullcontextrestore.o)
                              /home/tuofeichen/SLAM/MAV-Project/Firmware/build_px4fmu-v2_lpe/px4io-v2/NuttX/nuttx-export/libs/libnuttx.a(arch-up_exit.o) (up_fullcontextrestore)
/home/tuofeichen/SLAM/MAV-Project/Firmware/build_px4fmu-v2_lpe/px4io-v2/NuttX/nuttx-export/libs/libnuttx.a(arch-up_initialize.o)
                              /home/tuofeichen/SLAM/MAV-Project/Firmware/build_px4fmu-v2_lpe/px4io-v2/NuttX/nuttx-export/libs/libnuttx.a(sched-os_start.o) (up_initialize)
/home/tuofeichen/SLAM/MAV-Project/Firmware/build_px4fmu-v2_lpe/px4io-v2/NuttX/nuttx-export/libs/libnuttx.a(arch-up_initialstate.o)
                              /home/tuofeichen/SLAM/MAV-Project/Firmware/build_px4fmu-v2_lpe/px4io-v2/NuttX/nuttx-export/libs/libnuttx.a(sched-os_start.o) (up_initial_state)
/home/tuofeichen/SLAM/MAV-Project/Firmware/build_px4fmu-v2_lpe/px4io-v2/NuttX/nuttx-export/libs/libnuttx.a(arch-up_interruptcontext.o)
                              /home/tuofeichen/SLAM/MAV-Project/Firmware/build_px4fmu-v2_lpe/px4io-v2/NuttX/nuttx-export/libs/libnuttx.a(drivers-serial.o) (up_interrupt_context)
/home/tuofeichen/SLAM/MAV-Project/Firmware/build_px4fmu-v2_lpe/px4io-v2/NuttX/nuttx-export/libs/libnuttx.a(arch-up_mdelay.o)
                              /home/tuofeichen/SLAM/MAV-Project/Firmware/build_px4fmu-v2_lpe/px4io-v2/NuttX/nuttx-export/libs/libnuttx.a(drivers-serial.o) (up_mdelay)
/home/tuofeichen/SLAM/MAV-Project/Firmware/build_px4fmu-v2_lpe/px4io-v2/NuttX/nuttx-export/libs/libnuttx.a(arch-up_switchcontext.o)
                              /home/tuofeichen/SLAM/MAV-Project/Firmware/build_px4fmu-v2_lpe/px4io-v2/NuttX/nuttx-export/libs/libnuttx.a(arch-up_blocktask.o) (up_switchcontext)
/home/tuofeichen/SLAM/MAV-Project/Firmware/build_px4fmu-v2_lpe/px4io-v2/NuttX/nuttx-export/libs/libnuttx.a(arch-up_unblocktask.o)
                              /home/tuofeichen/SLAM/MAV-Project/Firmware/build_px4fmu-v2_lpe/px4io-v2/NuttX/nuttx-export/libs/libnuttx.a(sched-sem_post.o) (up_unblock_task)
/home/tuofeichen/SLAM/MAV-Project/Firmware/build_px4fmu-v2_lpe/px4io-v2/NuttX/nuttx-export/libs/libnuttx.a(fs-fs_files.o)
                              /home/tuofeichen/SLAM/MAV-Project/Firmware/build_px4fmu-v2_lpe/px4io-v2/NuttX/nuttx-export/libs/libnuttx.a(fs-fs_open.o) (files_allocate)
/home/tuofeichen/SLAM/MAV-Project/Firmware/build_px4fmu-v2_lpe/px4io-v2/NuttX/nuttx-export/libs/libnuttx.a(fs-fs_inodeaddref.o)
                              /home/tuofeichen/SLAM/MAV-Project/Firmware/build_px4fmu-v2_lpe/px4io-v2/NuttX/nuttx-export/libs/libnuttx.a(fs-fs_files.o) (inode_addref)
/home/tuofeichen/SLAM/MAV-Project/Firmware/build_px4fmu-v2_lpe/px4io-v2/NuttX/nuttx-export/libs/libnuttx.a(fs-fs_inodefind.o)
                              /home/tuofeichen/SLAM/MAV-Project/Firmware/build_px4fmu-v2_lpe/px4io-v2/NuttX/nuttx-export/libs/libnuttx.a(fs-fs_open.o) (inode_find)
/home/tuofeichen/SLAM/MAV-Project/Firmware/build_px4fmu-v2_lpe/px4io-v2/NuttX/nuttx-export/libs/libnuttx.a(fs-fs_inode.o)
                              /home/tuofeichen/SLAM/MAV-Project/Firmware/build_px4fmu-v2_lpe/px4io-v2/NuttX/nuttx-export/libs/libnuttx.a(fs-fs_inodeaddref.o) (inode_semtake)
/home/tuofeichen/SLAM/MAV-Project/Firmware/build_px4fmu-v2_lpe/px4io-v2/NuttX/nuttx-export/libs/libnuttx.a(fs-fs_inoderelease.o)
                              /home/tuofeichen/SLAM/MAV-Project/Firmware/build_px4fmu-v2_lpe/px4io-v2/NuttX/nuttx-export/libs/libnuttx.a(fs-fs_open.o) (inode_release)
/home/tuofeichen/SLAM/MAV-Project/Firmware/build_px4fmu-v2_lpe/px4io-v2/NuttX/nuttx-export/libs/libnuttx.a(fs-fs_registerdriver.o)
                              /home/tuofeichen/SLAM/MAV-Project/Firmware/build_px4fmu-v2_lpe/px4io-v2/NuttX/nuttx-export/libs/libnuttx.a(drivers-serial.o) (register_driver)
/home/tuofeichen/SLAM/MAV-Project/Firmware/build_px4fmu-v2_lpe/px4io-v2/NuttX/nuttx-export/libs/libnuttx.a(sched-group_create.o)
                              /home/tuofeichen/SLAM/MAV-Project/Firmware/build_px4fmu-v2_lpe/px4io-v2/NuttX/nuttx-export/libs/libnuttx.a(sched-os_start.o) (group_allocate)
/home/tuofeichen/SLAM/MAV-Project/Firmware/build_px4fmu-v2_lpe/px4io-v2/NuttX/nuttx-export/libs/libnuttx.a(sched-group_leave.o)
                              /home/tuofeichen/SLAM/MAV-Project/Firmware/build_px4fmu-v2_lpe/px4io-v2/NuttX/nuttx-export/libs/libnuttx.a(sched-task_exithook.o) (group_leave)
/home/tuofeichen/SLAM/MAV-Project/Firmware/build_px4fmu-v2_lpe/px4io-v2/NuttX/nuttx-export/libs/libnuttx.a(sched-group_setupidlefiles.o)
                              /home/tuofeichen/SLAM/MAV-Project/Firmware/build_px4fmu-v2_lpe/px4io-v2/NuttX/nuttx-export/libs/libnuttx.a(sched-os_start.o) (group_setupidlefiles)
/home/tuofeichen/SLAM/MAV-Project/Firmware/build_px4fmu-v2_lpe/px4io-v2/NuttX/nuttx-export/libs/libnuttx.a(sched-os_bringup.o)
                              /home/tuofeichen/SLAM/MAV-Project/Firmware/build_px4fmu-v2_lpe/px4io-v2/NuttX/nuttx-export/libs/libnuttx.a(sched-os_start.o) (os_bringup)
/home/tuofeichen/SLAM/MAV-Project/Firmware/build_px4fmu-v2_lpe/px4io-v2/NuttX/nuttx-export/libs/libnuttx.a(sched-sched_addblocked.o)
                              /home/tuofeichen/SLAM/MAV-Project/Firmware/build_px4fmu-v2_lpe/px4io-v2/NuttX/nuttx-export/libs/libnuttx.a(arch-up_blocktask.o) (sched_addblocked)
/home/tuofeichen/SLAM/MAV-Project/Firmware/build_px4fmu-v2_lpe/px4io-v2/NuttX/nuttx-export/libs/libnuttx.a(sched-sched_addprioritized.o)
                              /home/tuofeichen/SLAM/MAV-Project/Firmware/build_px4fmu-v2_lpe/px4io-v2/NuttX/nuttx-export/libs/libnuttx.a(sched-sched_addblocked.o) (sched_addprioritized)
/home/tuofeichen/SLAM/MAV-Project/Firmware/build_px4fmu-v2_lpe/px4io-v2/NuttX/nuttx-export/libs/libnuttx.a(sched-sched_addreadytorun.o)
                              /home/tuofeichen/SLAM/MAV-Project/Firmware/build_px4fmu-v2_lpe/px4io-v2/NuttX/nuttx-export/libs/libnuttx.a(arch-up_unblocktask.o) (sched_addreadytorun)
/home/tuofeichen/SLAM/MAV-Project/Firmware/build_px4fmu-v2_lpe/px4io-v2/NuttX/nuttx-export/libs/libnuttx.a(sched-sched_free.o)
                              /home/tuofeichen/SLAM/MAV-Project/Firmware/build_px4fmu-v2_lpe/px4io-v2/NuttX/nuttx-export/libs/libnuttx.a(sched-group_leave.o) (sched_ufree)
/home/tuofeichen/SLAM/MAV-Project/Firmware/build_px4fmu-v2_lpe/px4io-v2/NuttX/nuttx-export/libs/libnuttx.a(sched-sched_mergepending.o)
                              /home/tuofeichen/SLAM/MAV-Project/Firmware/build_px4fmu-v2_lpe/px4io-v2/NuttX/nuttx-export/libs/libnuttx.a(arch-up_blocktask.o) (sched_mergepending)
/home/tuofeichen/SLAM/MAV-Project/Firmware/build_px4fmu-v2_lpe/px4io-v2/NuttX/nuttx-export/libs/libnuttx.a(sched-sched_removeblocked.o)
                              /home/tuofeichen/SLAM/MAV-Project/Firmware/build_px4fmu-v2_lpe/px4io-v2/NuttX/nuttx-export/libs/libnuttx.a(arch-up_unblocktask.o) (sched_removeblocked)
/home/tuofeichen/SLAM/MAV-Project/Firmware/build_px4fmu-v2_lpe/px4io-v2/NuttX/nuttx-export/libs/libnuttx.a(sched-sched_removereadytorun.o)
                              /home/tuofeichen/SLAM/MAV-Project/Firmware/build_px4fmu-v2_lpe/px4io-v2/NuttX/nuttx-export/libs/libnuttx.a(arch-up_blocktask.o) (sched_removereadytorun)
/home/tuofeichen/SLAM/MAV-Project/Firmware/build_px4fmu-v2_lpe/px4io-v2/NuttX/nuttx-export/libs/libnuttx.a(sched-sem_destroy.o)
                              /home/tuofeichen/SLAM/MAV-Project/Firmware/build_px4fmu-v2_lpe/px4io-v2/NuttX/nuttx-export/libs/libnuttx.a(fs-fs_files.o) (sem_destroy)
/home/tuofeichen/SLAM/MAV-Project/Firmware/build_px4fmu-v2_lpe/px4io-v2/NuttX/nuttx-export/libs/libnuttx.a(sched-task_create.o)
                              /home/tuofeichen/SLAM/MAV-Project/Firmware/build_px4fmu-v2_lpe/px4io-v2/NuttX/nuttx-export/libs/libnuttx.a(sched-os_bringup.o) (task_create)
/home/tuofeichen/SLAM/MAV-Project/Firmware/build_px4fmu-v2_lpe/px4io-v2/NuttX/nuttx-export/libs/libnuttx.a(sched-task_exit.o)
                              /home/tuofeichen/SLAM/MAV-Project/Firmware/build_px4fmu-v2_lpe/px4io-v2/NuttX/nuttx-export/libs/libnuttx.a(arch-up_exit.o) (task_exit)
/home/tuofeichen/SLAM/MAV-Project/Firmware/build_px4fmu-v2_lpe/px4io-v2/NuttX/nuttx-export/libs/libnuttx.a(sched-task_setup.o)
                              /home/tuofeichen/SLAM/MAV-Project/Firmware/build_px4fmu-v2_lpe/px4io-v2/NuttX/nuttx-export/libs/libnuttx.a(sched-task_create.o) (task_schedsetup)
/home/tuofeichen/SLAM/MAV-Project/Firmware/build_px4fmu-v2_lpe/px4io-v2/NuttX/nuttx-export/libs/libnuttx.a(sched-task_start.o)
                              /home/tuofeichen/SLAM/MAV-Project/Firmware/build_px4fmu-v2_lpe/px4io-v2/NuttX/nuttx-export/libs/libnuttx.a(sched-task_create.o) (task_start)
/home/tuofeichen/SLAM/MAV-Project/Firmware/build_px4fmu-v2_lpe/px4io-v2/NuttX/nuttx-export/libs/libnuttx.a(sched-task_terminate.o)
                              /home/tuofeichen/SLAM/MAV-Project/Firmware/build_px4fmu-v2_lpe/px4io-v2/NuttX/nuttx-export/libs/libnuttx.a(sched-task_exit.o) (task_terminate)
/home/tuofeichen/SLAM/MAV-Project/Firmware/build_px4fmu-v2_lpe/px4io-v2/NuttX/nuttx-export/libs/libnuttx.a(c-dq_addlast.o)
                              /home/tuofeichen/SLAM/MAV-Project/Firmware/build_px4fmu-v2_lpe/px4io-v2/NuttX/nuttx-export/libs/libnuttx.a(sched-sched_addblocked.o) (dq_addlast)
/home/tuofeichen/SLAM/MAV-Project/Firmware/build_px4fmu-v2_lpe/px4io-v2/NuttX/nuttx-export/libs/libnuttx.a(c-dq_rem.o)
                              /home/tuofeichen/SLAM/MAV-Project/Firmware/build_px4fmu-v2_lpe/px4io-v2/NuttX/nuttx-export/libs/libnuttx.a(sched-sched_removeblocked.o) (dq_rem)
/home/tuofeichen/SLAM/MAV-Project/Firmware/build_px4fmu-v2_lpe/px4io-v2/NuttX/nuttx-export/libs/libnuttx.a(c-lib_strdup.o)
                              /home/tuofeichen/SLAM/MAV-Project/Firmware/build_px4fmu-v2_lpe/px4io-v2/NuttX/nuttx-export/libs/libnuttx.a(sched-task_setup.o) (strdup)
/home/tuofeichen/SLAM/MAV-Project/Firmware/build_px4fmu-v2_lpe/px4io-v2/NuttX/nuttx-export/libs/libnuttx.a(arch-stm32_timerisr.o)
                              /home/tuofeichen/SLAM/MAV-Project/Firmware/build_px4fmu-v2_lpe/px4io-v2/NuttX/nuttx-export/libs/libnuttx.a(arch-up_initialize.o) (up_timerinit)
/home/tuofeichen/SLAM/MAV-Project/Firmware/build_px4fmu-v2_lpe/px4io-v2/NuttX/nuttx-export/libs/libnuttx.a(arch-up_createstack.o)
                              /home/tuofeichen/SLAM/MAV-Project/Firmware/build_px4fmu-v2_lpe/px4io-v2/NuttX/nuttx-export/libs/libnuttx.a(sched-task_create.o) (up_create_stack)
/home/tuofeichen/SLAM/MAV-Project/Firmware/build_px4fmu-v2_lpe/px4io-v2/NuttX/nuttx-export/libs/libnuttx.a(arch-up_doirq.o)
                              /home/tuofeichen/SLAM/MAV-Project/Firmware/build_px4fmu-v2_lpe/px4io-v2/NuttX/nuttx-export/libs/libnuttx.a(arch-up_exception.o) (up_doirq)
/home/tuofeichen/SLAM/MAV-Project/Firmware/build_px4fmu-v2_lpe/px4io-v2/NuttX/nuttx-export/libs/libnuttx.a(arch-up_releasestack.o)
                              /home/tuofeichen/SLAM/MAV-Project/Firmware/build_px4fmu-v2_lpe/px4io-v2/NuttX/nuttx-export/libs/libnuttx.a(arch-up_createstack.o) (up_release_stack)
/home/tuofeichen/SLAM/MAV-Project/Firmware/build_px4fmu-v2_lpe/px4io-v2/NuttX/nuttx-export/libs/libnuttx.a(fs-fs_close.o)
                              /home/tuofeichen/SLAM/MAV-Project/Firmware/build_px4fmu-v2_lpe/px4io-v2/NuttX/nuttx-export/libs/libnuttx.a(sched-group_setupidlefiles.o) (close)
/home/tuofeichen/SLAM/MAV-Project/Firmware/build_px4fmu-v2_lpe/px4io-v2/NuttX/nuttx-export/libs/libnuttx.a(fs-fs_filedup2.o)
                              /home/tuofeichen/SLAM/MAV-Project/Firmware/build_px4fmu-v2_lpe/px4io-v2/NuttX/nuttx-export/libs/libnuttx.a(sched-group_setupidlefiles.o) (dup2)
/home/tuofeichen/SLAM/MAV-Project/Firmware/build_px4fmu-v2_lpe/px4io-v2/NuttX/nuttx-export/libs/libnuttx.a(fs-fs_inodereserve.o)
                              /home/tuofeichen/SLAM/MAV-Project/Firmware/build_px4fmu-v2_lpe/px4io-v2/NuttX/nuttx-export/libs/libnuttx.a(fs-fs_registerdriver.o) (inode_reserve)
/home/tuofeichen/SLAM/MAV-Project/Firmware/build_px4fmu-v2_lpe/px4io-v2/NuttX/nuttx-export/libs/libnuttx.a(sched-group_setuptaskfiles.o)
                              /home/tuofeichen/SLAM/MAV-Project/Firmware/build_px4fmu-v2_lpe/px4io-v2/NuttX/nuttx-export/libs/libnuttx.a(sched-task_create.o) (group_setuptaskfiles)
/home/tuofeichen/SLAM/MAV-Project/Firmware/build_px4fmu-v2_lpe/px4io-v2/NuttX/nuttx-export/libs/libnuttx.a(sched-irq_dispatch.o)
                              /home/tuofeichen/SLAM/MAV-Project/Firmware/build_px4fmu-v2_lpe/px4io-v2/NuttX/nuttx-export/libs/libnuttx.a(arch-up_doirq.o) (irq_dispatch)
/home/tuofeichen/SLAM/MAV-Project/Firmware/build_px4fmu-v2_lpe/px4io-v2/NuttX/nuttx-export/libs/libnuttx.a(sched-sched_gettcb.o)
                              /home/tuofeichen/SLAM/MAV-Project/Firmware/build_px4fmu-v2_lpe/px4io-v2/NuttX/nuttx-export/libs/libnuttx.a(sched-task_terminate.o) (sched_gettcb)
/home/tuofeichen/SLAM/MAV-Project/Firmware/build_px4fmu-v2_lpe/px4io-v2/NuttX/nuttx-export/libs/libnuttx.a(sched-sched_lock.o)
                              /home/tuofeichen/SLAM/MAV-Project/Firmware/build_px4fmu-v2_lpe/px4io-v2/NuttX/nuttx-export/libs/libnuttx.a(sched-task_setup.o) (sched_lock)
/home/tuofeichen/SLAM/MAV-Project/Firmware/build_px4fmu-v2_lpe/px4io-v2/NuttX/nuttx-export/libs/libnuttx.a(sched-sched_processtimer.o)
                              /home/tuofeichen/SLAM/MAV-Project/Firmware/build_px4fmu-v2_lpe/px4io-v2/NuttX/nuttx-export/libs/libnuttx.a(arch-stm32_timerisr.o) (sched_process_timer)
/home/tuofeichen/SLAM/MAV-Project/Firmware/build_px4fmu-v2_lpe/px4io-v2/NuttX/nuttx-export/libs/libnuttx.a(sched-sched_releasetcb.o)
                              /home/tuofeichen/SLAM/MAV-Project/Firmware/build_px4fmu-v2_lpe/px4io-v2/NuttX/nuttx-export/libs/libnuttx.a(sched-task_create.o) (sched_releasetcb)
/home/tuofeichen/SLAM/MAV-Project/Firmware/build_px4fmu-v2_lpe/px4io-v2/NuttX/nuttx-export/libs/libnuttx.a(sched-sched_unlock.o)
                              /home/tuofeichen/SLAM/MAV-Project/Firmware/build_px4fmu-v2_lpe/px4io-v2/NuttX/nuttx-export/libs/libnuttx.a(sched-task_setup.o) (sched_unlock)
/home/tuofeichen/SLAM/MAV-Project/Firmware/build_px4fmu-v2_lpe/px4io-v2/NuttX/nuttx-export/libs/libnuttx.a(sched-task_activate.o)
                              /home/tuofeichen/SLAM/MAV-Project/Firmware/build_px4fmu-v2_lpe/px4io-v2/NuttX/nuttx-export/libs/libnuttx.a(sched-task_create.o) (task_activate)
/home/tuofeichen/SLAM/MAV-Project/Firmware/build_px4fmu-v2_lpe/px4io-v2/NuttX/nuttx-export/libs/libnuttx.a(arch-up_releasepending.o)
                              /home/tuofeichen/SLAM/MAV-Project/Firmware/build_px4fmu-v2_lpe/px4io-v2/NuttX/nuttx-export/libs/libnuttx.a(sched-sched_unlock.o) (up_release_pending)
/usr/bin/../lib/gcc/arm-none-eabi/4.9.3/../../../../arm-none-eabi/lib/armv7-m/libm.a(lib_a-sf_fmin.o)
                              src/modules/px4iofirmware/CMakeFiles/px4io-v2.dir/__/systemlib/mixer/mixer_multirotor.cpp.obj (fminf)
/usr/bin/../lib/gcc/arm-none-eabi/4.9.3/../../../../arm-none-eabi/lib/armv7-m/libm.a(lib_a-sf_fpclassify.o)
                              src/modules/px4iofirmware/CMakeFiles/px4io-v2.dir/__/systemlib/pwm_limit/pwm_limit.c.obj (__fpclassifyf)
/usr/bin/../lib/gcc/arm-none-eabi/4.9.3/../../../../arm-none-eabi/lib/armv7-m/libm.a(lib_a-wf_sqrt.o)
                              src/modules/px4iofirmware/CMakeFiles/px4io-v2.dir/__/systemlib/perf_counter.c.obj (sqrtf)
/usr/bin/../lib/gcc/arm-none-eabi/4.9.3/../../../../arm-none-eabi/lib/armv7-m/libm.a(lib_a-ef_sqrt.o)
                              /usr/bin/../lib/gcc/arm-none-eabi/4.9.3/../../../../arm-none-eabi/lib/armv7-m/libm.a(lib_a-wf_sqrt.o) (__ieee754_sqrtf)
/usr/bin/../lib/gcc/arm-none-eabi/4.9.3/../../../../arm-none-eabi/lib/armv7-m/libm.a(lib_a-s_lib_ver.o)
                              /usr/bin/../lib/gcc/arm-none-eabi/4.9.3/../../../../arm-none-eabi/lib/armv7-m/libm.a(lib_a-wf_sqrt.o) (__fdlib_version)
/usr/bin/../lib/gcc/arm-none-eabi/4.9.3/../../../../arm-none-eabi/lib/armv7-m/libm.a(lib_a-s_matherr.o)
                              /usr/bin/../lib/gcc/arm-none-eabi/4.9.3/../../../../arm-none-eabi/lib/armv7-m/libm.a(lib_a-wf_sqrt.o) (matherr)
/usr/bin/../lib/gcc/arm-none-eabi/4.9.3/armv7-m/libgcc.a(_lshrdi3.o)
                              /home/tuofeichen/SLAM/MAV-Project/Firmware/build_px4fmu-v2_lpe/px4io-v2/NuttX/nuttx-export/libs/libnuttx.a(c-lib_libvsprintf.o) (__aeabi_llsr)
/usr/bin/../lib/gcc/arm-none-eabi/4.9.3/armv7-m/libgcc.a(_arm_addsubdf3.o)
                              src/modules/px4iofirmware/CMakeFiles/px4io-v2.dir/__/systemlib/perf_counter.c.obj (__aeabi_f2d)
/usr/bin/../lib/gcc/arm-none-eabi/4.9.3/armv7-m/libgcc.a(_arm_muldivdf3.o)
                              /usr/bin/../lib/gcc/arm-none-eabi/4.9.3/../../../../arm-none-eabi/lib/armv7-m/libm.a(lib_a-wf_sqrt.o) (__aeabi_ddiv)
/usr/bin/../lib/gcc/arm-none-eabi/4.9.3/armv7-m/libgcc.a(_arm_truncdfsf2.o)
                              /usr/bin/../lib/gcc/arm-none-eabi/4.9.3/../../../../arm-none-eabi/lib/armv7-m/libm.a(lib_a-wf_sqrt.o) (__aeabi_d2f)
/usr/bin/../lib/gcc/arm-none-eabi/4.9.3/armv7-m/libgcc.a(_arm_addsubsf3.o)
                              src/modules/px4iofirmware/CMakeFiles/px4io-v2.dir/__/systemlib/perf_counter.c.obj (__aeabi_fsub)
/usr/bin/../lib/gcc/arm-none-eabi/4.9.3/armv7-m/libgcc.a(_arm_muldivsf3.o)
                              src/modules/px4iofirmware/CMakeFiles/px4io-v2.dir/controls.c.obj (__aeabi_fmul)
/usr/bin/../lib/gcc/arm-none-eabi/4.9.3/armv7-m/libgcc.a(_arm_cmpsf2.o)
                              src/modules/px4iofirmware/CMakeFiles/px4io-v2.dir/mixer.cpp.obj (__aeabi_fcmplt)
/usr/bin/../lib/gcc/arm-none-eabi/4.9.3/armv7-m/libgcc.a(_arm_unordsf2.o)
                              src/modules/px4iofirmware/CMakeFiles/px4io-v2.dir/__/systemlib/mixer/mixer_multirotor.cpp.obj (__aeabi_fcmpun)
/usr/bin/../lib/gcc/arm-none-eabi/4.9.3/armv7-m/libgcc.a(_arm_fixsfsi.o)
                              src/modules/px4iofirmware/CMakeFiles/px4io-v2.dir/controls.c.obj (__aeabi_f2iz)
/usr/bin/../lib/gcc/arm-none-eabi/4.9.3/armv7-m/libgcc.a(_arm_fixunssfsi.o)
                              src/modules/px4iofirmware/CMakeFiles/px4io-v2.dir/controls.c.obj (__aeabi_f2uiz)
/usr/bin/../lib/gcc/arm-none-eabi/4.9.3/armv7-m/libgcc.a(_aeabi_uldivmod.o)
                              src/modules/px4iofirmware/CMakeFiles/px4io-v2.dir/__/systemlib/perf_counter.c.obj (__aeabi_uldivmod)
/usr/bin/../lib/gcc/arm-none-eabi/4.9.3/armv7-m/libgcc.a(bpabi.o)
                              /usr/bin/../lib/gcc/arm-none-eabi/4.9.3/armv7-m/libgcc.a(_aeabi_uldivmod.o) (__gnu_uldivmod_helper)
/usr/bin/../lib/gcc/arm-none-eabi/4.9.3/armv7-m/libgcc.a(_dvmd_tls.o)
                              /usr/bin/../lib/gcc/arm-none-eabi/4.9.3/armv7-m/libgcc.a(_aeabi_uldivmod.o) (__aeabi_ldiv0)
/usr/bin/../lib/gcc/arm-none-eabi/4.9.3/armv7-m/libgcc.a(_divdi3.o)
                              /usr/bin/../lib/gcc/arm-none-eabi/4.9.3/armv7-m/libgcc.a(bpabi.o) (__divdi3)
/usr/bin/../lib/gcc/arm-none-eabi/4.9.3/armv7-m/libgcc.a(_udivdi3.o)
                              /usr/bin/../lib/gcc/arm-none-eabi/4.9.3/armv7-m/libgcc.a(bpabi.o) (__udivdi3)

Discarded input sections

 .group         0x0000000000000000        0xc src/modules/px4iofirmware/CMakeFiles/px4io-v2.dir/__/systemlib/mixer/mixer.cpp.obj
 .group         0x0000000000000000        0x8 src/modules/px4iofirmware/CMakeFiles/px4io-v2.dir/__/systemlib/mixer/mixer.cpp.obj

Memory Configuration

Name             Origin             Length             Attributes
flash            0x0000000008001000 0x000000000000f000 xr
sram             0x0000000020000000 0x0000000000002000 xrw
*default*        0x0000000000000000 0xffffffffffffffff

Linker script and memory map

LOAD src/modules/px4iofirmware/CMakeFiles/px4io-v2.dir/adc.c.obj
LOAD src/modules/px4iofirmware/CMakeFiles/px4io-v2.dir/controls.c.obj
LOAD src/modules/px4iofirmware/CMakeFiles/px4io-v2.dir/px4io.c.obj
LOAD src/modules/px4iofirmware/CMakeFiles/px4io-v2.dir/registers.c.obj
LOAD src/modules/px4iofirmware/CMakeFiles/px4io-v2.dir/safety.c.obj
LOAD src/modules/px4iofirmware/CMakeFiles/px4io-v2.dir/__/systemlib/up_cxxinitialize.c.obj
LOAD src/modules/px4iofirmware/CMakeFiles/px4io-v2.dir/__/systemlib/perf_counter.c.obj
LOAD src/modules/px4iofirmware/CMakeFiles/px4io-v2.dir/mixer.cpp.obj
LOAD src/modules/px4iofirmware/CMakeFiles/px4io-v2.dir/__/systemlib/mixer/mixer.cpp.obj
LOAD src/modules/px4iofirmware/CMakeFiles/px4io-v2.dir/__/systemlib/mixer/mixer_group.cpp.obj
LOAD src/modules/px4iofirmware/CMakeFiles/px4io-v2.dir/__/systemlib/mixer/mixer_multirotor.cpp.obj
LOAD src/modules/px4iofirmware/CMakeFiles/px4io-v2.dir/__/systemlib/mixer/mixer_simple.cpp.obj
LOAD src/modules/px4iofirmware/CMakeFiles/px4io-v2.dir/__/systemlib/pwm_limit/pwm_limit.c.obj
LOAD src/modules/px4iofirmware/CMakeFiles/px4io-v2.dir/__/__/lib/rc/st24.c.obj
LOAD src/modules/px4iofirmware/CMakeFiles/px4io-v2.dir/__/__/lib/rc/sumd.c.obj
LOAD src/modules/px4iofirmware/CMakeFiles/px4io-v2.dir/__/__/lib/rc/sbus.c.obj
LOAD src/modules/px4iofirmware/CMakeFiles/px4io-v2.dir/__/__/lib/rc/dsm.c.obj
LOAD src/modules/px4iofirmware/CMakeFiles/px4io-v2.dir/__/__/drivers/stm32/drv_hrt.c.obj
LOAD src/modules/px4iofirmware/CMakeFiles/px4io-v2.dir/__/__/drivers/stm32/drv_io_timer.c.obj
LOAD src/modules/px4iofirmware/CMakeFiles/px4io-v2.dir/__/__/drivers/stm32/drv_pwm_servo.c.obj
LOAD src/modules/px4iofirmware/CMakeFiles/px4io-v2.dir/__/__/drivers/boards/px4io-v2/px4io_init.c.obj
LOAD src/modules/px4iofirmware/CMakeFiles/px4io-v2.dir/__/__/drivers/boards/px4io-v2/px4io_timer_config.c.obj
LOAD src/modules/px4iofirmware/CMakeFiles/px4io-v2.dir/serial.c.obj
LOAD src/modules/px4iofirmware/CMakeFiles/px4io-v2.dir/__/systemlib/hx_stream.c.obj
START GROUP
LOAD /home/tuofeichen/SLAM/MAV-Project/Firmware/build_px4fmu-v2_lpe/px4io-v2/NuttX/nuttx-export/libs/libapps.a
LOAD /home/tuofeichen/SLAM/MAV-Project/Firmware/build_px4fmu-v2_lpe/px4io-v2/NuttX/nuttx-export/libs/libnuttx.a
LOAD /usr/bin/../lib/gcc/arm-none-eabi/4.9.3/../../../../arm-none-eabi/lib/armv7-m/libnosys.a
LOAD /usr/bin/../lib/gcc/arm-none-eabi/4.9.3/../../../../arm-none-eabi/lib/armv7-m/libm.a
LOAD /usr/bin/../lib/gcc/arm-none-eabi/4.9.3/armv7-m/libgcc.a
END GROUP

.text           0x0000000008001000     0xc6d0
                0x0000000008001000                _stext = ABSOLUTE (.)
 *(.vectors)
 .vectors       0x0000000008001000      0x134 /home/tuofeichen/SLAM/MAV-Project/Firmware/build_px4fmu-v2_lpe/px4io-v2/NuttX/nuttx-export/libs/libnuttx.a(arch-up_vectors.o)
                0x0000000008001000                _vectors
 *(.text .text.*)
 .text          0x0000000008001134        0x0 src/modules/px4iofirmware/CMakeFiles/px4io-v2.dir/adc.c.obj
 .text.adc_init
                0x0000000008001134       0x98 src/modules/px4iofirmware/CMakeFiles/px4io-v2.dir/adc.c.obj
                0x0000000008001134                adc_init
 .text.adc_measure
                0x00000000080011cc       0x80 src/modules/px4iofirmware/CMakeFiles/px4io-v2.dir/adc.c.obj
                0x00000000080011cc                adc_measure
 .text          0x000000000800124c        0x0 src/modules/px4iofirmware/CMakeFiles/px4io-v2.dir/controls.c.obj
 .text.controls_init
                0x000000000800124c       0x90 src/modules/px4iofirmware/CMakeFiles/px4io-v2.dir/controls.c.obj
                0x000000000800124c                controls_init
 .text.controls_tick
                0x00000000080012dc      0x6ec src/modules/px4iofirmware/CMakeFiles/px4io-v2.dir/controls.c.obj
                0x00000000080012dc                controls_tick
 .text          0x00000000080019c8        0x0 src/modules/px4iofirmware/CMakeFiles/px4io-v2.dir/px4io.c.obj
 .text.isr_debug
                0x00000000080019c8       0x60 src/modules/px4iofirmware/CMakeFiles/px4io-v2.dir/px4io.c.obj
                0x00000000080019c8                isr_debug
 .text.schedule_reboot
                0x0000000008001a28       0x1c src/modules/px4iofirmware/CMakeFiles/px4io-v2.dir/px4io.c.obj
                0x0000000008001a28                schedule_reboot
 .text.user_start
                0x0000000008001a44      0x340 src/modules/px4iofirmware/CMakeFiles/px4io-v2.dir/px4io.c.obj
                0x0000000008001a44                user_start
 .text          0x0000000008001d84        0x0 src/modules/px4iofirmware/CMakeFiles/px4io-v2.dir/registers.c.obj
 .text.pwm_configure_rates
                0x0000000008001d84       0x90 src/modules/px4iofirmware/CMakeFiles/px4io-v2.dir/registers.c.obj
 .text.registers_set
                0x0000000008001e14      0x680 src/modules/px4iofirmware/CMakeFiles/px4io-v2.dir/registers.c.obj
                0x0000000008001e14                registers_set
 .text.registers_get
                0x0000000008002494      0x288 src/modules/px4iofirmware/CMakeFiles/px4io-v2.dir/registers.c.obj
                0x0000000008002494                registers_get
 .text          0x000000000800271c        0x0 src/modules/px4iofirmware/CMakeFiles/px4io-v2.dir/safety.c.obj
 .text.safety_check_button
                0x000000000800271c       0xe8 src/modules/px4iofirmware/CMakeFiles/px4io-v2.dir/safety.c.obj
 .text.failsafe_blink
                0x0000000008002804       0x40 src/modules/px4iofirmware/CMakeFiles/px4io-v2.dir/safety.c.obj
 .text.safety_init
                0x0000000008002844       0x34 src/modules/px4iofirmware/CMakeFiles/px4io-v2.dir/safety.c.obj
                0x0000000008002844                safety_init
 .text.failsafe_led_init
                0x0000000008002878       0x34 src/modules/px4iofirmware/CMakeFiles/px4io-v2.dir/safety.c.obj
                0x0000000008002878                failsafe_led_init
 .text          0x00000000080028ac        0x0 src/modules/px4iofirmware/CMakeFiles/px4io-v2.dir/__/systemlib/up_cxxinitialize.c.obj
 .text.up_cxxinitialize
                0x00000000080028ac       0x38 src/modules/px4iofirmware/CMakeFiles/px4io-v2.dir/__/systemlib/up_cxxinitialize.c.obj
                0x00000000080028ac                up_cxxinitialize
 .text          0x00000000080028e4        0x0 src/modules/px4iofirmware/CMakeFiles/px4io-v2.dir/__/systemlib/perf_counter.c.obj
 .text.perf_alloc
                0x00000000080028e4       0x50 src/modules/px4iofirmware/CMakeFiles/px4io-v2.dir/__/systemlib/perf_counter.c.obj
                0x00000000080028e4                perf_alloc
 .text.perf_alloc_once
                0x0000000008002934       0x3c src/modules/px4iofirmware/CMakeFiles/px4io-v2.dir/__/systemlib/perf_counter.c.obj
                0x0000000008002934                perf_alloc_once
 .text.perf_free
                0x0000000008002970       0x1c src/modules/px4iofirmware/CMakeFiles/px4io-v2.dir/__/systemlib/perf_counter.c.obj
                0x0000000008002970                perf_free
 .text.perf_count
                0x000000000800298c      0x100 src/modules/px4iofirmware/CMakeFiles/px4io-v2.dir/__/systemlib/perf_counter.c.obj
                0x000000000800298c                perf_count
 .text.perf_begin
                0x0000000008002a8c       0x18 src/modules/px4iofirmware/CMakeFiles/px4io-v2.dir/__/systemlib/perf_counter.c.obj
                0x0000000008002a8c                perf_begin
 .text.perf_end
                0x0000000008002aa4       0xe0 src/modules/px4iofirmware/CMakeFiles/px4io-v2.dir/__/systemlib/perf_counter.c.obj
                0x0000000008002aa4                perf_end
 .text.perf_set
                0x0000000008002b84       0xcc src/modules/px4iofirmware/CMakeFiles/px4io-v2.dir/__/systemlib/perf_counter.c.obj
                0x0000000008002b84                perf_set
 .text.perf_cancel
                0x0000000008002c50       0x14 src/modules/px4iofirmware/CMakeFiles/px4io-v2.dir/__/systemlib/perf_counter.c.obj
                0x0000000008002c50                perf_cancel
 .text.perf_reset
                0x0000000008002c64       0x54 src/modules/px4iofirmware/CMakeFiles/px4io-v2.dir/__/systemlib/perf_counter.c.obj
                0x0000000008002c64                perf_reset
 .text.perf_print_counter_fd
                0x0000000008002cb8      0x144 src/modules/px4iofirmware/CMakeFiles/px4io-v2.dir/__/systemlib/perf_counter.c.obj
                0x0000000008002cb8                perf_print_counter_fd
 .text.perf_print_counter
                0x0000000008002dfc        0x8 src/modules/px4iofirmware/CMakeFiles/px4io-v2.dir/__/systemlib/perf_counter.c.obj
                0x0000000008002dfc                perf_print_counter
 .text.perf_event_count
                0x0000000008002e04       0x20 src/modules/px4iofirmware/CMakeFiles/px4io-v2.dir/__/systemlib/perf_counter.c.obj
                0x0000000008002e04                perf_event_count
 .text.perf_print_all
                0x0000000008002e24       0x20 src/modules/px4iofirmware/CMakeFiles/px4io-v2.dir/__/systemlib/perf_counter.c.obj
                0x0000000008002e24                perf_print_all
 .text.perf_print_latency
                0x0000000008002e44       0x64 src/modules/px4iofirmware/CMakeFiles/px4io-v2.dir/__/systemlib/perf_counter.c.obj
                0x0000000008002e44                perf_print_latency
 .text.perf_reset_all
                0x0000000008002ea8       0x38 src/modules/px4iofirmware/CMakeFiles/px4io-v2.dir/__/systemlib/perf_counter.c.obj
                0x0000000008002ea8                perf_reset_all
 .text          0x0000000008002ee0        0x0 src/modules/px4iofirmware/CMakeFiles/px4io-v2.dir/mixer.cpp.obj
 .text._ZL14mixer_callbackjhhRf
                0x0000000008002ee0      0x180 src/modules/px4iofirmware/CMakeFiles/px4io-v2.dir/mixer.cpp.obj
 .text.mixer_handle_text
                0x0000000008003060      0x118 src/modules/px4iofirmware/CMakeFiles/px4io-v2.dir/mixer.cpp.obj
                0x0000000008003060                mixer_handle_text
 .text.startup._GLOBAL__sub_I_mixer_tick
                0x0000000008003178       0x2c src/modules/px4iofirmware/CMakeFiles/px4io-v2.dir/mixer.cpp.obj
 .text.mixer_tick
                0x00000000080031a4      0x46c src/modules/px4iofirmware/CMakeFiles/px4io-v2.dir/mixer.cpp.obj
                0x00000000080031a4                mixer_tick
 .text.mixer_set_failsafe
                0x0000000008003610       0x80 src/modules/px4iofirmware/CMakeFiles/px4io-v2.dir/mixer.cpp.obj
                0x0000000008003610                mixer_set_failsafe
 .text          0x0000000008003690        0x0 src/modules/px4iofirmware/CMakeFiles/px4io-v2.dir/__/systemlib/mixer/mixer.cpp.obj
 .text._ZN9NullMixerD2Ev
                0x0000000008003690        0x4 src/modules/px4iofirmware/CMakeFiles/px4io-v2.dir/__/systemlib/mixer/mixer.cpp.obj
                0x0000000008003690                NullMixer::~NullMixer()
                0x0000000008003690                NullMixer::~NullMixer()
 .text._ZN9NullMixer3mixEPfjPt
                0x0000000008003694       0x10 src/modules/px4iofirmware/CMakeFiles/px4io-v2.dir/__/systemlib/mixer/mixer.cpp.obj
                0x0000000008003694                NullMixer::mix(float*, unsigned int, unsigned short*)
 .text._ZN9NullMixer15groups_requiredERj
                0x00000000080036a4        0x4 src/modules/px4iofirmware/CMakeFiles/px4io-v2.dir/__/systemlib/mixer/mixer.cpp.obj
                0x00000000080036a4                NullMixer::groups_required(unsigned int&)
 .text._ZN9NullMixerD0Ev
                0x00000000080036a8        0xc src/modules/px4iofirmware/CMakeFiles/px4io-v2.dir/__/systemlib/mixer/mixer.cpp.obj
                0x00000000080036a8                NullMixer::~NullMixer()
 .text._ZN5MixerC2EPFijhhRfEj
                0x00000000080036b4       0x18 src/modules/px4iofirmware/CMakeFiles/px4io-v2.dir/__/systemlib/mixer/mixer.cpp.obj
                0x00000000080036b4                Mixer::Mixer(int (*)(unsigned int, unsigned char, unsigned char, float&), unsigned int)
                0x00000000080036b4                Mixer::Mixer(int (*)(unsigned int, unsigned char, unsigned char, float&), unsigned int)
 .text._ZN5Mixer11get_controlEhh
                0x00000000080036cc       0x14 src/modules/px4iofirmware/CMakeFiles/px4io-v2.dir/__/systemlib/mixer/mixer.cpp.obj
                0x00000000080036cc                Mixer::get_control(unsigned char, unsigned char)
 .text._ZN5Mixer5scaleERK14mixer_scaler_sf
                0x00000000080036e0       0x54 src/modules/px4iofirmware/CMakeFiles/px4io-v2.dir/__/systemlib/mixer/mixer.cpp.obj
                0x00000000080036e0                Mixer::scale(mixer_scaler_s const&, float)
 .text._ZN5Mixer11scale_checkER14mixer_scaler_s
                0x0000000008003734       0x5c src/modules/px4iofirmware/CMakeFiles/px4io-v2.dir/__/systemlib/mixer/mixer.cpp.obj
                0x0000000008003734                Mixer::scale_check(mixer_scaler_s&)
 .text._ZN5Mixer7findtagEPKcRjc
                0x0000000008003790       0x34 src/modules/px4iofirmware/CMakeFiles/px4io-v2.dir/__/systemlib/mixer/mixer.cpp.obj
                0x0000000008003790                Mixer::findtag(char const*, unsigned int&, char)
 .text._ZN5Mixer8skiplineEPKcRj
                0x00000000080037c4       0x30 src/modules/px4iofirmware/CMakeFiles/px4io-v2.dir/__/systemlib/mixer/mixer.cpp.obj
                0x00000000080037c4                Mixer::skipline(char const*, unsigned int&)
 .text._ZN9NullMixerC2Ev
                0x00000000080037f4       0x14 src/modules/px4iofirmware/CMakeFiles/px4io-v2.dir/__/systemlib/mixer/mixer.cpp.obj
                0x00000000080037f4                NullMixer::NullMixer()
                0x00000000080037f4                NullMixer::NullMixer()
 .text._ZN9NullMixer9from_textEPKcRj
                0x0000000008003808       0x60 src/modules/px4iofirmware/CMakeFiles/px4io-v2.dir/__/systemlib/mixer/mixer.cpp.obj
                0x0000000008003808                NullMixer::from_text(char const*, unsigned int&)
 .text          0x0000000008003868        0x0 src/modules/px4iofirmware/CMakeFiles/px4io-v2.dir/__/systemlib/mixer/mixer_group.cpp.obj
 .text._ZN10MixerGroupD2Ev
                0x0000000008003868       0x28 src/modules/px4iofirmware/CMakeFiles/px4io-v2.dir/__/systemlib/mixer/mixer_group.cpp.obj
                0x0000000008003868                MixerGroup::~MixerGroup()
                0x0000000008003868                MixerGroup::~MixerGroup()
 .text._ZN10MixerGroup3mixEPfjPt
                0x0000000008003890       0x40 src/modules/px4iofirmware/CMakeFiles/px4io-v2.dir/__/systemlib/mixer/mixer_group.cpp.obj
                0x0000000008003890                MixerGroup::mix(float*, unsigned int, unsigned short*)
 .text._ZN10MixerGroup15groups_requiredERj
                0x00000000080038d0       0x1c src/modules/px4iofirmware/CMakeFiles/px4io-v2.dir/__/systemlib/mixer/mixer_group.cpp.obj
                0x00000000080038d0                MixerGroup::groups_required(unsigned int&)
 .text._ZN10MixerGroupD0Ev
                0x00000000080038ec       0x2c src/modules/px4iofirmware/CMakeFiles/px4io-v2.dir/__/systemlib/mixer/mixer_group.cpp.obj
                0x00000000080038ec                MixerGroup::~MixerGroup()
 .text._ZN10MixerGroupC2EPFijhhRfEj
                0x0000000008003918       0x18 src/modules/px4iofirmware/CMakeFiles/px4io-v2.dir/__/systemlib/mixer/mixer_group.cpp.obj
                0x0000000008003918                MixerGroup::MixerGroup(int (*)(unsigned int, unsigned char, unsigned char, float&), unsigned int)
                0x0000000008003918                MixerGroup::MixerGroup(int (*)(unsigned int, unsigned char, unsigned char, float&), unsigned int)
 .text._ZN10MixerGroup9add_mixerEP5Mixer
                0x0000000008003930       0x20 src/modules/px4iofirmware/CMakeFiles/px4io-v2.dir/__/systemlib/mixer/mixer_group.cpp.obj
                0x0000000008003930                MixerGroup::add_mixer(Mixer*)
 .text._ZN10MixerGroup5resetEv
                0x0000000008003950       0x1c src/modules/px4iofirmware/CMakeFiles/px4io-v2.dir/__/systemlib/mixer/mixer_group.cpp.obj
                0x0000000008003950                MixerGroup::reset()
 .text._ZN10MixerGroup5countEv
                0x000000000800396c       0x14 src/modules/px4iofirmware/CMakeFiles/px4io-v2.dir/__/systemlib/mixer/mixer_group.cpp.obj
                0x000000000800396c                MixerGroup::count()
 .text._ZN10MixerGroup13load_from_bufEPKcRj
                0x0000000008003980       0x90 src/modules/px4iofirmware/CMakeFiles/px4io-v2.dir/__/systemlib/mixer/mixer_group.cpp.obj
                0x0000000008003980                MixerGroup::load_from_buf(char const*, unsigned int&)
 .text          0x0000000008003a10        0x0 src/modules/px4iofirmware/CMakeFiles/px4io-v2.dir/__/systemlib/mixer/mixer_multirotor.cpp.obj
 .text._ZN15MultirotorMixerD2Ev
                0x0000000008003a10        0x4 src/modules/px4iofirmware/CMakeFiles/px4io-v2.dir/__/systemlib/mixer/mixer_multirotor.cpp.obj
                0x0000000008003a10                MultirotorMixer::~MultirotorMixer()
                0x0000000008003a10                MultirotorMixer::~MultirotorMixer()
 .text._ZN15MultirotorMixer15groups_requiredERj
                0x0000000008003a14        0xc src/modules/px4iofirmware/CMakeFiles/px4io-v2.dir/__/systemlib/mixer/mixer_multirotor.cpp.obj
                0x0000000008003a14                MultirotorMixer::groups_required(unsigned int&)
 .text._ZN15MultirotorMixerD0Ev
                0x0000000008003a20        0xc src/modules/px4iofirmware/CMakeFiles/px4io-v2.dir/__/systemlib/mixer/mixer_multirotor.cpp.obj
                0x0000000008003a20                MultirotorMixer::~MultirotorMixer()
 .text._ZN15MultirotorMixer3mixEPfjPt
                0x0000000008003a2c      0x70c src/modules/px4iofirmware/CMakeFiles/px4io-v2.dir/__/systemlib/mixer/mixer_multirotor.cpp.obj
                0x0000000008003a2c                MultirotorMixer::mix(float*, unsigned int, unsigned short*)
 .text._ZN15MultirotorMixerC2EPFijhhRfEj18MultirotorGeometryffff
                0x0000000008004138       0x58 src/modules/px4iofirmware/CMakeFiles/px4io-v2.dir/__/systemlib/mixer/mixer_multirotor.cpp.obj
                0x0000000008004138                MultirotorMixer::MultirotorMixer(int (*)(unsigned int, unsigned char, unsigned char, float&), unsigned int, MultirotorGeometry, float, float, float, float)
                0x0000000008004138                MultirotorMixer::MultirotorMixer(int (*)(unsigned int, unsigned char, unsigned char, float&), unsigned int, MultirotorGeometry, float, float, float, float)
 .text._ZN15MultirotorMixer9from_textEPFijhhRfEjPKcRj
                0x0000000008004190      0x234 src/modules/px4iofirmware/CMakeFiles/px4io-v2.dir/__/systemlib/mixer/mixer_multirotor.cpp.obj
                0x0000000008004190                MultirotorMixer::from_text(int (*)(unsigned int, unsigned char, unsigned char, float&), unsigned int, char const*, unsigned int&)
 .text          0x00000000080043c4        0x0 src/modules/px4iofirmware/CMakeFiles/px4io-v2.dir/__/systemlib/mixer/mixer_simple.cpp.obj
 .text._ZN11SimpleMixer15groups_requiredERj
                0x00000000080043c4       0x30 src/modules/px4iofirmware/CMakeFiles/px4io-v2.dir/__/systemlib/mixer/mixer_simple.cpp.obj
                0x00000000080043c4                SimpleMixer::groups_required(unsigned int&)
 .text._ZN11SimpleMixerD2Ev
                0x00000000080043f4       0x18 src/modules/px4iofirmware/CMakeFiles/px4io-v2.dir/__/systemlib/mixer/mixer_simple.cpp.obj
                0x00000000080043f4                SimpleMixer::~SimpleMixer()
                0x00000000080043f4                SimpleMixer::~SimpleMixer()
 .text._ZN11SimpleMixerD0Ev
                0x000000000800440c       0x20 src/modules/px4iofirmware/CMakeFiles/px4io-v2.dir/__/systemlib/mixer/mixer_simple.cpp.obj
                0x000000000800440c                SimpleMixer::~SimpleMixer()
 .text._ZN11SimpleMixer3mixEPfjPt
                0x000000000800442c       0x78 src/modules/px4iofirmware/CMakeFiles/px4io-v2.dir/__/systemlib/mixer/mixer_simple.cpp.obj
                0x000000000800442c                SimpleMixer::mix(float*, unsigned int, unsigned short*)
 .text._ZN11SimpleMixerC2EPFijhhRfEjP14mixer_simple_s
                0x00000000080044a4       0x18 src/modules/px4iofirmware/CMakeFiles/px4io-v2.dir/__/systemlib/mixer/mixer_simple.cpp.obj
                0x00000000080044a4                SimpleMixer::SimpleMixer(int (*)(unsigned int, unsigned char, unsigned char, float&), unsigned int, mixer_simple_s*)
                0x00000000080044a4                SimpleMixer::SimpleMixer(int (*)(unsigned int, unsigned char, unsigned char, float&), unsigned int, mixer_simple_s*)
 .text._ZN11SimpleMixer19parse_output_scalerEPKcRjR14mixer_scaler_s
                0x00000000080044bc       0xa8 src/modules/px4iofirmware/CMakeFiles/px4io-v2.dir/__/systemlib/mixer/mixer_simple.cpp.obj
                0x00000000080044bc                SimpleMixer::parse_output_scaler(char const*, unsigned int&, mixer_scaler_s&)
 .text._ZN11SimpleMixer20parse_control_scalerEPKcRjR14mixer_scaler_sRhS5_
                0x0000000008004564       0xb8 src/modules/px4iofirmware/CMakeFiles/px4io-v2.dir/__/systemlib/mixer/mixer_simple.cpp.obj
                0x0000000008004564                SimpleMixer::parse_control_scaler(char const*, unsigned int&, mixer_scaler_s&, unsigned char&, unsigned char&)
 .text._ZN11SimpleMixer9from_textEPFijhhRfEjPKcRj
                0x000000000800461c       0xb4 src/modules/px4iofirmware/CMakeFiles/px4io-v2.dir/__/systemlib/mixer/mixer_simple.cpp.obj
                0x000000000800461c                SimpleMixer::from_text(int (*)(unsigned int, unsigned char, unsigned char, float&), unsigned int, char const*, unsigned int&)
 .text._ZN11SimpleMixer9pwm_inputEPFijhhRfEjjttt
                0x00000000080046d0       0xa4 src/modules/px4iofirmware/CMakeFiles/px4io-v2.dir/__/systemlib/mixer/mixer_simple.cpp.obj
                0x00000000080046d0                SimpleMixer::pwm_input(int (*)(unsigned int, unsigned char, unsigned char, float&), unsigned int, unsigned int, unsigned short, unsigned short, unsigned short)
 .text._ZN11SimpleMixer5checkEv
                0x0000000008004774       0x78 src/modules/px4iofirmware/CMakeFiles/px4io-v2.dir/__/systemlib/mixer/mixer_simple.cpp.obj
                0x0000000008004774                SimpleMixer::check()
 .text          0x00000000080047ec        0x0 src/modules/px4iofirmware/CMakeFiles/px4io-v2.dir/__/systemlib/pwm_limit/pwm_limit.c.obj
 .text.pwm_limit_init
                0x00000000080047ec       0x10 src/modules/px4iofirmware/CMakeFiles/px4io-v2.dir/__/systemlib/pwm_limit/pwm_limit.c.obj
                0x00000000080047ec                pwm_limit_init
 *fill*         0x00000000080047fc        0x4 
 .text.pwm_limit_calc
                0x0000000008004800      0x2bc src/modules/px4iofirmware/CMakeFiles/px4io-v2.dir/__/systemlib/pwm_limit/pwm_limit.c.obj
                0x0000000008004800                pwm_limit_calc
 .text          0x0000000008004abc        0x0 src/modules/px4iofirmware/CMakeFiles/px4io-v2.dir/__/__/lib/rc/st24.c.obj
 .text.st24_common_crc8
                0x0000000008004abc       0x44 src/modules/px4iofirmware/CMakeFiles/px4io-v2.dir/__/__/lib/rc/st24.c.obj
                0x0000000008004abc                st24_common_crc8
 .text.st24_decode
                0x0000000008004b00      0x218 src/modules/px4iofirmware/CMakeFiles/px4io-v2.dir/__/__/lib/rc/st24.c.obj
                0x0000000008004b00                st24_decode
 .text          0x0000000008004d18        0x0 src/modules/px4iofirmware/CMakeFiles/px4io-v2.dir/__/__/lib/rc/sumd.c.obj
 .text.sumd_crc16
                0x0000000008004d18       0x20 src/modules/px4iofirmware/CMakeFiles/px4io-v2.dir/__/__/lib/rc/sumd.c.obj
                0x0000000008004d18                sumd_crc16
 .text.sumd_crc8
                0x0000000008004d38        0x8 src/modules/px4iofirmware/CMakeFiles/px4io-v2.dir/__/__/lib/rc/sumd.c.obj
                0x0000000008004d38                sumd_crc8
 .text.sumd_decode
                0x0000000008004d40      0x4d0 src/modules/px4iofirmware/CMakeFiles/px4io-v2.dir/__/__/lib/rc/sumd.c.obj
                0x0000000008004d40                sumd_decode
 .text          0x0000000008005210        0x0 src/modules/px4iofirmware/CMakeFiles/px4io-v2.dir/__/__/lib/rc/sbus.c.obj
 .text.sbus_dropped_frames
                0x0000000008005210        0xc src/modules/px4iofirmware/CMakeFiles/px4io-v2.dir/__/__/lib/rc/sbus.c.obj
                0x0000000008005210                sbus_dropped_frames
 .text.sbus_config
                0x000000000800521c       0x78 src/modules/px4iofirmware/CMakeFiles/px4io-v2.dir/__/__/lib/rc/sbus.c.obj
                0x000000000800521c                sbus_config
 .text.sbus_init
                0x0000000008005294       0x20 src/modules/px4iofirmware/CMakeFiles/px4io-v2.dir/__/__/lib/rc/sbus.c.obj
                0x0000000008005294                sbus_init
 .text.sbus1_output
                0x00000000080052b4      0x148 src/modules/px4iofirmware/CMakeFiles/px4io-v2.dir/__/__/lib/rc/sbus.c.obj
                0x00000000080052b4                sbus1_output
 .text.sbus2_output
                0x00000000080053fc        0x4 src/modules/px4iofirmware/CMakeFiles/px4io-v2.dir/__/__/lib/rc/sbus.c.obj
                0x00000000080053fc                sbus2_output
 .text.sbus_parse
                0x0000000008005400      0x304 src/modules/px4iofirmware/CMakeFiles/px4io-v2.dir/__/__/lib/rc/sbus.c.obj
                0x0000000008005400                sbus_parse
 .text.sbus_input
                0x0000000008005704       0x64 src/modules/px4iofirmware/CMakeFiles/px4io-v2.dir/__/__/lib/rc/sbus.c.obj
                0x0000000008005704                sbus_input
 .text          0x0000000008005768        0x0 src/modules/px4iofirmware/CMakeFiles/px4io-v2.dir/__/__/lib/rc/dsm.c.obj
 .text.dsm_config
                0x0000000008005768       0x80 src/modules/px4iofirmware/CMakeFiles/px4io-v2.dir/__/__/lib/rc/dsm.c.obj
                0x0000000008005768                dsm_config
 .text.dsm_init
                0x00000000080057e8       0x50 src/modules/px4iofirmware/CMakeFiles/px4io-v2.dir/__/__/lib/rc/dsm.c.obj
                0x00000000080057e8                dsm_init
 .text.dsm_bind
                0x0000000008005838       0xa8 src/modules/px4iofirmware/CMakeFiles/px4io-v2.dir/__/__/lib/rc/dsm.c.obj
                0x0000000008005838                dsm_bind
 .text.dsm_parse
                0x00000000080058e0      0x364 src/modules/px4iofirmware/CMakeFiles/px4io-v2.dir/__/__/lib/rc/dsm.c.obj
                0x00000000080058e0                dsm_parse
 .text.dsm_input
                0x0000000008005c44       0x64 src/modules/px4iofirmware/CMakeFiles/px4io-v2.dir/__/__/lib/rc/dsm.c.obj
                0x0000000008005c44                dsm_input
 .text          0x0000000008005ca8        0x0 src/modules/px4iofirmware/CMakeFiles/px4io-v2.dir/__/__/drivers/stm32/drv_hrt.c.obj
 .text.hrt_absolute_time
                0x0000000008005ca8       0x4c src/modules/px4iofirmware/CMakeFiles/px4io-v2.dir/__/__/drivers/stm32/drv_hrt.c.obj
                0x0000000008005ca8                hrt_absolute_time
 .text.hrt_call_reschedule
                0x0000000008005cf4       0x58 src/modules/px4iofirmware/CMakeFiles/px4io-v2.dir/__/__/drivers/stm32/drv_hrt.c.obj
 .text.hrt_call_enter
                0x0000000008005d4c       0x50 src/modules/px4iofirmware/CMakeFiles/px4io-v2.dir/__/__/drivers/stm32/drv_hrt.c.obj
 .text.hrt_call_internal
                0x0000000008005d9c       0x4c src/modules/px4iofirmware/CMakeFiles/px4io-v2.dir/__/__/drivers/stm32/drv_hrt.c.obj
 .text.hrt_tim_isr
                0x0000000008005de8      0x21c src/modules/px4iofirmware/CMakeFiles/px4io-v2.dir/__/__/drivers/stm32/drv_hrt.c.obj
 .text.ts_to_abstime
                0x0000000008006004       0x28 src/modules/px4iofirmware/CMakeFiles/px4io-v2.dir/__/__/drivers/stm32/drv_hrt.c.obj
                0x0000000008006004                ts_to_abstime
 .text.abstime_to_ts
                0x000000000800602c       0x30 src/modules/px4iofirmware/CMakeFiles/px4io-v2.dir/__/__/drivers/stm32/drv_hrt.c.obj
                0x000000000800602c                abstime_to_ts
 .text.hrt_elapsed_time
                0x000000000800605c       0x24 src/modules/px4iofirmware/CMakeFiles/px4io-v2.dir/__/__/drivers/stm32/drv_hrt.c.obj
                0x000000000800605c                hrt_elapsed_time
 .text.hrt_store_absolute_time
                0x0000000008006080       0x18 src/modules/px4iofirmware/CMakeFiles/px4io-v2.dir/__/__/drivers/stm32/drv_hrt.c.obj
                0x0000000008006080                hrt_store_absolute_time
 .text.hrt_init
                0x0000000008006098       0xcc src/modules/px4iofirmware/CMakeFiles/px4io-v2.dir/__/__/drivers/stm32/drv_hrt.c.obj
                0x0000000008006098                hrt_init
 .text.hrt_call_after
                0x0000000008006164       0x38 src/modules/px4iofirmware/CMakeFiles/px4io-v2.dir/__/__/drivers/stm32/drv_hrt.c.obj
                0x0000000008006164                hrt_call_after
 .text.hrt_call_at
                0x000000000800619c       0x1c src/modules/px4iofirmware/CMakeFiles/px4io-v2.dir/__/__/drivers/stm32/drv_hrt.c.obj
                0x000000000800619c                hrt_call_at
 .text.hrt_call_every
                0x00000000080061b8       0x38 src/modules/px4iofirmware/CMakeFiles/px4io-v2.dir/__/__/drivers/stm32/drv_hrt.c.obj
                0x00000000080061b8                hrt_call_every
 .text.hrt_called
                0x00000000080061f0       0x10 src/modules/px4iofirmware/CMakeFiles/px4io-v2.dir/__/__/drivers/stm32/drv_hrt.c.obj
                0x00000000080061f0                hrt_called
 .text.hrt_cancel
                0x0000000008006200       0x2c src/modules/px4iofirmware/CMakeFiles/px4io-v2.dir/__/__/drivers/stm32/drv_hrt.c.obj
                0x0000000008006200                hrt_cancel
 .text.hrt_call_init
                0x000000000800622c        0x8 src/modules/px4iofirmware/CMakeFiles/px4io-v2.dir/__/__/drivers/stm32/drv_hrt.c.obj
                0x000000000800622c                hrt_call_init
 .text.hrt_call_delay
                0x0000000008006234       0x18 src/modules/px4iofirmware/CMakeFiles/px4io-v2.dir/__/__/drivers/stm32/drv_hrt.c.obj
                0x0000000008006234                hrt_call_delay
 .text          0x000000000800624c        0x0 src/modules/px4iofirmware/CMakeFiles/px4io-v2.dir/__/__/drivers/stm32/drv_io_timer.c.obj
 .text.io_timer_handler
                0x000000000800624c       0xcc src/modules/px4iofirmware/CMakeFiles/px4io-v2.dir/__/__/drivers/stm32/drv_io_timer.c.obj
 .text.get_timer_channels
                0x0000000008006318       0x3c src/modules/px4iofirmware/CMakeFiles/px4io-v2.dir/__/__/drivers/stm32/drv_io_timer.c.obj
 .text.io_timer_handler0
                0x0000000008006354        0x8 src/modules/px4iofirmware/CMakeFiles/px4io-v2.dir/__/__/drivers/stm32/drv_io_timer.c.obj
                0x0000000008006354                io_timer_handler0
 .text.io_timer_handler1
                0x000000000800635c        0x8 src/modules/px4iofirmware/CMakeFiles/px4io-v2.dir/__/__/drivers/stm32/drv_io_timer.c.obj
                0x000000000800635c                io_timer_handler1
 .text.io_timer_handler2
                0x0000000008006364        0x8 src/modules/px4iofirmware/CMakeFiles/px4io-v2.dir/__/__/drivers/stm32/drv_io_timer.c.obj
                0x0000000008006364                io_timer_handler2
 .text.io_timer_handler3
                0x000000000800636c        0x8 src/modules/px4iofirmware/CMakeFiles/px4io-v2.dir/__/__/drivers/stm32/drv_io_timer.c.obj
                0x000000000800636c                io_timer_handler3
 .text.io_timer_validate_channel_index
                0x0000000008006374       0x44 src/modules/px4iofirmware/CMakeFiles/px4io-v2.dir/__/__/drivers/stm32/drv_io_timer.c.obj
                0x0000000008006374                io_timer_validate_channel_index
 .text.io_timer_is_channel_free
                0x00000000080063b8       0x20 src/modules/px4iofirmware/CMakeFiles/px4io-v2.dir/__/__/drivers/stm32/drv_io_timer.c.obj
                0x00000000080063b8                io_timer_is_channel_free
 .text.io_timer_get_mode_channels
                0x00000000080063d8       0x10 src/modules/px4iofirmware/CMakeFiles/px4io-v2.dir/__/__/drivers/stm32/drv_io_timer.c.obj
                0x00000000080063d8                io_timer_get_mode_channels
 .text.io_timer_get_channel_mode
                0x00000000080063e8       0x24 src/modules/px4iofirmware/CMakeFiles/px4io-v2.dir/__/__/drivers/stm32/drv_io_timer.c.obj
                0x00000000080063e8                io_timer_get_channel_mode
 .text.io_timer_set_rate
                0x000000000800640c       0x34 src/modules/px4iofirmware/CMakeFiles/px4io-v2.dir/__/__/drivers/stm32/drv_io_timer.c.obj
                0x000000000800640c                io_timer_set_rate
 .text.io_timer_channel_init
                0x0000000008006440      0x22c src/modules/px4iofirmware/CMakeFiles/px4io-v2.dir/__/__/drivers/stm32/drv_io_timer.c.obj
                0x0000000008006440                io_timer_channel_init
 .text.io_timer_set_enable
                0x000000000800666c      0x1c0 src/modules/px4iofirmware/CMakeFiles/px4io-v2.dir/__/__/drivers/stm32/drv_io_timer.c.obj
                0x000000000800666c                io_timer_set_enable
 .text.io_timer_free_channel
                0x000000000800682c       0x78 src/modules/px4iofirmware/CMakeFiles/px4io-v2.dir/__/__/drivers/stm32/drv_io_timer.c.obj
                0x000000000800682c                io_timer_free_channel
 .text.io_timer_set_ccr
                0x00000000080068a4       0x54 src/modules/px4iofirmware/CMakeFiles/px4io-v2.dir/__/__/drivers/stm32/drv_io_timer.c.obj
                0x00000000080068a4                io_timer_set_ccr
 .text.io_channel_get_ccr
                0x00000000080068f8       0x50 src/modules/px4iofirmware/CMakeFiles/px4io-v2.dir/__/__/drivers/stm32/drv_io_timer.c.obj
                0x00000000080068f8                io_channel_get_ccr
 .text.io_timer_get_group
                0x0000000008006948        0x4 src/modules/px4iofirmware/CMakeFiles/px4io-v2.dir/__/__/drivers/stm32/drv_io_timer.c.obj
                0x0000000008006948                io_timer_get_group
 .text          0x000000000800694c        0x0 src/modules/px4iofirmware/CMakeFiles/px4io-v2.dir/__/__/drivers/stm32/drv_pwm_servo.c.obj
 .text.up_pwm_servo_set
                0x000000000800694c        0x4 src/modules/px4iofirmware/CMakeFiles/px4io-v2.dir/__/__/drivers/stm32/drv_pwm_servo.c.obj
                0x000000000800694c                up_pwm_servo_set
 .text.up_pwm_servo_get
                0x0000000008006950        0x4 src/modules/px4iofirmware/CMakeFiles/px4io-v2.dir/__/__/drivers/stm32/drv_pwm_servo.c.obj
                0x0000000008006950                up_pwm_servo_get
 .text.up_pwm_servo_init
                0x0000000008006954       0x74 src/modules/px4iofirmware/CMakeFiles/px4io-v2.dir/__/__/drivers/stm32/drv_pwm_servo.c.obj
                0x0000000008006954                up_pwm_servo_init
 .text.up_pwm_servo_deinit
                0x00000000080069c8        0xc src/modules/px4iofirmware/CMakeFiles/px4io-v2.dir/__/__/drivers/stm32/drv_pwm_servo.c.obj
                0x00000000080069c8                up_pwm_servo_deinit
 .text.up_pwm_servo_set_rate_group_update
                0x00000000080069d4       0x30 src/modules/px4iofirmware/CMakeFiles/px4io-v2.dir/__/__/drivers/stm32/drv_pwm_servo.c.obj
                0x00000000080069d4                up_pwm_servo_set_rate_group_update
 .text.up_pwm_servo_set_rate
                0x0000000008006a04       0x18 src/modules/px4iofirmware/CMakeFiles/px4io-v2.dir/__/__/drivers/stm32/drv_pwm_servo.c.obj
                0x0000000008006a04                up_pwm_servo_set_rate
 .text.up_pwm_servo_get_rate_group
                0x0000000008006a1c        0x4 src/modules/px4iofirmware/CMakeFiles/px4io-v2.dir/__/__/drivers/stm32/drv_pwm_servo.c.obj
                0x0000000008006a1c                up_pwm_servo_get_rate_group
 .text.up_pwm_servo_arm
                0x0000000008006a20        0x8 src/modules/px4iofirmware/CMakeFiles/px4io-v2.dir/__/__/drivers/stm32/drv_pwm_servo.c.obj
                0x0000000008006a20                up_pwm_servo_arm
 .text          0x0000000008006a28        0x0 src/modules/px4iofirmware/CMakeFiles/px4io-v2.dir/__/__/drivers/boards/px4io-v2/px4io_init.c.obj
 .text.stm32_boardinitialize
                0x0000000008006a28      0x110 src/modules/px4iofirmware/CMakeFiles/px4io-v2.dir/__/__/drivers/boards/px4io-v2/px4io_init.c.obj
                0x0000000008006a28                stm32_boardinitialize
 .text          0x0000000008006b38        0x0 src/modules/px4iofirmware/CMakeFiles/px4io-v2.dir/__/__/drivers/boards/px4io-v2/px4io_timer_config.c.obj
 .text          0x0000000008006b38        0x0 src/modules/px4iofirmware/CMakeFiles/px4io-v2.dir/serial.c.obj
 .text.dma_reset
                0x0000000008006b38       0x70 src/modules/px4iofirmware/CMakeFiles/px4io-v2.dir/serial.c.obj
 .text.rx_dma_callback
                0x0000000008006ba8      0x15c src/modules/px4iofirmware/CMakeFiles/px4io-v2.dir/serial.c.obj
 .text.serial_interrupt
                0x0000000008006d04       0xe4 src/modules/px4iofirmware/CMakeFiles/px4io-v2.dir/serial.c.obj
 .text.interface_init
                0x0000000008006de8       0xdc src/modules/px4iofirmware/CMakeFiles/px4io-v2.dir/serial.c.obj
                0x0000000008006de8                interface_init
 .text          0x0000000008006ec4        0x0 src/modules/px4iofirmware/CMakeFiles/px4io-v2.dir/__/systemlib/hx_stream.c.obj
 .text.hx_stream_init
                0x0000000008006ec4       0x24 src/modules/px4iofirmware/CMakeFiles/px4io-v2.dir/__/systemlib/hx_stream.c.obj
                0x0000000008006ec4                hx_stream_init
 .text.hx_stream_free
                0x0000000008006ee8       0x20 src/modules/px4iofirmware/CMakeFiles/px4io-v2.dir/__/systemlib/hx_stream.c.obj
                0x0000000008006ee8                hx_stream_free
 .text.hx_stream_set_counters
                0x0000000008006f08        0x8 src/modules/px4iofirmware/CMakeFiles/px4io-v2.dir/__/systemlib/hx_stream.c.obj
                0x0000000008006f08                hx_stream_set_counters
 .text.hx_stream_reset
                0x0000000008006f10       0x14 src/modules/px4iofirmware/CMakeFiles/px4io-v2.dir/__/systemlib/hx_stream.c.obj
                0x0000000008006f10                hx_stream_reset
 .text.hx_stream_start
                0x0000000008006f24       0x2c src/modules/px4iofirmware/CMakeFiles/px4io-v2.dir/__/systemlib/hx_stream.c.obj
                0x0000000008006f24                hx_stream_start
 .text.hx_stream_send_next
                0x0000000008006f50       0x80 src/modules/px4iofirmware/CMakeFiles/px4io-v2.dir/__/systemlib/hx_stream.c.obj
                0x0000000008006f50                hx_stream_send_next
 .text.hx_stream_send
                0x0000000008006fd0       0x6c src/modules/px4iofirmware/CMakeFiles/px4io-v2.dir/__/systemlib/hx_stream.c.obj
                0x0000000008006fd0                hx_stream_send
 .text.hx_stream_rx
                0x000000000800703c       0x90 src/modules/px4iofirmware/CMakeFiles/px4io-v2.dir/__/systemlib/hx_stream.c.obj
                0x000000000800703c                hx_stream_rx
 .text          0x00000000080070cc        0x0 /home/tuofeichen/SLAM/MAV-Project/Firmware/build_px4fmu-v2_lpe/px4io-v2/NuttX/nuttx-export/libs/libnuttx.a(sched-irq_attach.o)
 .text.irq_attach
                0x00000000080070cc       0x38 /home/tuofeichen/SLAM/MAV-Project/Firmware/build_px4fmu-v2_lpe/px4io-v2/NuttX/nuttx-export/libs/libnuttx.a(sched-irq_attach.o)
                0x00000000080070cc                irq_attach
 .text          0x0000000008007104        0x0 /home/tuofeichen/SLAM/MAV-Project/Firmware/build_px4fmu-v2_lpe/px4io-v2/NuttX/nuttx-export/libs/libnuttx.a(sched-irq_initialize.o)
 .text.irq_initialize
                0x0000000008007104       0x1c /home/tuofeichen/SLAM/MAV-Project/Firmware/build_px4fmu-v2_lpe/px4io-v2/NuttX/nuttx-export/libs/libnuttx.a(sched-irq_initialize.o)
                0x0000000008007104                irq_initialize
 .text          0x0000000008007120        0x0 /home/tuofeichen/SLAM/MAV-Project/Firmware/build_px4fmu-v2_lpe/px4io-v2/NuttX/nuttx-export/libs/libnuttx.a(sched-irq_unexpectedisr.o)
 .text.irq_unexpected_isr
                0x0000000008007120       0x14 /home/tuofeichen/SLAM/MAV-Project/Firmware/build_px4fmu-v2_lpe/px4io-v2/NuttX/nuttx-export/libs/libnuttx.a(sched-irq_unexpectedisr.o)
                0x0000000008007120                irq_unexpected_isr
 .text          0x0000000008007134        0x0 /home/tuofeichen/SLAM/MAV-Project/Firmware/build_px4fmu-v2_lpe/px4io-v2/NuttX/nuttx-export/libs/libnuttx.a(c-lib_abort.o)
 .text.abort    0x0000000008007134        0x8 /home/tuofeichen/SLAM/MAV-Project/Firmware/build_px4fmu-v2_lpe/px4io-v2/NuttX/nuttx-export/libs/libnuttx.a(c-lib_abort.o)
                0x0000000008007134                abort
 .text          0x000000000800713c        0x0 /home/tuofeichen/SLAM/MAV-Project/Firmware/build_px4fmu-v2_lpe/px4io-v2/NuttX/nuttx-export/libs/libnuttx.a(c-lib_cfsetspeed.o)
 .text.cfsetspeed
                0x000000000800713c        0x6 /home/tuofeichen/SLAM/MAV-Project/Firmware/build_px4fmu-v2_lpe/px4io-v2/NuttX/nuttx-export/libs/libnuttx.a(c-lib_cfsetspeed.o)
                0x000000000800713c                cfsetspeed
 .text          0x0000000008007142        0x0 /home/tuofeichen/SLAM/MAV-Project/Firmware/build_px4fmu-v2_lpe/px4io-v2/NuttX/nuttx-export/libs/libnuttx.a(c-lib_crc32.o)
 *fill*         0x0000000008007142        0x2 
 .text.crc32part
                0x0000000008007144       0x24 /home/tuofeichen/SLAM/MAV-Project/Firmware/build_px4fmu-v2_lpe/px4io-v2/NuttX/nuttx-export/libs/libnuttx.a(c-lib_crc32.o)
                0x0000000008007144                crc32part
 .text.crc32    0x0000000008007168        0x6 /home/tuofeichen/SLAM/MAV-Project/Firmware/build_px4fmu-v2_lpe/px4io-v2/NuttX/nuttx-export/libs/libnuttx.a(c-lib_crc32.o)
                0x0000000008007168                crc32
 .text          0x000000000800716e        0x0 /home/tuofeichen/SLAM/MAV-Project/Firmware/build_px4fmu-v2_lpe/px4io-v2/NuttX/nuttx-export/libs/libnuttx.a(c-lib_dprintf.o)
 .text.dprintf  0x000000000800716e       0x1a /home/tuofeichen/SLAM/MAV-Project/Firmware/build_px4fmu-v2_lpe/px4io-v2/NuttX/nuttx-export/libs/libnuttx.a(c-lib_dprintf.o)
                0x000000000800716e                dprintf
 .text          0x0000000008007188        0x0 /home/tuofeichen/SLAM/MAV-Project/Firmware/build_px4fmu-v2_lpe/px4io-v2/NuttX/nuttx-export/libs/libnuttx.a(c-lib_lowsyslog.o)
 .text.lowvsyslog
                0x0000000008007188       0x1a /home/tuofeichen/SLAM/MAV-Project/Firmware/build_px4fmu-v2_lpe/px4io-v2/NuttX/nuttx-export/libs/libnuttx.a(c-lib_lowsyslog.o)
                0x0000000008007188                lowvsyslog
 .text.lowsyslog
                0x00000000080071a2       0x1a /home/tuofeichen/SLAM/MAV-Project/Firmware/build_px4fmu-v2_lpe/px4io-v2/NuttX/nuttx-export/libs/libnuttx.a(c-lib_lowsyslog.o)
                0x00000000080071a2                lowsyslog
 .text          0x00000000080071bc        0x0 /home/tuofeichen/SLAM/MAV-Project/Firmware/build_px4fmu-v2_lpe/px4io-v2/NuttX/nuttx-export/libs/libnuttx.a(c-lib_memchr.o)
 .text.memchr   0x00000000080071bc       0x1e /home/tuofeichen/SLAM/MAV-Project/Firmware/build_px4fmu-v2_lpe/px4io-v2/NuttX/nuttx-export/libs/libnuttx.a(c-lib_memchr.o)
                0x00000000080071bc                memchr
 .text          0x00000000080071da        0x0 /home/tuofeichen/SLAM/MAV-Project/Firmware/build_px4fmu-v2_lpe/px4io-v2/NuttX/nuttx-export/libs/libnuttx.a(c-lib_memcpy.o)
 .text.memcpy   0x00000000080071da       0x16 /home/tuofeichen/SLAM/MAV-Project/Firmware/build_px4fmu-v2_lpe/px4io-v2/NuttX/nuttx-export/libs/libnuttx.a(c-lib_memcpy.o)
                0x00000000080071da                memcpy
 .text          0x00000000080071f0        0x0 /home/tuofeichen/SLAM/MAV-Project/Firmware/build_px4fmu-v2_lpe/px4io-v2/NuttX/nuttx-export/libs/libnuttx.a(c-lib_memset.o)
 .text.memset   0x00000000080071f0       0x10 /home/tuofeichen/SLAM/MAV-Project/Firmware/build_px4fmu-v2_lpe/px4io-v2/NuttX/nuttx-export/libs/libnuttx.a(c-lib_memset.o)
                0x00000000080071f0                memset
 .text          0x0000000008007200        0x0 /home/tuofeichen/SLAM/MAV-Project/Firmware/build_px4fmu-v2_lpe/px4io-v2/NuttX/nuttx-export/libs/libnuttx.a(c-lib_printf.o)
 .text.printf   0x0000000008007200       0x1a /home/tuofeichen/SLAM/MAV-Project/Firmware/build_px4fmu-v2_lpe/px4io-v2/NuttX/nuttx-export/libs/libnuttx.a(c-lib_printf.o)
                0x0000000008007200                printf
 .text          0x000000000800721a        0x0 /home/tuofeichen/SLAM/MAV-Project/Firmware/build_px4fmu-v2_lpe/px4io-v2/NuttX/nuttx-export/libs/libnuttx.a(c-lib_sscanf.o)
 *fill*         0x000000000800721a        0x2 
 .text.findwidth
                0x000000000800721c       0x34 /home/tuofeichen/SLAM/MAV-Project/Firmware/build_px4fmu-v2_lpe/px4io-v2/NuttX/nuttx-export/libs/libnuttx.a(c-lib_sscanf.o)
 .text.vsscanf  0x0000000008007250      0x314 /home/tuofeichen/SLAM/MAV-Project/Firmware/build_px4fmu-v2_lpe/px4io-v2/NuttX/nuttx-export/libs/libnuttx.a(c-lib_sscanf.o)
                0x0000000008007250                vsscanf
 .text.sscanf   0x0000000008007564       0x1a /home/tuofeichen/SLAM/MAV-Project/Firmware/build_px4fmu-v2_lpe/px4io-v2/NuttX/nuttx-export/libs/libnuttx.a(c-lib_sscanf.o)
                0x0000000008007564                sscanf
 .text          0x000000000800757e        0x0 /home/tuofeichen/SLAM/MAV-Project/Firmware/build_px4fmu-v2_lpe/px4io-v2/NuttX/nuttx-export/libs/libnuttx.a(c-lib_strchr.o)
 .text.strchr   0x000000000800757e       0x16 /home/tuofeichen/SLAM/MAV-Project/Firmware/build_px4fmu-v2_lpe/px4io-v2/NuttX/nuttx-export/libs/libnuttx.a(c-lib_strchr.o)
                0x000000000800757e                strchr
 .text          0x0000000008007594        0x0 /home/tuofeichen/SLAM/MAV-Project/Firmware/build_px4fmu-v2_lpe/px4io-v2/NuttX/nuttx-export/libs/libnuttx.a(c-lib_strcmp.o)
 .text.strcmp   0x0000000008007594       0x1a /home/tuofeichen/SLAM/MAV-Project/Firmware/build_px4fmu-v2_lpe/px4io-v2/NuttX/nuttx-export/libs/libnuttx.a(c-lib_strcmp.o)
                0x0000000008007594                strcmp
 .text          0x00000000080075ae        0x0 /home/tuofeichen/SLAM/MAV-Project/Firmware/build_px4fmu-v2_lpe/px4io-v2/NuttX/nuttx-export/libs/libnuttx.a(c-lib_strcspn.o)
 .text.strcspn  0x00000000080075ae       0x1e /home/tuofeichen/SLAM/MAV-Project/Firmware/build_px4fmu-v2_lpe/px4io-v2/NuttX/nuttx-export/libs/libnuttx.a(c-lib_strcspn.o)
                0x00000000080075ae                strcspn
 .text          0x00000000080075cc        0x0 /home/tuofeichen/SLAM/MAV-Project/Firmware/build_px4fmu-v2_lpe/px4io-v2/NuttX/nuttx-export/libs/libnuttx.a(c-lib_strncpy.o)
 .text.strncpy  0x00000000080075cc       0x24 /home/tuofeichen/SLAM/MAV-Project/Firmware/build_px4fmu-v2_lpe/px4io-v2/NuttX/nuttx-export/libs/libnuttx.a(c-lib_strncpy.o)
                0x00000000080075cc                strncpy
 .text          0x00000000080075f0        0x0 /home/tuofeichen/SLAM/MAV-Project/Firmware/build_px4fmu-v2_lpe/px4io-v2/NuttX/nuttx-export/libs/libnuttx.a(c-lib_strtol.o)
 .text.strtol   0x00000000080075f0       0x3c /home/tuofeichen/SLAM/MAV-Project/Firmware/build_px4fmu-v2_lpe/px4io-v2/NuttX/nuttx-export/libs/libnuttx.a(c-lib_strtol.o)
                0x00000000080075f0                strtol
 .text          0x000000000800762c        0x0 /home/tuofeichen/SLAM/MAV-Project/Firmware/build_px4fmu-v2_lpe/px4io-v2/NuttX/nuttx-export/libs/libnuttx.a(c-lib_strtoul.o)
 .text.strtoul  0x000000000800762c       0x48 /home/tuofeichen/SLAM/MAV-Project/Firmware/build_px4fmu-v2_lpe/px4io-v2/NuttX/nuttx-export/libs/libnuttx.a(c-lib_strtoul.o)
                0x000000000800762c                strtoul
 .text          0x0000000008007674        0x0 /home/tuofeichen/SLAM/MAV-Project/Firmware/build_px4fmu-v2_lpe/px4io-v2/NuttX/nuttx-export/libs/libnuttx.a(c-lib_syslog.o)
 .text.vsyslog  0x0000000008007674       0x1e /home/tuofeichen/SLAM/MAV-Project/Firmware/build_px4fmu-v2_lpe/px4io-v2/NuttX/nuttx-export/libs/libnuttx.a(c-lib_syslog.o)
                0x0000000008007674                vsyslog
 .text.syslog   0x0000000008007692       0x1a /home/tuofeichen/SLAM/MAV-Project/Firmware/build_px4fmu-v2_lpe/px4io-v2/NuttX/nuttx-export/libs/libnuttx.a(c-lib_syslog.o)
                0x0000000008007692                syslog
 .text          0x00000000080076ac        0x0 /home/tuofeichen/SLAM/MAV-Project/Firmware/build_px4fmu-v2_lpe/px4io-v2/NuttX/nuttx-export/libs/libnuttx.a(c-lib_tcgetattr.o)
 .text.tcgetattr
                0x00000000080076ac        0xa /home/tuofeichen/SLAM/MAV-Project/Firmware/build_px4fmu-v2_lpe/px4io-v2/NuttX/nuttx-export/libs/libnuttx.a(c-lib_tcgetattr.o)
                0x00000000080076ac                tcgetattr
 .text          0x00000000080076b6        0x0 /home/tuofeichen/SLAM/MAV-Project/Firmware/build_px4fmu-v2_lpe/px4io-v2/NuttX/nuttx-export/libs/libnuttx.a(c-lib_tcsetattr.o)
 .text.tcsetattr
                0x00000000080076b6       0x10 /home/tuofeichen/SLAM/MAV-Project/Firmware/build_px4fmu-v2_lpe/px4io-v2/NuttX/nuttx-export/libs/libnuttx.a(c-lib_tcsetattr.o)
                0x00000000080076b6                tcsetattr
 .text          0x00000000080076c6        0x0 /home/tuofeichen/SLAM/MAV-Project/Firmware/build_px4fmu-v2_lpe/px4io-v2/NuttX/nuttx-export/libs/libnuttx.a(c-lib_vdprintf.o)
 .text.vdprintf
                0x00000000080076c6       0x20 /home/tuofeichen/SLAM/MAV-Project/Firmware/build_px4fmu-v2_lpe/px4io-v2/NuttX/nuttx-export/libs/libnuttx.a(c-lib_vdprintf.o)
                0x00000000080076c6                vdprintf
 .text          0x00000000080076e6        0x0 /home/tuofeichen/SLAM/MAV-Project/Firmware/build_px4fmu-v2_lpe/px4io-v2/NuttX/nuttx-export/libs/libnuttx.a(c-lib_vsnprintf.o)
 .text.vsnprintf
                0x00000000080076e6       0x24 /home/tuofeichen/SLAM/MAV-Project/Firmware/build_px4fmu-v2_lpe/px4io-v2/NuttX/nuttx-export/libs/libnuttx.a(c-lib_vsnprintf.o)
                0x00000000080076e6                vsnprintf
 .text          0x000000000800770a        0x0 /home/tuofeichen/SLAM/MAV-Project/Firmware/build_px4fmu-v2_lpe/px4io-v2/NuttX/nuttx-export/libs/libnuttx.a(c-sq_addafter.o)
 .text.sq_addafter
                0x000000000800770a       0x1c /home/tuofeichen/SLAM/MAV-Project/Firmware/build_px4fmu-v2_lpe/px4io-v2/NuttX/nuttx-export/libs/libnuttx.a(c-sq_addafter.o)
                0x000000000800770a                sq_addafter
 .text          0x0000000008007726        0x0 /home/tuofeichen/SLAM/MAV-Project/Firmware/build_px4fmu-v2_lpe/px4io-v2/NuttX/nuttx-export/libs/libnuttx.a(c-sq_addfirst.o)
 .text.sq_addfirst
                0x0000000008007726        0xe /home/tuofeichen/SLAM/MAV-Project/Firmware/build_px4fmu-v2_lpe/px4io-v2/NuttX/nuttx-export/libs/libnuttx.a(c-sq_addfirst.o)
                0x0000000008007726                sq_addfirst
 .text          0x0000000008007734        0x0 /home/tuofeichen/SLAM/MAV-Project/Firmware/build_px4fmu-v2_lpe/px4io-v2/NuttX/nuttx-export/libs/libnuttx.a(c-sq_addlast.o)
 .text.sq_addlast
                0x0000000008007734       0x14 /home/tuofeichen/SLAM/MAV-Project/Firmware/build_px4fmu-v2_lpe/px4io-v2/NuttX/nuttx-export/libs/libnuttx.a(c-sq_addlast.o)
                0x0000000008007734                sq_addlast
 .text          0x0000000008007748        0x0 /home/tuofeichen/SLAM/MAV-Project/Firmware/build_px4fmu-v2_lpe/px4io-v2/NuttX/nuttx-export/libs/libnuttx.a(c-sq_rem.o)
 .text.sq_rem   0x0000000008007748       0x2c /home/tuofeichen/SLAM/MAV-Project/Firmware/build_px4fmu-v2_lpe/px4io-v2/NuttX/nuttx-export/libs/libnuttx.a(c-sq_rem.o)
                0x0000000008007748                sq_rem
 .text          0x0000000008007774        0x0 /home/tuofeichen/SLAM/MAV-Project/Firmware/build_px4fmu-v2_lpe/px4io-v2/NuttX/nuttx-export/libs/libnuttx.a(mm-mm_calloc.o)
 .text.calloc   0x0000000008007774        0xe /home/tuofeichen/SLAM/MAV-Project/Firmware/build_px4fmu-v2_lpe/px4io-v2/NuttX/nuttx-export/libs/libnuttx.a(mm-mm_calloc.o)
                0x0000000008007774                calloc
 .text          0x0000000008007782        0x0 /home/tuofeichen/SLAM/MAV-Project/Firmware/build_px4fmu-v2_lpe/px4io-v2/NuttX/nuttx-export/libs/libnuttx.a(mm-mm_free.o)
 *fill*         0x0000000008007782        0x2 
 .text.free     0x0000000008007784       0xa8 /home/tuofeichen/SLAM/MAV-Project/Firmware/build_px4fmu-v2_lpe/px4io-v2/NuttX/nuttx-export/libs/libnuttx.a(mm-mm_free.o)
                0x0000000008007784                free
 .text          0x000000000800782c        0x0 /home/tuofeichen/SLAM/MAV-Project/Firmware/build_px4fmu-v2_lpe/px4io-v2/NuttX/nuttx-export/libs/libnuttx.a(mm-mm_mallinfo.o)
 .text.mallinfo
                0x000000000800782c       0x5c /home/tuofeichen/SLAM/MAV-Project/Firmware/build_px4fmu-v2_lpe/px4io-v2/NuttX/nuttx-export/libs/libnuttx.a(mm-mm_mallinfo.o)
                0x000000000800782c                mallinfo
 .text          0x0000000008007888        0x0 /home/tuofeichen/SLAM/MAV-Project/Firmware/build_px4fmu-v2_lpe/px4io-v2/NuttX/nuttx-export/libs/libnuttx.a(mm-mm_malloc.o)
 .text.malloc   0x0000000008007888       0x94 /home/tuofeichen/SLAM/MAV-Project/Firmware/build_px4fmu-v2_lpe/px4io-v2/NuttX/nuttx-export/libs/libnuttx.a(mm-mm_malloc.o)
                0x0000000008007888                malloc
 .text          0x000000000800791c        0x0 /home/tuofeichen/SLAM/MAV-Project/Firmware/build_px4fmu-v2_lpe/px4io-v2/NuttX/nuttx-export/libs/libnuttx.a(mm-mm_sem.o)
 .text.mm_seminitialize
                0x000000000800791c       0x18 /home/tuofeichen/SLAM/MAV-Project/Firmware/build_px4fmu-v2_lpe/px4io-v2/NuttX/nuttx-export/libs/libnuttx.a(mm-mm_sem.o)
                0x000000000800791c                mm_seminitialize
 .text.mm_trysemaphore
                0x0000000008007934       0x32 /home/tuofeichen/SLAM/MAV-Project/Firmware/build_px4fmu-v2_lpe/px4io-v2/NuttX/nuttx-export/libs/libnuttx.a(mm-mm_sem.o)
                0x0000000008007934                mm_trysemaphore
 *fill*         0x0000000008007966        0x2 
 .text.mm_takesemaphore
                0x0000000008007968       0x40 /home/tuofeichen/SLAM/MAV-Project/Firmware/build_px4fmu-v2_lpe/px4io-v2/NuttX/nuttx-export/libs/libnuttx.a(mm-mm_sem.o)
                0x0000000008007968                mm_takesemaphore
 .text.mm_givesemaphore
                0x00000000080079a8       0x2c /home/tuofeichen/SLAM/MAV-Project/Firmware/build_px4fmu-v2_lpe/px4io-v2/NuttX/nuttx-export/libs/libnuttx.a(mm-mm_sem.o)
                0x00000000080079a8                mm_givesemaphore
 .text          0x00000000080079d4        0x0 /home/tuofeichen/SLAM/MAV-Project/Firmware/build_px4fmu-v2_lpe/px4io-v2/NuttX/nuttx-export/libs/libnuttx.a(mm-mm_size2ndx.o)
 .text.mm_size2ndx
                0x00000000080079d4       0x1a /home/tuofeichen/SLAM/MAV-Project/Firmware/build_px4fmu-v2_lpe/px4io-v2/NuttX/nuttx-export/libs/libnuttx.a(mm-mm_size2ndx.o)
                0x00000000080079d4                mm_size2ndx
 .text          0x00000000080079ee        0x0 /home/tuofeichen/SLAM/MAV-Project/Firmware/build_px4fmu-v2_lpe/px4io-v2/NuttX/nuttx-export/libs/libnuttx.a(mm-mm_user.o)
 *fill*         0x00000000080079ee        0x2 
 .text.umm_initialize
                0x00000000080079f0       0x10 /home/tuofeichen/SLAM/MAV-Project/Firmware/build_px4fmu-v2_lpe/px4io-v2/NuttX/nuttx-export/libs/libnuttx.a(mm-mm_user.o)
                0x00000000080079f0                umm_initialize
 .text.umm_addregion
                0x0000000008007a00       0x10 /home/tuofeichen/SLAM/MAV-Project/Firmware/build_px4fmu-v2_lpe/px4io-v2/NuttX/nuttx-export/libs/libnuttx.a(mm-mm_user.o)
                0x0000000008007a00                umm_addregion
 .text.umm_trysemaphore
                0x0000000008007a10        0xc /home/tuofeichen/SLAM/MAV-Project/Firmware/build_px4fmu-v2_lpe/px4io-v2/NuttX/nuttx-export/libs/libnuttx.a(mm-mm_user.o)
                0x0000000008007a10                umm_trysemaphore
 .text.umm_givesemaphore
                0x0000000008007a1c        0xc /home/tuofeichen/SLAM/MAV-Project/Firmware/build_px4fmu-v2_lpe/px4io-v2/NuttX/nuttx-export/libs/libnuttx.a(mm-mm_user.o)
                0x0000000008007a1c                umm_givesemaphore
 .text          0x0000000008007a28        0x0 /home/tuofeichen/SLAM/MAV-Project/Firmware/build_px4fmu-v2_lpe/px4io-v2/NuttX/nuttx-export/libs/libnuttx.a(mm-mm_zalloc.o)
 .text.zalloc   0x0000000008007a28       0x18 /home/tuofeichen/SLAM/MAV-Project/Firmware/build_px4fmu-v2_lpe/px4io-v2/NuttX/nuttx-export/libs/libnuttx.a(mm-mm_zalloc.o)
                0x0000000008007a28                zalloc
 .text          0x0000000008007a40        0x0 /home/tuofeichen/SLAM/MAV-Project/Firmware/build_px4fmu-v2_lpe/px4io-v2/NuttX/nuttx-export/libs/libnuttx.a(arch-stm32_dma.o)
 .text.stm32_dmachandisable
                0x0000000008007a40       0x20 /home/tuofeichen/SLAM/MAV-Project/Firmware/build_px4fmu-v2_lpe/px4io-v2/NuttX/nuttx-export/libs/libnuttx.a(arch-stm32_dma.o)
 .text.stm32_dmainterrupt
                0x0000000008007a60       0x54 /home/tuofeichen/SLAM/MAV-Project/Firmware/build_px4fmu-v2_lpe/px4io-v2/NuttX/nuttx-export/libs/libnuttx.a(arch-stm32_dma.o)
 .text.up_dmainitialize
                0x0000000008007ab4       0x3c /home/tuofeichen/SLAM/MAV-Project/Firmware/build_px4fmu-v2_lpe/px4io-v2/NuttX/nuttx-export/libs/libnuttx.a(arch-stm32_dma.o)
                0x0000000008007ab4                up_dmainitialize
 .text.stm32_dmachannel
                0x0000000008007af0       0x34 /home/tuofeichen/SLAM/MAV-Project/Firmware/build_px4fmu-v2_lpe/px4io-v2/NuttX/nuttx-export/libs/libnuttx.a(arch-stm32_dma.o)
                0x0000000008007af0                stm32_dmachannel
 .text.stm32_dmafree
                0x0000000008007b24        0x6 /home/tuofeichen/SLAM/MAV-Project/Firmware/build_px4fmu-v2_lpe/px4io-v2/NuttX/nuttx-export/libs/libnuttx.a(arch-stm32_dma.o)
                0x0000000008007b24                stm32_dmafree
 .text.stm32_dmasetup
                0x0000000008007b2a       0x2a /home/tuofeichen/SLAM/MAV-Project/Firmware/build_px4fmu-v2_lpe/px4io-v2/NuttX/nuttx-export/libs/libnuttx.a(arch-stm32_dma.o)
                0x0000000008007b2a                stm32_dmasetup
 .text.stm32_dmastart
                0x0000000008007b54       0x28 /home/tuofeichen/SLAM/MAV-Project/Firmware/build_px4fmu-v2_lpe/px4io-v2/NuttX/nuttx-export/libs/libnuttx.a(arch-stm32_dma.o)
                0x0000000008007b54                stm32_dmastart
 .text.stm32_dmastop
                0x0000000008007b7c        0x4 /home/tuofeichen/SLAM/MAV-Project/Firmware/build_px4fmu-v2_lpe/px4io-v2/NuttX/nuttx-export/libs/libnuttx.a(arch-stm32_dma.o)
                0x0000000008007b7c                stm32_dmastop
 .text.stm32_dmaresidual
                0x0000000008007b80        0x6 /home/tuofeichen/SLAM/MAV-Project/Firmware/build_px4fmu-v2_lpe/px4io-v2/NuttX/nuttx-export/libs/libnuttx.a(arch-stm32_dma.o)
                0x0000000008007b80                stm32_dmaresidual
 .text          0x0000000008007b86        0x0 /home/tuofeichen/SLAM/MAV-Project/Firmware/build_px4fmu-v2_lpe/px4io-v2/NuttX/nuttx-export/libs/libnuttx.a(arch-stm32_gpio.o)
 *fill*         0x0000000008007b86        0x2 
 .text.stm32_gpioinit
                0x0000000008007b88       0x10 /home/tuofeichen/SLAM/MAV-Project/Firmware/build_px4fmu-v2_lpe/px4io-v2/NuttX/nuttx-export/libs/libnuttx.a(arch-stm32_gpio.o)
                0x0000000008007b88                stm32_gpioinit
 .text.stm32_configgpio
                0x0000000008007b98       0xc4 /home/tuofeichen/SLAM/MAV-Project/Firmware/build_px4fmu-v2_lpe/px4io-v2/NuttX/nuttx-export/libs/libnuttx.a(arch-stm32_gpio.o)
                0x0000000008007b98                stm32_configgpio
 .text.stm32_unconfiggpio
                0x0000000008007c5c        0xc /home/tuofeichen/SLAM/MAV-Project/Firmware/build_px4fmu-v2_lpe/px4io-v2/NuttX/nuttx-export/libs/libnuttx.a(arch-stm32_gpio.o)
                0x0000000008007c5c                stm32_unconfiggpio
 .text.stm32_gpiowrite
                0x0000000008007c68       0x28 /home/tuofeichen/SLAM/MAV-Project/Firmware/build_px4fmu-v2_lpe/px4io-v2/NuttX/nuttx-export/libs/libnuttx.a(arch-stm32_gpio.o)
                0x0000000008007c68                stm32_gpiowrite
 .text.stm32_gpioread
                0x0000000008007c90       0x2c /home/tuofeichen/SLAM/MAV-Project/Firmware/build_px4fmu-v2_lpe/px4io-v2/NuttX/nuttx-export/libs/libnuttx.a(arch-stm32_gpio.o)
                0x0000000008007c90                stm32_gpioread
 .text          0x0000000008007cbc        0x0 /home/tuofeichen/SLAM/MAV-Project/Firmware/build_px4fmu-v2_lpe/px4io-v2/NuttX/nuttx-export/libs/libnuttx.a(arch-stm32_irq.o)
 .text.stm32_irqinfo
                0x0000000008007cbc       0x68 /home/tuofeichen/SLAM/MAV-Project/Firmware/build_px4fmu-v2_lpe/px4io-v2/NuttX/nuttx-export/libs/libnuttx.a(arch-stm32_irq.o)
 .text.up_irqinitialize
                0x0000000008007d24       0x68 /home/tuofeichen/SLAM/MAV-Project/Firmware/build_px4fmu-v2_lpe/px4io-v2/NuttX/nuttx-export/libs/libnuttx.a(arch-stm32_irq.o)
                0x0000000008007d24                up_irqinitialize
 .text.up_disable_irq
                0x0000000008007d8c       0x1e /home/tuofeichen/SLAM/MAV-Project/Firmware/build_px4fmu-v2_lpe/px4io-v2/NuttX/nuttx-export/libs/libnuttx.a(arch-stm32_irq.o)
                0x0000000008007d8c                up_disable_irq
 .text.up_enable_irq
                0x0000000008007daa       0x1c /home/tuofeichen/SLAM/MAV-Project/Firmware/build_px4fmu-v2_lpe/px4io-v2/NuttX/nuttx-export/libs/libnuttx.a(arch-stm32_irq.o)
                0x0000000008007daa                up_enable_irq
 .text.up_maskack_irq
                0x0000000008007dc6        0x4 /home/tuofeichen/SLAM/MAV-Project/Firmware/build_px4fmu-v2_lpe/px4io-v2/NuttX/nuttx-export/libs/libnuttx.a(arch-stm32_irq.o)
                0x0000000008007dc6                up_maskack_irq
 .text          0x0000000008007dca        0x0 /home/tuofeichen/SLAM/MAV-Project/Firmware/build_px4fmu-v2_lpe/px4io-v2/NuttX/nuttx-export/libs/libnuttx.a(arch-stm32_serial.o)
 .text.up_restoreusartint
                0x0000000008007dca       0x26 /home/tuofeichen/SLAM/MAV-Project/Firmware/build_px4fmu-v2_lpe/px4io-v2/NuttX/nuttx-export/libs/libnuttx.a(arch-stm32_serial.o)
 .text.up_set_format
                0x0000000008007df0       0x72 /home/tuofeichen/SLAM/MAV-Project/Firmware/build_px4fmu-v2_lpe/px4io-v2/NuttX/nuttx-export/libs/libnuttx.a(arch-stm32_serial.o)
 .text.up_receive
                0x0000000008007e62       0x16 /home/tuofeichen/SLAM/MAV-Project/Firmware/build_px4fmu-v2_lpe/px4io-v2/NuttX/nuttx-export/libs/libnuttx.a(arch-stm32_serial.o)
 .text.up_rxint
                0x0000000008007e78       0x2c /home/tuofeichen/SLAM/MAV-Project/Firmware/build_px4fmu-v2_lpe/px4io-v2/NuttX/nuttx-export/libs/libnuttx.a(arch-stm32_serial.o)
 .text.up_rxavailable
                0x0000000008007ea4        0xc /home/tuofeichen/SLAM/MAV-Project/Firmware/build_px4fmu-v2_lpe/px4io-v2/NuttX/nuttx-export/libs/libnuttx.a(arch-stm32_serial.o)
 .text.up_dma_rxint
                0x0000000008007eb0        0x8 /home/tuofeichen/SLAM/MAV-Project/Firmware/build_px4fmu-v2_lpe/px4io-v2/NuttX/nuttx-export/libs/libnuttx.a(arch-stm32_serial.o)
 .text.up_send  0x0000000008007eb8        0x8 /home/tuofeichen/SLAM/MAV-Project/Firmware/build_px4fmu-v2_lpe/px4io-v2/NuttX/nuttx-export/libs/libnuttx.a(arch-stm32_serial.o)
 .text.up_txready
                0x0000000008007ec0        0xc /home/tuofeichen/SLAM/MAV-Project/Firmware/build_px4fmu-v2_lpe/px4io-v2/NuttX/nuttx-export/libs/libnuttx.a(arch-stm32_serial.o)
 .text.up_txint
                0x0000000008007ecc       0x38 /home/tuofeichen/SLAM/MAV-Project/Firmware/build_px4fmu-v2_lpe/px4io-v2/NuttX/nuttx-export/libs/libnuttx.a(arch-stm32_serial.o)
 .text.up_interrupt_common
                0x0000000008007f04       0x4e /home/tuofeichen/SLAM/MAV-Project/Firmware/build_px4fmu-v2_lpe/px4io-v2/NuttX/nuttx-export/libs/libnuttx.a(arch-stm32_serial.o)
 *fill*         0x0000000008007f52        0x2 
 .text.up_interrupt_usart3
                0x0000000008007f54        0xc /home/tuofeichen/SLAM/MAV-Project/Firmware/build_px4fmu-v2_lpe/px4io-v2/NuttX/nuttx-export/libs/libnuttx.a(arch-stm32_serial.o)
 .text.up_interrupt_usart2
                0x0000000008007f60        0xc /home/tuofeichen/SLAM/MAV-Project/Firmware/build_px4fmu-v2_lpe/px4io-v2/NuttX/nuttx-export/libs/libnuttx.a(arch-stm32_serial.o)
 .text.up_interrupt_usart1
                0x0000000008007f6c        0xc /home/tuofeichen/SLAM/MAV-Project/Firmware/build_px4fmu-v2_lpe/px4io-v2/NuttX/nuttx-export/libs/libnuttx.a(arch-stm32_serial.o)
 .text.up_dma_receive
                0x0000000008007f78       0x28 /home/tuofeichen/SLAM/MAV-Project/Firmware/build_px4fmu-v2_lpe/px4io-v2/NuttX/nuttx-export/libs/libnuttx.a(arch-stm32_serial.o)
 .text.up_ioctl
                0x0000000008007fa0       0xa0 /home/tuofeichen/SLAM/MAV-Project/Firmware/build_px4fmu-v2_lpe/px4io-v2/NuttX/nuttx-export/libs/libnuttx.a(arch-stm32_serial.o)
 .text.up_detach
                0x0000000008008040       0x1a /home/tuofeichen/SLAM/MAV-Project/Firmware/build_px4fmu-v2_lpe/px4io-v2/NuttX/nuttx-export/libs/libnuttx.a(arch-stm32_serial.o)
 .text.up_attach
                0x000000000800805a       0x1e /home/tuofeichen/SLAM/MAV-Project/Firmware/build_px4fmu-v2_lpe/px4io-v2/NuttX/nuttx-export/libs/libnuttx.a(arch-stm32_serial.o)
 .text.up_setup
                0x0000000008008078       0x58 /home/tuofeichen/SLAM/MAV-Project/Firmware/build_px4fmu-v2_lpe/px4io-v2/NuttX/nuttx-export/libs/libnuttx.a(arch-stm32_serial.o)
 .text.up_dma_setup
                0x00000000080080d0       0x50 /home/tuofeichen/SLAM/MAV-Project/Firmware/build_px4fmu-v2_lpe/px4io-v2/NuttX/nuttx-export/libs/libnuttx.a(arch-stm32_serial.o)
 .text.up_shutdown
                0x0000000008008120       0x1c /home/tuofeichen/SLAM/MAV-Project/Firmware/build_px4fmu-v2_lpe/px4io-v2/NuttX/nuttx-export/libs/libnuttx.a(arch-stm32_serial.o)
 .text.up_dma_shutdown
                0x000000000800813c       0x1a /home/tuofeichen/SLAM/MAV-Project/Firmware/build_px4fmu-v2_lpe/px4io-v2/NuttX/nuttx-export/libs/libnuttx.a(arch-stm32_serial.o)
 .text.up_dma_rxavailable
                0x0000000008008156       0x18 /home/tuofeichen/SLAM/MAV-Project/Firmware/build_px4fmu-v2_lpe/px4io-v2/NuttX/nuttx-export/libs/libnuttx.a(arch-stm32_serial.o)
 .text.up_dma_rxcallback
                0x000000000800816e       0x1e /home/tuofeichen/SLAM/MAV-Project/Firmware/build_px4fmu-v2_lpe/px4io-v2/NuttX/nuttx-export/libs/libnuttx.a(arch-stm32_serial.o)
 .text.up_earlyserialinit
                0x000000000800818c       0x34 /home/tuofeichen/SLAM/MAV-Project/Firmware/build_px4fmu-v2_lpe/px4io-v2/NuttX/nuttx-export/libs/libnuttx.a(arch-stm32_serial.o)
                0x000000000800818c                up_earlyserialinit
 .text.up_serialinit
                0x00000000080081c0       0x60 /home/tuofeichen/SLAM/MAV-Project/Firmware/build_px4fmu-v2_lpe/px4io-v2/NuttX/nuttx-export/libs/libnuttx.a(arch-stm32_serial.o)
                0x00000000080081c0                up_serialinit
 .text.stm32_serial_dma_poll
                0x0000000008008220       0x34 /home/tuofeichen/SLAM/MAV-Project/Firmware/build_px4fmu-v2_lpe/px4io-v2/NuttX/nuttx-export/libs/libnuttx.a(arch-stm32_serial.o)
                0x0000000008008220                stm32_serial_dma_poll
 .text.up_putc  0x0000000008008254       0x3c /home/tuofeichen/SLAM/MAV-Project/Firmware/build_px4fmu-v2_lpe/px4io-v2/NuttX/nuttx-export/libs/libnuttx.a(arch-stm32_serial.o)
                0x0000000008008254                up_putc
 .text          0x0000000008008290        0x0 /home/tuofeichen/SLAM/MAV-Project/Firmware/build_px4fmu-v2_lpe/px4io-v2/NuttX/nuttx-export/libs/libnuttx.a(arch-stm32_start.o)
 .text.__start  0x0000000008008290       0x54 /home/tuofeichen/SLAM/MAV-Project/Firmware/build_px4fmu-v2_lpe/px4io-v2/NuttX/nuttx-export/libs/libnuttx.a(arch-stm32_start.o)
                0x0000000008008290                __start
 .text          0x00000000080082e4        0x0 /home/tuofeichen/SLAM/MAV-Project/Firmware/build_px4fmu-v2_lpe/px4io-v2/NuttX/nuttx-export/libs/libnuttx.a(arch-up_assert.o)
 .text.up_assert
                0x00000000080082e4      0x144 /home/tuofeichen/SLAM/MAV-Project/Firmware/build_px4fmu-v2_lpe/px4io-v2/NuttX/nuttx-export/libs/libnuttx.a(arch-up_assert.o)
                0x00000000080082e4                up_assert
 .text          0x0000000008008428        0x0 /home/tuofeichen/SLAM/MAV-Project/Firmware/build_px4fmu-v2_lpe/px4io-v2/NuttX/nuttx-export/libs/libnuttx.a(arch-up_hardfault.o)
 .text.up_hardfault
                0x0000000008008428       0x40 /home/tuofeichen/SLAM/MAV-Project/Firmware/build_px4fmu-v2_lpe/px4io-v2/NuttX/nuttx-export/libs/libnuttx.a(arch-up_hardfault.o)
                0x0000000008008428                up_hardfault
 .text          0x0000000008008468        0x0 /home/tuofeichen/SLAM/MAV-Project/Firmware/build_px4fmu-v2_lpe/px4io-v2/NuttX/nuttx-export/libs/libnuttx.a(arch-up_modifyreg32.o)
 .text.modifyreg32
                0x0000000008008468       0x1c /home/tuofeichen/SLAM/MAV-Project/Firmware/build_px4fmu-v2_lpe/px4io-v2/NuttX/nuttx-export/libs/libnuttx.a(arch-up_modifyreg32.o)
                0x0000000008008468                modifyreg32
 .text          0x0000000008008484        0x0 /home/tuofeichen/SLAM/MAV-Project/Firmware/build_px4fmu-v2_lpe/px4io-v2/NuttX/nuttx-export/libs/libnuttx.a(arch-up_svcall.o)
 .text.up_svcall
                0x0000000008008484       0x34 /home/tuofeichen/SLAM/MAV-Project/Firmware/build_px4fmu-v2_lpe/px4io-v2/NuttX/nuttx-export/libs/libnuttx.a(arch-up_svcall.o)
                0x0000000008008484                up_svcall
 .text          0x00000000080084b8        0x0 /home/tuofeichen/SLAM/MAV-Project/Firmware/build_px4fmu-v2_lpe/px4io-v2/NuttX/nuttx-export/libs/libnuttx.a(arch-up_systemreset.o)
 .text.up_systemreset
                0x00000000080084b8       0x1c /home/tuofeichen/SLAM/MAV-Project/Firmware/build_px4fmu-v2_lpe/px4io-v2/NuttX/nuttx-export/libs/libnuttx.a(arch-up_systemreset.o)
                0x00000000080084b8                up_systemreset
 .text          0x00000000080084d4        0x0 /home/tuofeichen/SLAM/MAV-Project/Firmware/build_px4fmu-v2_lpe/px4io-v2/NuttX/nuttx-export/libs/libnuttx.a(arch-up_udelay.o)
 .text.up_udelay
                0x00000000080084d4       0x64 /home/tuofeichen/SLAM/MAV-Project/Firmware/build_px4fmu-v2_lpe/px4io-v2/NuttX/nuttx-export/libs/libnuttx.a(arch-up_udelay.o)
                0x00000000080084d4                up_udelay
 .text          0x0000000008008538        0x0 /home/tuofeichen/SLAM/MAV-Project/Firmware/build_px4fmu-v2_lpe/px4io-v2/NuttX/nuttx-export/libs/libnuttx.a(arch-up_vectors.o)
 .text          0x0000000008008538        0x0 /home/tuofeichen/SLAM/MAV-Project/Firmware/build_px4fmu-v2_lpe/px4io-v2/NuttX/nuttx-export/libs/libnuttx.a(cxx-libxx_cxa_atexit.o)
 .text.__cxa_atexit
                0x0000000008008538        0x4 /home/tuofeichen/SLAM/MAV-Project/Firmware/build_px4fmu-v2_lpe/px4io-v2/NuttX/nuttx-export/libs/libnuttx.a(cxx-libxx_cxa_atexit.o)
                0x0000000008008538                __cxa_atexit
 .text          0x000000000800853c        0x0 /home/tuofeichen/SLAM/MAV-Project/Firmware/build_px4fmu-v2_lpe/px4io-v2/NuttX/nuttx-export/libs/libnuttx.a(cxx-libxx_cxapurevirtual.o)
 .text.__cxa_pure_virtual
                0x000000000800853c       0x10 /home/tuofeichen/SLAM/MAV-Project/Firmware/build_px4fmu-v2_lpe/px4io-v2/NuttX/nuttx-export/libs/libnuttx.a(cxx-libxx_cxapurevirtual.o)
                0x000000000800853c                __cxa_pure_virtual
 .text          0x000000000800854c        0x0 /home/tuofeichen/SLAM/MAV-Project/Firmware/build_px4fmu-v2_lpe/px4io-v2/NuttX/nuttx-export/libs/libnuttx.a(cxx-libxx_delete.o)
 .text._ZdlPv   0x000000000800854c        0x4 /home/tuofeichen/SLAM/MAV-Project/Firmware/build_px4fmu-v2_lpe/px4io-v2/NuttX/nuttx-export/libs/libnuttx.a(cxx-libxx_delete.o)
                0x000000000800854c                operator delete(void*)
 .text          0x0000000008008550        0x0 /home/tuofeichen/SLAM/MAV-Project/Firmware/build_px4fmu-v2_lpe/px4io-v2/NuttX/nuttx-export/libs/libnuttx.a(cxx-libxx_eabi_atexit.o)
 .text.__aeabi_atexit
                0x0000000008008550        0xa /home/tuofeichen/SLAM/MAV-Project/Firmware/build_px4fmu-v2_lpe/px4io-v2/NuttX/nuttx-export/libs/libnuttx.a(cxx-libxx_eabi_atexit.o)
                0x0000000008008550                __aeabi_atexit
 .text          0x000000000800855a        0x0 /home/tuofeichen/SLAM/MAV-Project/Firmware/build_px4fmu-v2_lpe/px4io-v2/NuttX/nuttx-export/libs/libnuttx.a(cxx-libxx_new.o)
 .text._Znwj    0x000000000800855a        0xa /home/tuofeichen/SLAM/MAV-Project/Firmware/build_px4fmu-v2_lpe/px4io-v2/NuttX/nuttx-export/libs/libnuttx.a(cxx-libxx_new.o)
                0x000000000800855a                operator new(unsigned int)
 .text          0x0000000008008564        0x0 /home/tuofeichen/SLAM/MAV-Project/Firmware/build_px4fmu-v2_lpe/px4io-v2/NuttX/nuttx-export/libs/libnuttx.a(fs-fs_ioctl.o)
 .text.ioctl    0x0000000008008564       0x48 /home/tuofeichen/SLAM/MAV-Project/Firmware/build_px4fmu-v2_lpe/px4io-v2/NuttX/nuttx-export/libs/libnuttx.a(fs-fs_ioctl.o)
                0x0000000008008564                ioctl
 .text          0x00000000080085ac        0x0 /home/tuofeichen/SLAM/MAV-Project/Firmware/build_px4fmu-v2_lpe/px4io-v2/NuttX/nuttx-export/libs/libnuttx.a(fs-fs_open.o)
 .text.inode_checkflags
                0x00000000080085ac       0x28 /home/tuofeichen/SLAM/MAV-Project/Firmware/build_px4fmu-v2_lpe/px4io-v2/NuttX/nuttx-export/libs/libnuttx.a(fs-fs_open.o)
                0x00000000080085ac                inode_checkflags
 .text.open     0x00000000080085d4       0x90 /home/tuofeichen/SLAM/MAV-Project/Firmware/build_px4fmu-v2_lpe/px4io-v2/NuttX/nuttx-export/libs/libnuttx.a(fs-fs_open.o)
                0x00000000080085d4                open
 .text          0x0000000008008664        0x0 /home/tuofeichen/SLAM/MAV-Project/Firmware/build_px4fmu-v2_lpe/px4io-v2/NuttX/nuttx-export/libs/libnuttx.a(fs-fs_read.o)
 .text.read     0x0000000008008664       0x62 /home/tuofeichen/SLAM/MAV-Project/Firmware/build_px4fmu-v2_lpe/px4io-v2/NuttX/nuttx-export/libs/libnuttx.a(fs-fs_read.o)
                0x0000000008008664                read
 .text          0x00000000080086c6        0x0 /home/tuofeichen/SLAM/MAV-Project/Firmware/build_px4fmu-v2_lpe/px4io-v2/NuttX/nuttx-export/libs/libnuttx.a(fs-fs_write.o)
 .text.write    0x00000000080086c6       0x54 /home/tuofeichen/SLAM/MAV-Project/Firmware/build_px4fmu-v2_lpe/px4io-v2/NuttX/nuttx-export/libs/libnuttx.a(fs-fs_write.o)
                0x00000000080086c6                write
 .text          0x000000000800871a        0x0 /home/tuofeichen/SLAM/MAV-Project/Firmware/build_px4fmu-v2_lpe/px4io-v2/NuttX/nuttx-export/libs/libnuttx.a(drivers-serialirq.o)
 .text.uart_xmitchars
                0x000000000800871a       0x70 /home/tuofeichen/SLAM/MAV-Project/Firmware/build_px4fmu-v2_lpe/px4io-v2/NuttX/nuttx-export/libs/libnuttx.a(drivers-serialirq.o)
                0x000000000800871a                uart_xmitchars
 .text.uart_recvchars
                0x000000000800878a       0x5c /home/tuofeichen/SLAM/MAV-Project/Firmware/build_px4fmu-v2_lpe/px4io-v2/NuttX/nuttx-export/libs/libnuttx.a(drivers-serialirq.o)
                0x000000000800878a                uart_recvchars
 .text          0x00000000080087e6        0x0 /home/tuofeichen/SLAM/MAV-Project/Firmware/build_px4fmu-v2_lpe/px4io-v2/NuttX/nuttx-export/libs/libnuttx.a(drivers-serial.o)
 .text.uart_ioctl
                0x00000000080087e6       0xca /home/tuofeichen/SLAM/MAV-Project/Firmware/build_px4fmu-v2_lpe/px4io-v2/NuttX/nuttx-export/libs/libnuttx.a(drivers-serial.o)
 .text.uart_takesem
                0x00000000080088b0       0x30 /home/tuofeichen/SLAM/MAV-Project/Firmware/build_px4fmu-v2_lpe/px4io-v2/NuttX/nuttx-export/libs/libnuttx.a(drivers-serial.o)
 .text.uart_putxmitchar
                0x00000000080088e0       0x7e /home/tuofeichen/SLAM/MAV-Project/Firmware/build_px4fmu-v2_lpe/px4io-v2/NuttX/nuttx-export/libs/libnuttx.a(drivers-serial.o)
 .text.uart_write
                0x000000000800895e       0xe8 /home/tuofeichen/SLAM/MAV-Project/Firmware/build_px4fmu-v2_lpe/px4io-v2/NuttX/nuttx-export/libs/libnuttx.a(drivers-serial.o)
 .text.uart_read
                0x0000000008008a46       0xf4 /home/tuofeichen/SLAM/MAV-Project/Firmware/build_px4fmu-v2_lpe/px4io-v2/NuttX/nuttx-export/libs/libnuttx.a(drivers-serial.o)
 .text.uart_open
                0x0000000008008b3a       0xa2 /home/tuofeichen/SLAM/MAV-Project/Firmware/build_px4fmu-v2_lpe/px4io-v2/NuttX/nuttx-export/libs/libnuttx.a(drivers-serial.o)
 .text.uart_close
                0x0000000008008bdc       0x7e /home/tuofeichen/SLAM/MAV-Project/Firmware/build_px4fmu-v2_lpe/px4io-v2/NuttX/nuttx-export/libs/libnuttx.a(drivers-serial.o)
 *fill*         0x0000000008008c5a        0x2 
 .text.uart_register
                0x0000000008008c5c       0x54 /home/tuofeichen/SLAM/MAV-Project/Firmware/build_px4fmu-v2_lpe/px4io-v2/NuttX/nuttx-export/libs/libnuttx.a(drivers-serial.o)
                0x0000000008008c5c                uart_register
 .text.uart_datareceived
                0x0000000008008cb0       0x10 /home/tuofeichen/SLAM/MAV-Project/Firmware/build_px4fmu-v2_lpe/px4io-v2/NuttX/nuttx-export/libs/libnuttx.a(drivers-serial.o)
                0x0000000008008cb0                uart_datareceived
 .text.uart_datasent
                0x0000000008008cc0       0x10 /home/tuofeichen/SLAM/MAV-Project/Firmware/build_px4fmu-v2_lpe/px4io-v2/NuttX/nuttx-export/libs/libnuttx.a(drivers-serial.o)
                0x0000000008008cc0                uart_datasent
 .text.uart_numrxavail
                0x0000000008008cd0       0x2c /home/tuofeichen/SLAM/MAV-Project/Firmware/build_px4fmu-v2_lpe/px4io-v2/NuttX/nuttx-export/libs/libnuttx.a(drivers-serial.o)
                0x0000000008008cd0                uart_numrxavail
 .text          0x0000000008008cfc        0x0 /home/tuofeichen/SLAM/MAV-Project/Firmware/build_px4fmu-v2_lpe/px4io-v2/NuttX/nuttx-export/libs/libnuttx.a(sched-errno_getptr.o)
 .text.get_errno_ptr
                0x0000000008008cfc       0x24 /home/tuofeichen/SLAM/MAV-Project/Firmware/build_px4fmu-v2_lpe/px4io-v2/NuttX/nuttx-export/libs/libnuttx.a(sched-errno_getptr.o)
                0x0000000008008cfc                get_errno_ptr
 .text          0x0000000008008d20        0x0 /home/tuofeichen/SLAM/MAV-Project/Firmware/build_px4fmu-v2_lpe/px4io-v2/NuttX/nuttx-export/libs/libnuttx.a(sched-exit.o)
 .text.exit     0x0000000008008d20       0x1c /home/tuofeichen/SLAM/MAV-Project/Firmware/build_px4fmu-v2_lpe/px4io-v2/NuttX/nuttx-export/libs/libnuttx.a(sched-exit.o)
                0x0000000008008d20                exit
 .text          0x0000000008008d3c        0x0 /home/tuofeichen/SLAM/MAV-Project/Firmware/build_px4fmu-v2_lpe/px4io-v2/NuttX/nuttx-export/libs/libnuttx.a(sched-getpid.o)
 .text.getpid   0x0000000008008d3c       0x10 /home/tuofeichen/SLAM/MAV-Project/Firmware/build_px4fmu-v2_lpe/px4io-v2/NuttX/nuttx-export/libs/libnuttx.a(sched-getpid.o)
                0x0000000008008d3c                getpid
 .text          0x0000000008008d4c        0x0 /home/tuofeichen/SLAM/MAV-Project/Firmware/build_px4fmu-v2_lpe/px4io-v2/NuttX/nuttx-export/libs/libnuttx.a(sched-os_start.o)
 .text.os_start
                0x0000000008008d4c      0x12c /home/tuofeichen/SLAM/MAV-Project/Firmware/build_px4fmu-v2_lpe/px4io-v2/NuttX/nuttx-export/libs/libnuttx.a(sched-os_start.o)
                0x0000000008008d4c                os_start
 .text          0x0000000008008e78        0x0 /home/tuofeichen/SLAM/MAV-Project/Firmware/build_px4fmu-v2_lpe/px4io-v2/NuttX/nuttx-export/libs/libnuttx.a(sched-sched_garbage.o)
 .text.sched_garbagecollection
                0x0000000008008e78       0x2c /home/tuofeichen/SLAM/MAV-Project/Firmware/build_px4fmu-v2_lpe/px4io-v2/NuttX/nuttx-export/libs/libnuttx.a(sched-sched_garbage.o)
                0x0000000008008e78                sched_garbagecollection
 .text          0x0000000008008ea4        0x0 /home/tuofeichen/SLAM/MAV-Project/Firmware/build_px4fmu-v2_lpe/px4io-v2/NuttX/nuttx-export/libs/libnuttx.a(sched-sched_getfiles.o)
 .text.sched_getfiles
                0x0000000008008ea4       0x10 /home/tuofeichen/SLAM/MAV-Project/Firmware/build_px4fmu-v2_lpe/px4io-v2/NuttX/nuttx-export/libs/libnuttx.a(sched-sched_getfiles.o)
                0x0000000008008ea4                sched_getfiles
 .text          0x0000000008008eb4        0x0 /home/tuofeichen/SLAM/MAV-Project/Firmware/build_px4fmu-v2_lpe/px4io-v2/NuttX/nuttx-export/libs/libnuttx.a(sched-sem_post.o)
 .text.sem_post
                0x0000000008008eb4       0x58 /home/tuofeichen/SLAM/MAV-Project/Firmware/build_px4fmu-v2_lpe/px4io-v2/NuttX/nuttx-export/libs/libnuttx.a(sched-sem_post.o)
                0x0000000008008eb4                sem_post
 .text          0x0000000008008f0c        0x0 /home/tuofeichen/SLAM/MAV-Project/Firmware/build_px4fmu-v2_lpe/px4io-v2/NuttX/nuttx-export/libs/libnuttx.a(sched-sem_trywait.o)
 .text.sem_trywait
                0x0000000008008f0c       0x4c /home/tuofeichen/SLAM/MAV-Project/Firmware/build_px4fmu-v2_lpe/px4io-v2/NuttX/nuttx-export/libs/libnuttx.a(sched-sem_trywait.o)
                0x0000000008008f0c                sem_trywait
 .text          0x0000000008008f58        0x0 /home/tuofeichen/SLAM/MAV-Project/Firmware/build_px4fmu-v2_lpe/px4io-v2/NuttX/nuttx-export/libs/libnuttx.a(sched-sem_wait.o)
 .text.sem_wait
                0x0000000008008f58       0x84 /home/tuofeichen/SLAM/MAV-Project/Firmware/build_px4fmu-v2_lpe/px4io-v2/NuttX/nuttx-export/libs/libnuttx.a(sched-sem_wait.o)
                0x0000000008008f58                sem_wait
 .text          0x0000000008008fdc        0x0 /home/tuofeichen/SLAM/MAV-Project/Firmware/build_px4fmu-v2_lpe/px4io-v2/NuttX/nuttx-export/libs/libnuttx.a(sched-task_exithook.o)
 .text.task_exithook
                0x0000000008008fdc       0x1e /home/tuofeichen/SLAM/MAV-Project/Firmware/build_px4fmu-v2_lpe/px4io-v2/NuttX/nuttx-export/libs/libnuttx.a(sched-task_exithook.o)
                0x0000000008008fdc                task_exithook
 .text          0x0000000008008ffa        0x0 /home/tuofeichen/SLAM/MAV-Project/Firmware/build_px4fmu-v2_lpe/px4io-v2/NuttX/nuttx-export/libs/libnuttx.a(sched-task_recover.o)
 .text.task_recover
                0x0000000008008ffa       0x26 /home/tuofeichen/SLAM/MAV-Project/Firmware/build_px4fmu-v2_lpe/px4io-v2/NuttX/nuttx-export/libs/libnuttx.a(sched-task_recover.o)
                0x0000000008008ffa                task_recover
 .text          0x0000000008009020        0x0 /home/tuofeichen/SLAM/MAV-Project/Firmware/build_px4fmu-v2_lpe/px4io-v2/NuttX/nuttx-export/libs/libnuttx.a(sched-wd_cancel.o)
 .text.wd_cancel
                0x0000000008009020       0x64 /home/tuofeichen/SLAM/MAV-Project/Firmware/build_px4fmu-v2_lpe/px4io-v2/NuttX/nuttx-export/libs/libnuttx.a(sched-wd_cancel.o)
                0x0000000008009020                wd_cancel
 .text          0x0000000008009084        0x0 /home/tuofeichen/SLAM/MAV-Project/Firmware/build_px4fmu-v2_lpe/px4io-v2/NuttX/nuttx-export/libs/libnuttx.a(sched-wd_delete.o)
 .text.wd_delete
                0x0000000008009084       0x3c /home/tuofeichen/SLAM/MAV-Project/Firmware/build_px4fmu-v2_lpe/px4io-v2/NuttX/nuttx-export/libs/libnuttx.a(sched-wd_delete.o)
                0x0000000008009084                wd_delete
 .text          0x00000000080090c0        0x0 /home/tuofeichen/SLAM/MAV-Project/Firmware/build_px4fmu-v2_lpe/px4io-v2/NuttX/nuttx-export/libs/libnuttx.a(sched-wd_initialize.o)
 .text.wd_initialize
                0x00000000080090c0       0x44 /home/tuofeichen/SLAM/MAV-Project/Firmware/build_px4fmu-v2_lpe/px4io-v2/NuttX/nuttx-export/libs/libnuttx.a(sched-wd_initialize.o)
                0x00000000080090c0                wd_initialize
 .text          0x0000000008009104        0x0 /home/tuofeichen/SLAM/MAV-Project/Firmware/build_px4fmu-v2_lpe/px4io-v2/NuttX/nuttx-export/libs/libnuttx.a(c-dq_addfirst.o)
 .text.dq_addfirst
                0x0000000008009104       0x18 /home/tuofeichen/SLAM/MAV-Project/Firmware/build_px4fmu-v2_lpe/px4io-v2/NuttX/nuttx-export/libs/libnuttx.a(c-dq_addfirst.o)
                0x0000000008009104                dq_addfirst
 .text          0x000000000800911c        0x0 /home/tuofeichen/SLAM/MAV-Project/Firmware/build_px4fmu-v2_lpe/px4io-v2/NuttX/nuttx-export/libs/libnuttx.a(c-lib_cfgetspeed.o)
 .text.cfgetspeed
                0x000000000800911c        0x4 /home/tuofeichen/SLAM/MAV-Project/Firmware/build_px4fmu-v2_lpe/px4io-v2/NuttX/nuttx-export/libs/libnuttx.a(c-lib_cfgetspeed.o)
                0x000000000800911c                cfgetspeed
 .text          0x0000000008009120        0x0 /home/tuofeichen/SLAM/MAV-Project/Firmware/build_px4fmu-v2_lpe/px4io-v2/NuttX/nuttx-export/libs/libnuttx.a(c-lib_checkbase.o)
 .text.lib_checkbase
                0x0000000008009120       0x52 /home/tuofeichen/SLAM/MAV-Project/Firmware/build_px4fmu-v2_lpe/px4io-v2/NuttX/nuttx-export/libs/libnuttx.a(c-lib_checkbase.o)
                0x0000000008009120                lib_checkbase
 .text          0x0000000008009172        0x0 /home/tuofeichen/SLAM/MAV-Project/Firmware/build_px4fmu-v2_lpe/px4io-v2/NuttX/nuttx-export/libs/libnuttx.a(c-lib_isbasedigit.o)
 .text.lib_isbasedigit
                0x0000000008009172       0x4e /home/tuofeichen/SLAM/MAV-Project/Firmware/build_px4fmu-v2_lpe/px4io-v2/NuttX/nuttx-export/libs/libnuttx.a(c-lib_isbasedigit.o)
                0x0000000008009172                lib_isbasedigit
 .text          0x00000000080091c0        0x0 /home/tuofeichen/SLAM/MAV-Project/Firmware/build_px4fmu-v2_lpe/px4io-v2/NuttX/nuttx-export/libs/libnuttx.a(c-lib_libvsprintf.o)
 .text.utodec   0x00000000080091c0       0x24 /home/tuofeichen/SLAM/MAV-Project/Firmware/build_px4fmu-v2_lpe/px4io-v2/NuttX/nuttx-export/libs/libnuttx.a(c-lib_libvsprintf.o)
 .text.utooct   0x00000000080091e4       0x1e /home/tuofeichen/SLAM/MAV-Project/Firmware/build_px4fmu-v2_lpe/px4io-v2/NuttX/nuttx-export/libs/libnuttx.a(c-lib_libvsprintf.o)
 .text.utobin   0x0000000008009202       0x1e /home/tuofeichen/SLAM/MAV-Project/Firmware/build_px4fmu-v2_lpe/px4io-v2/NuttX/nuttx-export/libs/libnuttx.a(c-lib_libvsprintf.o)
 .text.llutodec
                0x0000000008009220       0x42 /home/tuofeichen/SLAM/MAV-Project/Firmware/build_px4fmu-v2_lpe/px4io-v2/NuttX/nuttx-export/libs/libnuttx.a(c-lib_libvsprintf.o)
 .text.llutooct
                0x0000000008009262       0x2e /home/tuofeichen/SLAM/MAV-Project/Firmware/build_px4fmu-v2_lpe/px4io-v2/NuttX/nuttx-export/libs/libnuttx.a(c-lib_libvsprintf.o)
 .text.llutobin
                0x0000000008009290       0x26 /home/tuofeichen/SLAM/MAV-Project/Firmware/build_px4fmu-v2_lpe/px4io-v2/NuttX/nuttx-export/libs/libnuttx.a(c-lib_libvsprintf.o)
 .text.prejustify
                0x00000000080092b6       0x8a /home/tuofeichen/SLAM/MAV-Project/Firmware/build_px4fmu-v2_lpe/px4io-v2/NuttX/nuttx-export/libs/libnuttx.a(c-lib_libvsprintf.o)
 .text.utohex   0x0000000008009340       0x4c /home/tuofeichen/SLAM/MAV-Project/Firmware/build_px4fmu-v2_lpe/px4io-v2/NuttX/nuttx-export/libs/libnuttx.a(c-lib_libvsprintf.o)
 .text.utoascii
                0x000000000800938c       0x88 /home/tuofeichen/SLAM/MAV-Project/Firmware/build_px4fmu-v2_lpe/px4io-v2/NuttX/nuttx-export/libs/libnuttx.a(c-lib_libvsprintf.o)
 .text.llutohex
                0x0000000008009414       0x5c /home/tuofeichen/SLAM/MAV-Project/Firmware/build_px4fmu-v2_lpe/px4io-v2/NuttX/nuttx-export/libs/libnuttx.a(c-lib_libvsprintf.o)
 .text.llutoascii
                0x0000000008009470       0x92 /home/tuofeichen/SLAM/MAV-Project/Firmware/build_px4fmu-v2_lpe/px4io-v2/NuttX/nuttx-export/libs/libnuttx.a(c-lib_libvsprintf.o)
 .text.postjustify
                0x0000000008009502       0x26 /home/tuofeichen/SLAM/MAV-Project/Firmware/build_px4fmu-v2_lpe/px4io-v2/NuttX/nuttx-export/libs/libnuttx.a(c-lib_libvsprintf.o)
 .text.lib_vsprintf
                0x0000000008009528      0x2ac /home/tuofeichen/SLAM/MAV-Project/Firmware/build_px4fmu-v2_lpe/px4io-v2/NuttX/nuttx-export/libs/libnuttx.a(c-lib_libvsprintf.o)
                0x0000000008009528                lib_vsprintf
 .text          0x00000000080097d4        0x0 /home/tuofeichen/SLAM/MAV-Project/Firmware/build_px4fmu-v2_lpe/px4io-v2/NuttX/nuttx-export/libs/libnuttx.a(c-lib_lowoutstream.o)
 .text.lowoutstream_putc
                0x00000000080097d4       0x16 /home/tuofeichen/SLAM/MAV-Project/Firmware/build_px4fmu-v2_lpe/px4io-v2/NuttX/nuttx-export/libs/libnuttx.a(c-lib_lowoutstream.o)
 *fill*         0x00000000080097ea        0x2 
 .text.lib_lowoutstream
                0x00000000080097ec       0x10 /home/tuofeichen/SLAM/MAV-Project/Firmware/build_px4fmu-v2_lpe/px4io-v2/NuttX/nuttx-export/libs/libnuttx.a(c-lib_lowoutstream.o)
                0x00000000080097ec                lib_lowoutstream
 .text          0x00000000080097fc        0x0 /home/tuofeichen/SLAM/MAV-Project/Firmware/build_px4fmu-v2_lpe/px4io-v2/NuttX/nuttx-export/libs/libnuttx.a(c-lib_memoutstream.o)
 .text.memoutstream_putc
                0x00000000080097fc       0x1a /home/tuofeichen/SLAM/MAV-Project/Firmware/build_px4fmu-v2_lpe/px4io-v2/NuttX/nuttx-export/libs/libnuttx.a(c-lib_memoutstream.o)
 *fill*         0x0000000008009816        0x2 
 .text.lib_memoutstream
                0x0000000008009818       0x18 /home/tuofeichen/SLAM/MAV-Project/Firmware/build_px4fmu-v2_lpe/px4io-v2/NuttX/nuttx-export/libs/libnuttx.a(c-lib_memoutstream.o)
                0x0000000008009818                lib_memoutstream
 .text          0x0000000008009830        0x0 /home/tuofeichen/SLAM/MAV-Project/Firmware/build_px4fmu-v2_lpe/px4io-v2/NuttX/nuttx-export/libs/libnuttx.a(c-lib_nulloutstream.o)
 .text.nulloutstream_putc
                0x0000000008009830        0x8 /home/tuofeichen/SLAM/MAV-Project/Firmware/build_px4fmu-v2_lpe/px4io-v2/NuttX/nuttx-export/libs/libnuttx.a(c-lib_nulloutstream.o)
 .text.lib_nulloutstream
                0x0000000008009838       0x10 /home/tuofeichen/SLAM/MAV-Project/Firmware/build_px4fmu-v2_lpe/px4io-v2/NuttX/nuttx-export/libs/libnuttx.a(c-lib_nulloutstream.o)
                0x0000000008009838                lib_nulloutstream
 .text          0x0000000008009848        0x0 /home/tuofeichen/SLAM/MAV-Project/Firmware/build_px4fmu-v2_lpe/px4io-v2/NuttX/nuttx-export/libs/libnuttx.a(c-lib_rawoutstream.o)
 .text.rawoutstream_putc
                0x0000000008009848       0x2e /home/tuofeichen/SLAM/MAV-Project/Firmware/build_px4fmu-v2_lpe/px4io-v2/NuttX/nuttx-export/libs/libnuttx.a(c-lib_rawoutstream.o)
 *fill*         0x0000000008009876        0x2 
 .text.lib_rawoutstream
                0x0000000008009878       0x10 /home/tuofeichen/SLAM/MAV-Project/Firmware/build_px4fmu-v2_lpe/px4io-v2/NuttX/nuttx-export/libs/libnuttx.a(c-lib_rawoutstream.o)
                0x0000000008009878                lib_rawoutstream
 .text          0x0000000008009888        0x0 /home/tuofeichen/SLAM/MAV-Project/Firmware/build_px4fmu-v2_lpe/px4io-v2/NuttX/nuttx-export/libs/libnuttx.a(c-lib_skipspace.o)
 .text.lib_skipspace
                0x0000000008009888       0x16 /home/tuofeichen/SLAM/MAV-Project/Firmware/build_px4fmu-v2_lpe/px4io-v2/NuttX/nuttx-export/libs/libnuttx.a(c-lib_skipspace.o)
                0x0000000008009888                lib_skipspace
 .text          0x000000000800989e        0x0 /home/tuofeichen/SLAM/MAV-Project/Firmware/build_px4fmu-v2_lpe/px4io-v2/NuttX/nuttx-export/libs/libnuttx.a(c-lib_strcpy.o)
 .text.strcpy   0x000000000800989e       0x10 /home/tuofeichen/SLAM/MAV-Project/Firmware/build_px4fmu-v2_lpe/px4io-v2/NuttX/nuttx-export/libs/libnuttx.a(c-lib_strcpy.o)
                0x000000000800989e                strcpy
 .text          0x00000000080098ae        0x0 /home/tuofeichen/SLAM/MAV-Project/Firmware/build_px4fmu-v2_lpe/px4io-v2/NuttX/nuttx-export/libs/libnuttx.a(c-lib_strlen.o)
 .text.strlen   0x00000000080098ae       0x10 /home/tuofeichen/SLAM/MAV-Project/Firmware/build_px4fmu-v2_lpe/px4io-v2/NuttX/nuttx-export/libs/libnuttx.a(c-lib_strlen.o)
                0x00000000080098ae                strlen
 .text          0x00000000080098be        0x0 /home/tuofeichen/SLAM/MAV-Project/Firmware/build_px4fmu-v2_lpe/px4io-v2/NuttX/nuttx-export/libs/libnuttx.a(c-sem_init.o)
 .text.sem_init
                0x00000000080098be       0x1e /home/tuofeichen/SLAM/MAV-Project/Firmware/build_px4fmu-v2_lpe/px4io-v2/NuttX/nuttx-export/libs/libnuttx.a(c-sem_init.o)
                0x00000000080098be                sem_init
 .text          0x00000000080098dc        0x0 /home/tuofeichen/SLAM/MAV-Project/Firmware/build_px4fmu-v2_lpe/px4io-v2/NuttX/nuttx-export/libs/libnuttx.a(c-sq_remafter.o)
 .text.sq_remafter
                0x00000000080098dc       0x22 /home/tuofeichen/SLAM/MAV-Project/Firmware/build_px4fmu-v2_lpe/px4io-v2/NuttX/nuttx-export/libs/libnuttx.a(c-sq_remafter.o)
                0x00000000080098dc                sq_remafter
 .text          0x00000000080098fe        0x0 /home/tuofeichen/SLAM/MAV-Project/Firmware/build_px4fmu-v2_lpe/px4io-v2/NuttX/nuttx-export/libs/libnuttx.a(c-sq_remfirst.o)
 .text.sq_remfirst
                0x00000000080098fe       0x14 /home/tuofeichen/SLAM/MAV-Project/Firmware/build_px4fmu-v2_lpe/px4io-v2/NuttX/nuttx-export/libs/libnuttx.a(c-sq_remfirst.o)
                0x00000000080098fe                sq_remfirst
 .text          0x0000000008009912        0x0 /home/tuofeichen/SLAM/MAV-Project/Firmware/build_px4fmu-v2_lpe/px4io-v2/NuttX/nuttx-export/libs/libnuttx.a(mm-mm_addfreechunk.o)
 .text.mm_addfreechunk
                0x0000000008009912       0x36 /home/tuofeichen/SLAM/MAV-Project/Firmware/build_px4fmu-v2_lpe/px4io-v2/NuttX/nuttx-export/libs/libnuttx.a(mm-mm_addfreechunk.o)
                0x0000000008009912                mm_addfreechunk
 .text          0x0000000008009948        0x0 /home/tuofeichen/SLAM/MAV-Project/Firmware/build_px4fmu-v2_lpe/px4io-v2/NuttX/nuttx-export/libs/libnuttx.a(mm-mm_initialize.o)
 .text.mm_addregion
                0x0000000008009948       0x50 /home/tuofeichen/SLAM/MAV-Project/Firmware/build_px4fmu-v2_lpe/px4io-v2/NuttX/nuttx-export/libs/libnuttx.a(mm-mm_initialize.o)
                0x0000000008009948                mm_addregion
 .text.mm_initialize
                0x0000000008009998       0x40 /home/tuofeichen/SLAM/MAV-Project/Firmware/build_px4fmu-v2_lpe/px4io-v2/NuttX/nuttx-export/libs/libnuttx.a(mm-mm_initialize.o)
                0x0000000008009998                mm_initialize
 .text          0x00000000080099d8        0x0 /home/tuofeichen/SLAM/MAV-Project/Firmware/build_px4fmu-v2_lpe/px4io-v2/NuttX/nuttx-export/libs/libnuttx.a(arch-stm32_allocateheap.o)
 .text.up_allocate_heap
                0x00000000080099d8       0x14 /home/tuofeichen/SLAM/MAV-Project/Firmware/build_px4fmu-v2_lpe/px4io-v2/NuttX/nuttx-export/libs/libnuttx.a(arch-stm32_allocateheap.o)
                0x00000000080099d8                up_allocate_heap
 .text          0x00000000080099ec        0x0 /home/tuofeichen/SLAM/MAV-Project/Firmware/build_px4fmu-v2_lpe/px4io-v2/NuttX/nuttx-export/libs/libnuttx.a(arch-stm32_idle.o)
 .text.up_idle  0x00000000080099ec        0x4 /home/tuofeichen/SLAM/MAV-Project/Firmware/build_px4fmu-v2_lpe/px4io-v2/NuttX/nuttx-export/libs/libnuttx.a(arch-stm32_idle.o)
                0x00000000080099ec                up_idle
 .text          0x00000000080099f0        0x0 /home/tuofeichen/SLAM/MAV-Project/Firmware/build_px4fmu-v2_lpe/px4io-v2/NuttX/nuttx-export/libs/libnuttx.a(arch-stm32_lowputc.o)
 .text.up_lowputc
                0x00000000080099f0       0x18 /home/tuofeichen/SLAM/MAV-Project/Firmware/build_px4fmu-v2_lpe/px4io-v2/NuttX/nuttx-export/libs/libnuttx.a(arch-stm32_lowputc.o)
                0x00000000080099f0                up_lowputc
 .text.stm32_lowsetup
                0x0000000008009a08       0x6c /home/tuofeichen/SLAM/MAV-Project/Firmware/build_px4fmu-v2_lpe/px4io-v2/NuttX/nuttx-export/libs/libnuttx.a(arch-stm32_lowputc.o)
                0x0000000008009a08                stm32_lowsetup
 .text          0x0000000008009a74        0x0 /home/tuofeichen/SLAM/MAV-Project/Firmware/build_px4fmu-v2_lpe/px4io-v2/NuttX/nuttx-export/libs/libnuttx.a(arch-stm32_rcc.o)
 .text.stm32_clockconfig
                0x0000000008009a74       0xe8 /home/tuofeichen/SLAM/MAV-Project/Firmware/build_px4fmu-v2_lpe/px4io-v2/NuttX/nuttx-export/libs/libnuttx.a(arch-stm32_rcc.o)
                0x0000000008009a74                stm32_clockconfig
 .text          0x0000000008009b5c        0x0 /home/tuofeichen/SLAM/MAV-Project/Firmware/build_px4fmu-v2_lpe/px4io-v2/NuttX/nuttx-export/libs/libnuttx.a(arch-stm32_vectors.o)
 .text          0x0000000008009b5c        0x0 /home/tuofeichen/SLAM/MAV-Project/Firmware/build_px4fmu-v2_lpe/px4io-v2/NuttX/nuttx-export/libs/libnuttx.a(arch-up_blocktask.o)
 .text.up_block_task
                0x0000000008009b5c       0x74 /home/tuofeichen/SLAM/MAV-Project/Firmware/build_px4fmu-v2_lpe/px4io-v2/NuttX/nuttx-export/libs/libnuttx.a(arch-up_blocktask.o)
                0x0000000008009b5c                up_block_task
 .text          0x0000000008009bd0        0x0 /home/tuofeichen/SLAM/MAV-Project/Firmware/build_px4fmu-v2_lpe/px4io-v2/NuttX/nuttx-export/libs/libnuttx.a(arch-up_copystate.o)
 .text.up_copystate
                0x0000000008009bd0       0x16 /home/tuofeichen/SLAM/MAV-Project/Firmware/build_px4fmu-v2_lpe/px4io-v2/NuttX/nuttx-export/libs/libnuttx.a(arch-up_copystate.o)
                0x0000000008009bd0                up_copystate
 .text          0x0000000008009be6       0x5e /home/tuofeichen/SLAM/MAV-Project/Firmware/build_px4fmu-v2_lpe/px4io-v2/NuttX/nuttx-export/libs/libnuttx.a(arch-up_exception.o)
                0x0000000008009be6                exception_common
 .text          0x0000000008009c44        0x0 /home/tuofeichen/SLAM/MAV-Project/Firmware/build_px4fmu-v2_lpe/px4io-v2/NuttX/nuttx-export/libs/libnuttx.a(arch-up_exit.o)
 .text._exit    0x0000000008009c44       0x1c /home/tuofeichen/SLAM/MAV-Project/Firmware/build_px4fmu-v2_lpe/px4io-v2/NuttX/nuttx-export/libs/libnuttx.a(arch-up_exit.o)
                0x0000000008009c44                _exit
 .text          0x0000000008009c60        0xa /home/tuofeichen/SLAM/MAV-Project/Firmware/build_px4fmu-v2_lpe/px4io-v2/NuttX/nuttx-export/libs/libnuttx.a(arch-up_fullcontextrestore.o)
                0x0000000008009c60                up_fullcontextrestore
 .text          0x0000000008009c6a        0x0 /home/tuofeichen/SLAM/MAV-Project/Firmware/build_px4fmu-v2_lpe/px4io-v2/NuttX/nuttx-export/libs/libnuttx.a(arch-up_initialize.o)
 *fill*         0x0000000008009c6a        0x2 
 .text.up_initialize
                0x0000000008009c6c       0x28 /home/tuofeichen/SLAM/MAV-Project/Firmware/build_px4fmu-v2_lpe/px4io-v2/NuttX/nuttx-export/libs/libnuttx.a(arch-up_initialize.o)
                0x0000000008009c6c                up_initialize
 .text          0x0000000008009c94        0x0 /home/tuofeichen/SLAM/MAV-Project/Firmware/build_px4fmu-v2_lpe/px4io-v2/NuttX/nuttx-export/libs/libnuttx.a(arch-up_initialstate.o)
 .text.up_initial_state
                0x0000000008009c94       0x34 /home/tuofeichen/SLAM/MAV-Project/Firmware/build_px4fmu-v2_lpe/px4io-v2/NuttX/nuttx-export/libs/libnuttx.a(arch-up_initialstate.o)
                0x0000000008009c94                up_initial_state
 .text          0x0000000008009cc8        0x0 /home/tuofeichen/SLAM/MAV-Project/Firmware/build_px4fmu-v2_lpe/px4io-v2/NuttX/nuttx-export/libs/libnuttx.a(arch-up_interruptcontext.o)
 .text.up_interrupt_context
                0x0000000008009cc8       0x10 /home/tuofeichen/SLAM/MAV-Project/Firmware/build_px4fmu-v2_lpe/px4io-v2/NuttX/nuttx-export/libs/libnuttx.a(arch-up_interruptcontext.o)
                0x0000000008009cc8                up_interrupt_context
 .text          0x0000000008009cd8        0x0 /home/tuofeichen/SLAM/MAV-Project/Firmware/build_px4fmu-v2_lpe/px4io-v2/NuttX/nuttx-export/libs/libnuttx.a(arch-up_mdelay.o)
 .text.up_mdelay
                0x0000000008009cd8       0x28 /home/tuofeichen/SLAM/MAV-Project/Firmware/build_px4fmu-v2_lpe/px4io-v2/NuttX/nuttx-export/libs/libnuttx.a(arch-up_mdelay.o)
                0x0000000008009cd8                up_mdelay
 .text          0x0000000008009d00        0xc /home/tuofeichen/SLAM/MAV-Project/Firmware/build_px4fmu-v2_lpe/px4io-v2/NuttX/nuttx-export/libs/libnuttx.a(arch-up_switchcontext.o)
                0x0000000008009d00                up_switchcontext
 .text          0x0000000008009d0c        0x0 /home/tuofeichen/SLAM/MAV-Project/Firmware/build_px4fmu-v2_lpe/px4io-v2/NuttX/nuttx-export/libs/libnuttx.a(arch-up_unblocktask.o)
 .text.up_unblock_task
                0x0000000008009d0c       0x54 /home/tuofeichen/SLAM/MAV-Project/Firmware/build_px4fmu-v2_lpe/px4io-v2/NuttX/nuttx-export/libs/libnuttx.a(arch-up_unblocktask.o)
                0x0000000008009d0c                up_unblock_task
 .text          0x0000000008009d60        0x0 /home/tuofeichen/SLAM/MAV-Project/Firmware/build_px4fmu-v2_lpe/px4io-v2/NuttX/nuttx-export/libs/libnuttx.a(fs-fs_files.o)
 .text._files_close
                0x0000000008009d60       0x2a /home/tuofeichen/SLAM/MAV-Project/Firmware/build_px4fmu-v2_lpe/px4io-v2/NuttX/nuttx-export/libs/libnuttx.a(fs-fs_files.o)
 *fill*         0x0000000008009d8a        0x2 
 .text._files_semtake
                0x0000000008009d8c       0x24 /home/tuofeichen/SLAM/MAV-Project/Firmware/build_px4fmu-v2_lpe/px4io-v2/NuttX/nuttx-export/libs/libnuttx.a(fs-fs_files.o)
 .text.files_initialize
                0x0000000008009db0        0x2 /home/tuofeichen/SLAM/MAV-Project/Firmware/build_px4fmu-v2_lpe/px4io-v2/NuttX/nuttx-export/libs/libnuttx.a(fs-fs_files.o)
                0x0000000008009db0                files_initialize
 .text.files_initlist
                0x0000000008009db2        0x8 /home/tuofeichen/SLAM/MAV-Project/Firmware/build_px4fmu-v2_lpe/px4io-v2/NuttX/nuttx-export/libs/libnuttx.a(fs-fs_files.o)
                0x0000000008009db2                files_initlist
 .text.files_releaselist
                0x0000000008009dba       0x20 /home/tuofeichen/SLAM/MAV-Project/Firmware/build_px4fmu-v2_lpe/px4io-v2/NuttX/nuttx-export/libs/libnuttx.a(fs-fs_files.o)
                0x0000000008009dba                files_releaselist
 .text.files_dup
                0x0000000008009dda       0x80 /home/tuofeichen/SLAM/MAV-Project/Firmware/build_px4fmu-v2_lpe/px4io-v2/NuttX/nuttx-export/libs/libnuttx.a(fs-fs_files.o)
                0x0000000008009dda                files_dup
 .text.files_allocate
                0x0000000008009e5a       0x56 /home/tuofeichen/SLAM/MAV-Project/Firmware/build_px4fmu-v2_lpe/px4io-v2/NuttX/nuttx-export/libs/libnuttx.a(fs-fs_files.o)
                0x0000000008009e5a                files_allocate
 .text.files_close
                0x0000000008009eb0       0x3a /home/tuofeichen/SLAM/MAV-Project/Firmware/build_px4fmu-v2_lpe/px4io-v2/NuttX/nuttx-export/libs/libnuttx.a(fs-fs_files.o)
                0x0000000008009eb0                files_close
 .text.files_release
                0x0000000008009eea       0x2e /home/tuofeichen/SLAM/MAV-Project/Firmware/build_px4fmu-v2_lpe/px4io-v2/NuttX/nuttx-export/libs/libnuttx.a(fs-fs_files.o)
                0x0000000008009eea                files_release
 .text          0x0000000008009f18        0x0 /home/tuofeichen/SLAM/MAV-Project/Firmware/build_px4fmu-v2_lpe/px4io-v2/NuttX/nuttx-export/libs/libnuttx.a(fs-fs_inodeaddref.o)
 .text.inode_addref
                0x0000000008009f18       0x1a /home/tuofeichen/SLAM/MAV-Project/Firmware/build_px4fmu-v2_lpe/px4io-v2/NuttX/nuttx-export/libs/libnuttx.a(fs-fs_inodeaddref.o)
                0x0000000008009f18                inode_addref
 .text          0x0000000008009f32        0x0 /home/tuofeichen/SLAM/MAV-Project/Firmware/build_px4fmu-v2_lpe/px4io-v2/NuttX/nuttx-export/libs/libnuttx.a(fs-fs_inodefind.o)
 .text.inode_find
                0x0000000008009f32       0x34 /home/tuofeichen/SLAM/MAV-Project/Firmware/build_px4fmu-v2_lpe/px4io-v2/NuttX/nuttx-export/libs/libnuttx.a(fs-fs_inodefind.o)
                0x0000000008009f32                inode_find
 .text          0x0000000008009f66        0x0 /home/tuofeichen/SLAM/MAV-Project/Firmware/build_px4fmu-v2_lpe/px4io-v2/NuttX/nuttx-export/libs/libnuttx.a(fs-fs_inode.o)
 *fill*         0x0000000008009f66        0x2 
 .text.fs_initialize
                0x0000000008009f68       0x20 /home/tuofeichen/SLAM/MAV-Project/Firmware/build_px4fmu-v2_lpe/px4io-v2/NuttX/nuttx-export/libs/libnuttx.a(fs-fs_inode.o)
                0x0000000008009f68                fs_initialize
 .text.inode_semtake
                0x0000000008009f88       0x28 /home/tuofeichen/SLAM/MAV-Project/Firmware/build_px4fmu-v2_lpe/px4io-v2/NuttX/nuttx-export/libs/libnuttx.a(fs-fs_inode.o)
                0x0000000008009f88                inode_semtake
 .text.inode_semgive
                0x0000000008009fb0        0xc /home/tuofeichen/SLAM/MAV-Project/Firmware/build_px4fmu-v2_lpe/px4io-v2/NuttX/nuttx-export/libs/libnuttx.a(fs-fs_inode.o)
                0x0000000008009fb0                inode_semgive
 .text.inode_free
                0x0000000008009fbc       0x1e /home/tuofeichen/SLAM/MAV-Project/Firmware/build_px4fmu-v2_lpe/px4io-v2/NuttX/nuttx-export/libs/libnuttx.a(fs-fs_inode.o)
                0x0000000008009fbc                inode_free
 .text.inode_nextname
                0x0000000008009fda       0x12 /home/tuofeichen/SLAM/MAV-Project/Firmware/build_px4fmu-v2_lpe/px4io-v2/NuttX/nuttx-export/libs/libnuttx.a(fs-fs_inode.o)
                0x0000000008009fda                inode_nextname
 .text.inode_search
                0x0000000008009fec       0xa4 /home/tuofeichen/SLAM/MAV-Project/Firmware/build_px4fmu-v2_lpe/px4io-v2/NuttX/nuttx-export/libs/libnuttx.a(fs-fs_inode.o)
                0x0000000008009fec                inode_search
 .text          0x000000000800a090        0x0 /home/tuofeichen/SLAM/MAV-Project/Firmware/build_px4fmu-v2_lpe/px4io-v2/NuttX/nuttx-export/libs/libnuttx.a(fs-fs_inoderelease.o)
 .text.inode_release
                0x000000000800a090       0x3e /home/tuofeichen/SLAM/MAV-Project/Firmware/build_px4fmu-v2_lpe/px4io-v2/NuttX/nuttx-export/libs/libnuttx.a(fs-fs_inoderelease.o)
                0x000000000800a090                inode_release
 .text          0x000000000800a0ce        0x0 /home/tuofeichen/SLAM/MAV-Project/Firmware/build_px4fmu-v2_lpe/px4io-v2/NuttX/nuttx-export/libs/libnuttx.a(fs-fs_registerdriver.o)
 .text.register_driver
                0x000000000800a0ce       0x32 /home/tuofeichen/SLAM/MAV-Project/Firmware/build_px4fmu-v2_lpe/px4io-v2/NuttX/nuttx-export/libs/libnuttx.a(fs-fs_registerdriver.o)
                0x000000000800a0ce                register_driver
 .text          0x000000000800a100        0x0 /home/tuofeichen/SLAM/MAV-Project/Firmware/build_px4fmu-v2_lpe/px4io-v2/NuttX/nuttx-export/libs/libnuttx.a(sched-group_create.o)
 .text.group_allocate
                0x000000000800a100       0x18 /home/tuofeichen/SLAM/MAV-Project/Firmware/build_px4fmu-v2_lpe/px4io-v2/NuttX/nuttx-export/libs/libnuttx.a(sched-group_create.o)
                0x000000000800a100                group_allocate
 .text.group_initialize
                0x000000000800a118        0xa /home/tuofeichen/SLAM/MAV-Project/Firmware/build_px4fmu-v2_lpe/px4io-v2/NuttX/nuttx-export/libs/libnuttx.a(sched-group_create.o)
                0x000000000800a118                group_initialize
 .text          0x000000000800a122        0x0 /home/tuofeichen/SLAM/MAV-Project/Firmware/build_px4fmu-v2_lpe/px4io-v2/NuttX/nuttx-export/libs/libnuttx.a(sched-group_leave.o)
 .text.group_leave
                0x000000000800a122       0x26 /home/tuofeichen/SLAM/MAV-Project/Firmware/build_px4fmu-v2_lpe/px4io-v2/NuttX/nuttx-export/libs/libnuttx.a(sched-group_leave.o)
                0x000000000800a122                group_leave
 .text          0x000000000800a148        0x0 /home/tuofeichen/SLAM/MAV-Project/Firmware/build_px4fmu-v2_lpe/px4io-v2/NuttX/nuttx-export/libs/libnuttx.a(sched-group_setupidlefiles.o)
 .text.group_setupidlefiles
                0x000000000800a148       0x38 /home/tuofeichen/SLAM/MAV-Project/Firmware/build_px4fmu-v2_lpe/px4io-v2/NuttX/nuttx-export/libs/libnuttx.a(sched-group_setupidlefiles.o)
                0x000000000800a148                group_setupidlefiles
 .text          0x000000000800a180        0x0 /home/tuofeichen/SLAM/MAV-Project/Firmware/build_px4fmu-v2_lpe/px4io-v2/NuttX/nuttx-export/libs/libnuttx.a(sched-os_bringup.o)
 .text.os_bringup
                0x000000000800a180       0x34 /home/tuofeichen/SLAM/MAV-Project/Firmware/build_px4fmu-v2_lpe/px4io-v2/NuttX/nuttx-export/libs/libnuttx.a(sched-os_bringup.o)
                0x000000000800a180                os_bringup
 .text          0x000000000800a1b4        0x0 /home/tuofeichen/SLAM/MAV-Project/Firmware/build_px4fmu-v2_lpe/px4io-v2/NuttX/nuttx-export/libs/libnuttx.a(sched-sched_addblocked.o)
 .text.sched_addblocked
                0x000000000800a1b4       0x38 /home/tuofeichen/SLAM/MAV-Project/Firmware/build_px4fmu-v2_lpe/px4io-v2/NuttX/nuttx-export/libs/libnuttx.a(sched-sched_addblocked.o)
                0x000000000800a1b4                sched_addblocked
 .text          0x000000000800a1ec        0x0 /home/tuofeichen/SLAM/MAV-Project/Firmware/build_px4fmu-v2_lpe/px4io-v2/NuttX/nuttx-export/libs/libnuttx.a(sched-sched_addprioritized.o)
 .text.sched_addprioritized
                0x000000000800a1ec       0x54 /home/tuofeichen/SLAM/MAV-Project/Firmware/build_px4fmu-v2_lpe/px4io-v2/NuttX/nuttx-export/libs/libnuttx.a(sched-sched_addprioritized.o)
                0x000000000800a1ec                sched_addprioritized
 .text          0x000000000800a240        0x0 /home/tuofeichen/SLAM/MAV-Project/Firmware/build_px4fmu-v2_lpe/px4io-v2/NuttX/nuttx-export/libs/libnuttx.a(sched-sched_addreadytorun.o)
 .text.sched_addreadytorun
                0x000000000800a240       0x60 /home/tuofeichen/SLAM/MAV-Project/Firmware/build_px4fmu-v2_lpe/px4io-v2/NuttX/nuttx-export/libs/libnuttx.a(sched-sched_addreadytorun.o)
                0x000000000800a240                sched_addreadytorun
 .text          0x000000000800a2a0        0x0 /home/tuofeichen/SLAM/MAV-Project/Firmware/build_px4fmu-v2_lpe/px4io-v2/NuttX/nuttx-export/libs/libnuttx.a(sched-sched_free.o)
 .text.sched_ufree
                0x000000000800a2a0       0x3c /home/tuofeichen/SLAM/MAV-Project/Firmware/build_px4fmu-v2_lpe/px4io-v2/NuttX/nuttx-export/libs/libnuttx.a(sched-sched_free.o)
                0x000000000800a2a0                sched_ufree
 .text          0x000000000800a2dc        0x0 /home/tuofeichen/SLAM/MAV-Project/Firmware/build_px4fmu-v2_lpe/px4io-v2/NuttX/nuttx-export/libs/libnuttx.a(sched-sched_mergepending.o)
 .text.sched_mergepending
                0x000000000800a2dc       0x64 /home/tuofeichen/SLAM/MAV-Project/Firmware/build_px4fmu-v2_lpe/px4io-v2/NuttX/nuttx-export/libs/libnuttx.a(sched-sched_mergepending.o)
                0x000000000800a2dc                sched_mergepending
 .text          0x000000000800a340        0x0 /home/tuofeichen/SLAM/MAV-Project/Firmware/build_px4fmu-v2_lpe/px4io-v2/NuttX/nuttx-export/libs/libnuttx.a(sched-sched_removeblocked.o)
 .text.sched_removeblocked
                0x000000000800a340       0x2c /home/tuofeichen/SLAM/MAV-Project/Firmware/build_px4fmu-v2_lpe/px4io-v2/NuttX/nuttx-export/libs/libnuttx.a(sched-sched_removeblocked.o)
                0x000000000800a340                sched_removeblocked
 .text          0x000000000800a36c        0x0 /home/tuofeichen/SLAM/MAV-Project/Firmware/build_px4fmu-v2_lpe/px4io-v2/NuttX/nuttx-export/libs/libnuttx.a(sched-sched_removereadytorun.o)
 .text.sched_removereadytorun
                0x000000000800a36c       0x38 /home/tuofeichen/SLAM/MAV-Project/Firmware/build_px4fmu-v2_lpe/px4io-v2/NuttX/nuttx-export/libs/libnuttx.a(sched-sched_removereadytorun.o)
                0x000000000800a36c                sched_removereadytorun
 .text          0x000000000800a3a4        0x0 /home/tuofeichen/SLAM/MAV-Project/Firmware/build_px4fmu-v2_lpe/px4io-v2/NuttX/nuttx-export/libs/libnuttx.a(sched-sem_destroy.o)
 .text.sem_destroy
                0x000000000800a3a4       0x26 /home/tuofeichen/SLAM/MAV-Project/Firmware/build_px4fmu-v2_lpe/px4io-v2/NuttX/nuttx-export/libs/libnuttx.a(sched-sem_destroy.o)
                0x000000000800a3a4                sem_destroy
 .text          0x000000000800a3ca        0x0 /home/tuofeichen/SLAM/MAV-Project/Firmware/build_px4fmu-v2_lpe/px4io-v2/NuttX/nuttx-export/libs/libnuttx.a(sched-task_create.o)
 *fill*         0x000000000800a3ca        0x2 
 .text.thread_create
                0x000000000800a3cc       0xa8 /home/tuofeichen/SLAM/MAV-Project/Firmware/build_px4fmu-v2_lpe/px4io-v2/NuttX/nuttx-export/libs/libnuttx.a(sched-task_create.o)
 .text.task_create
                0x000000000800a474       0x1a /home/tuofeichen/SLAM/MAV-Project/Firmware/build_px4fmu-v2_lpe/px4io-v2/NuttX/nuttx-export/libs/libnuttx.a(sched-task_create.o)
                0x000000000800a474                task_create
 .text.kernel_thread
                0x000000000800a48e       0x1a /home/tuofeichen/SLAM/MAV-Project/Firmware/build_px4fmu-v2_lpe/px4io-v2/NuttX/nuttx-export/libs/libnuttx.a(sched-task_create.o)
                0x000000000800a48e                kernel_thread
 .text          0x000000000800a4a8        0x0 /home/tuofeichen/SLAM/MAV-Project/Firmware/build_px4fmu-v2_lpe/px4io-v2/NuttX/nuttx-export/libs/libnuttx.a(sched-task_exit.o)
 .text.task_exit
                0x000000000800a4a8       0x4c /home/tuofeichen/SLAM/MAV-Project/Firmware/build_px4fmu-v2_lpe/px4io-v2/NuttX/nuttx-export/libs/libnuttx.a(sched-task_exit.o)
                0x000000000800a4a8                task_exit
 .text          0x000000000800a4f4        0x0 /home/tuofeichen/SLAM/MAV-Project/Firmware/build_px4fmu-v2_lpe/px4io-v2/NuttX/nuttx-export/libs/libnuttx.a(sched-task_setup.o)
 .text.task_schedsetup
                0x000000000800a4f4       0xa4 /home/tuofeichen/SLAM/MAV-Project/Firmware/build_px4fmu-v2_lpe/px4io-v2/NuttX/nuttx-export/libs/libnuttx.a(sched-task_setup.o)
                0x000000000800a4f4                task_schedsetup
 .text.task_argsetup
                0x000000000800a598       0x5c /home/tuofeichen/SLAM/MAV-Project/Firmware/build_px4fmu-v2_lpe/px4io-v2/NuttX/nuttx-export/libs/libnuttx.a(sched-task_setup.o)
                0x000000000800a598                task_argsetup
 .text          0x000000000800a5f4        0x0 /home/tuofeichen/SLAM/MAV-Project/Firmware/build_px4fmu-v2_lpe/px4io-v2/NuttX/nuttx-export/libs/libnuttx.a(sched-task_start.o)
 .text.task_start
                0x000000000800a5f4       0x28 /home/tuofeichen/SLAM/MAV-Project/Firmware/build_px4fmu-v2_lpe/px4io-v2/NuttX/nuttx-export/libs/libnuttx.a(sched-task_start.o)
                0x000000000800a5f4                task_start
 .text          0x000000000800a61c        0x0 /home/tuofeichen/SLAM/MAV-Project/Firmware/build_px4fmu-v2_lpe/px4io-v2/NuttX/nuttx-export/libs/libnuttx.a(sched-task_terminate.o)
 .text.task_terminate
                0x000000000800a61c       0x78 /home/tuofeichen/SLAM/MAV-Project/Firmware/build_px4fmu-v2_lpe/px4io-v2/NuttX/nuttx-export/libs/libnuttx.a(sched-task_terminate.o)
                0x000000000800a61c                task_terminate
 .text          0x000000000800a694        0x0 /home/tuofeichen/SLAM/MAV-Project/Firmware/build_px4fmu-v2_lpe/px4io-v2/NuttX/nuttx-export/libs/libnuttx.a(c-dq_addlast.o)
 .text.dq_addlast
                0x000000000800a694       0x18 /home/tuofeichen/SLAM/MAV-Project/Firmware/build_px4fmu-v2_lpe/px4io-v2/NuttX/nuttx-export/libs/libnuttx.a(c-dq_addlast.o)
                0x000000000800a694                dq_addlast
 .text          0x000000000800a6ac        0x0 /home/tuofeichen/SLAM/MAV-Project/Firmware/build_px4fmu-v2_lpe/px4io-v2/NuttX/nuttx-export/libs/libnuttx.a(c-dq_rem.o)
 .text.dq_rem   0x000000000800a6ac       0x1c /home/tuofeichen/SLAM/MAV-Project/Firmware/build_px4fmu-v2_lpe/px4io-v2/NuttX/nuttx-export/libs/libnuttx.a(c-dq_rem.o)
                0x000000000800a6ac                dq_rem
 .text          0x000000000800a6c8        0x0 /home/tuofeichen/SLAM/MAV-Project/Firmware/build_px4fmu-v2_lpe/px4io-v2/NuttX/nuttx-export/libs/libnuttx.a(c-lib_strdup.o)
 .text.strdup   0x000000000800a6c8       0x1c /home/tuofeichen/SLAM/MAV-Project/Firmware/build_px4fmu-v2_lpe/px4io-v2/NuttX/nuttx-export/libs/libnuttx.a(c-lib_strdup.o)
                0x000000000800a6c8                strdup
 .text          0x000000000800a6e4        0x0 /home/tuofeichen/SLAM/MAV-Project/Firmware/build_px4fmu-v2_lpe/px4io-v2/NuttX/nuttx-export/libs/libnuttx.a(arch-stm32_timerisr.o)
 .text.up_timerisr
                0x000000000800a6e4        0xa /home/tuofeichen/SLAM/MAV-Project/Firmware/build_px4fmu-v2_lpe/px4io-v2/NuttX/nuttx-export/libs/libnuttx.a(arch-stm32_timerisr.o)
                0x000000000800a6e4                up_timerisr
 *fill*         0x000000000800a6ee        0x2 
 .text.up_timerinit
                0x000000000800a6f0       0x40 /home/tuofeichen/SLAM/MAV-Project/Firmware/build_px4fmu-v2_lpe/px4io-v2/NuttX/nuttx-export/libs/libnuttx.a(arch-stm32_timerisr.o)
                0x000000000800a6f0                up_timerinit
 .text          0x000000000800a730        0x0 /home/tuofeichen/SLAM/MAV-Project/Firmware/build_px4fmu-v2_lpe/px4io-v2/NuttX/nuttx-export/libs/libnuttx.a(arch-up_createstack.o)
 .text.up_create_stack
                0x000000000800a730       0x42 /home/tuofeichen/SLAM/MAV-Project/Firmware/build_px4fmu-v2_lpe/px4io-v2/NuttX/nuttx-export/libs/libnuttx.a(arch-up_createstack.o)
                0x000000000800a730                up_create_stack
 .text          0x000000000800a772        0x0 /home/tuofeichen/SLAM/MAV-Project/Firmware/build_px4fmu-v2_lpe/px4io-v2/NuttX/nuttx-export/libs/libnuttx.a(arch-up_doirq.o)
 *fill*         0x000000000800a772        0x2 
 .text.up_doirq
                0x000000000800a774       0x2c /home/tuofeichen/SLAM/MAV-Project/Firmware/build_px4fmu-v2_lpe/px4io-v2/NuttX/nuttx-export/libs/libnuttx.a(arch-up_doirq.o)
                0x000000000800a774                up_doirq
 .text          0x000000000800a7a0        0x0 /home/tuofeichen/SLAM/MAV-Project/Firmware/build_px4fmu-v2_lpe/px4io-v2/NuttX/nuttx-export/libs/libnuttx.a(arch-up_releasestack.o)
 .text.up_release_stack
                0x000000000800a7a0       0x16 /home/tuofeichen/SLAM/MAV-Project/Firmware/build_px4fmu-v2_lpe/px4io-v2/NuttX/nuttx-export/libs/libnuttx.a(arch-up_releasestack.o)
                0x000000000800a7a0                up_release_stack
 .text          0x000000000800a7b6        0x0 /home/tuofeichen/SLAM/MAV-Project/Firmware/build_px4fmu-v2_lpe/px4io-v2/NuttX/nuttx-export/libs/libnuttx.a(fs-fs_close.o)
 .text.close    0x000000000800a7b6       0x24 /home/tuofeichen/SLAM/MAV-Project/Firmware/build_px4fmu-v2_lpe/px4io-v2/NuttX/nuttx-export/libs/libnuttx.a(fs-fs_close.o)
                0x000000000800a7b6                close
 .text          0x000000000800a7da        0x0 /home/tuofeichen/SLAM/MAV-Project/Firmware/build_px4fmu-v2_lpe/px4io-v2/NuttX/nuttx-export/libs/libnuttx.a(fs-fs_filedup2.o)
 .text.dup2     0x000000000800a7da       0x4a /home/tuofeichen/SLAM/MAV-Project/Firmware/build_px4fmu-v2_lpe/px4io-v2/NuttX/nuttx-export/libs/libnuttx.a(fs-fs_filedup2.o)
                0x000000000800a7da                dup2
 .text          0x000000000800a824        0x0 /home/tuofeichen/SLAM/MAV-Project/Firmware/build_px4fmu-v2_lpe/px4io-v2/NuttX/nuttx-export/libs/libnuttx.a(fs-fs_inodereserve.o)
 .text.inode_alloc
                0x000000000800a824       0x3c /home/tuofeichen/SLAM/MAV-Project/Firmware/build_px4fmu-v2_lpe/px4io-v2/NuttX/nuttx-export/libs/libnuttx.a(fs-fs_inodereserve.o)
 .text.inode_reserve
                0x000000000800a860       0xa4 /home/tuofeichen/SLAM/MAV-Project/Firmware/build_px4fmu-v2_lpe/px4io-v2/NuttX/nuttx-export/libs/libnuttx.a(fs-fs_inodereserve.o)
                0x000000000800a860                inode_reserve
 .text          0x000000000800a904        0x0 /home/tuofeichen/SLAM/MAV-Project/Firmware/build_px4fmu-v2_lpe/px4io-v2/NuttX/nuttx-export/libs/libnuttx.a(sched-group_setuptaskfiles.o)
 .text.group_setuptaskfiles
                0x000000000800a904        0xe /home/tuofeichen/SLAM/MAV-Project/Firmware/build_px4fmu-v2_lpe/px4io-v2/NuttX/nuttx-export/libs/libnuttx.a(sched-group_setuptaskfiles.o)
                0x000000000800a904                group_setuptaskfiles
 .text          0x000000000800a912        0x0 /home/tuofeichen/SLAM/MAV-Project/Firmware/build_px4fmu-v2_lpe/px4io-v2/NuttX/nuttx-export/libs/libnuttx.a(sched-irq_dispatch.o)
 *fill*         0x000000000800a912        0x2 
 .text.irq_dispatch
                0x000000000800a914       0x20 /home/tuofeichen/SLAM/MAV-Project/Firmware/build_px4fmu-v2_lpe/px4io-v2/NuttX/nuttx-export/libs/libnuttx.a(sched-irq_dispatch.o)
                0x000000000800a914                irq_dispatch
 .text          0x000000000800a934        0x0 /home/tuofeichen/SLAM/MAV-Project/Firmware/build_px4fmu-v2_lpe/px4io-v2/NuttX/nuttx-export/libs/libnuttx.a(sched-sched_gettcb.o)
 .text.sched_gettcb
                0x000000000800a934       0x24 /home/tuofeichen/SLAM/MAV-Project/Firmware/build_px4fmu-v2_lpe/px4io-v2/NuttX/nuttx-export/libs/libnuttx.a(sched-sched_gettcb.o)
                0x000000000800a934                sched_gettcb
 .text          0x000000000800a958        0x0 /home/tuofeichen/SLAM/MAV-Project/Firmware/build_px4fmu-v2_lpe/px4io-v2/NuttX/nuttx-export/libs/libnuttx.a(sched-sched_lock.o)
 .text.sched_lock
                0x000000000800a958       0x30 /home/tuofeichen/SLAM/MAV-Project/Firmware/build_px4fmu-v2_lpe/px4io-v2/NuttX/nuttx-export/libs/libnuttx.a(sched-sched_lock.o)
                0x000000000800a958                sched_lock
 .text          0x000000000800a988        0x0 /home/tuofeichen/SLAM/MAV-Project/Firmware/build_px4fmu-v2_lpe/px4io-v2/NuttX/nuttx-export/libs/libnuttx.a(sched-sched_processtimer.o)
 .text.sched_process_timer
                0x000000000800a988       0x1c /home/tuofeichen/SLAM/MAV-Project/Firmware/build_px4fmu-v2_lpe/px4io-v2/NuttX/nuttx-export/libs/libnuttx.a(sched-sched_processtimer.o)
                0x000000000800a988                sched_process_timer
 .text          0x000000000800a9a4        0x0 /home/tuofeichen/SLAM/MAV-Project/Firmware/build_px4fmu-v2_lpe/px4io-v2/NuttX/nuttx-export/libs/libnuttx.a(sched-sched_releasetcb.o)
 .text.sched_releasetcb
                0x000000000800a9a4       0x54 /home/tuofeichen/SLAM/MAV-Project/Firmware/build_px4fmu-v2_lpe/px4io-v2/NuttX/nuttx-export/libs/libnuttx.a(sched-sched_releasetcb.o)
                0x000000000800a9a4                sched_releasetcb
 .text          0x000000000800a9f8        0x0 /home/tuofeichen/SLAM/MAV-Project/Firmware/build_px4fmu-v2_lpe/px4io-v2/NuttX/nuttx-export/libs/libnuttx.a(sched-sched_unlock.o)
 .text.sched_unlock
                0x000000000800a9f8       0x48 /home/tuofeichen/SLAM/MAV-Project/Firmware/build_px4fmu-v2_lpe/px4io-v2/NuttX/nuttx-export/libs/libnuttx.a(sched-sched_unlock.o)
                0x000000000800a9f8                sched_unlock
 .text          0x000000000800aa40        0x0 /home/tuofeichen/SLAM/MAV-Project/Firmware/build_px4fmu-v2_lpe/px4io-v2/NuttX/nuttx-export/libs/libnuttx.a(sched-task_activate.o)
 .text.task_activate
                0x000000000800aa40       0x18 /home/tuofeichen/SLAM/MAV-Project/Firmware/build_px4fmu-v2_lpe/px4io-v2/NuttX/nuttx-export/libs/libnuttx.a(sched-task_activate.o)
                0x000000000800aa40                task_activate
 .text          0x000000000800aa58        0x0 /home/tuofeichen/SLAM/MAV-Project/Firmware/build_px4fmu-v2_lpe/px4io-v2/NuttX/nuttx-export/libs/libnuttx.a(arch-up_releasepending.o)
 .text.up_release_pending
                0x000000000800aa58       0x38 /home/tuofeichen/SLAM/MAV-Project/Firmware/build_px4fmu-v2_lpe/px4io-v2/NuttX/nuttx-export/libs/libnuttx.a(arch-up_releasepending.o)
                0x000000000800aa58                up_release_pending
 .text          0x000000000800aa90        0x0 /usr/bin/../lib/gcc/arm-none-eabi/4.9.3/../../../../arm-none-eabi/lib/armv7-m/libm.a(lib_a-sf_fmin.o)
 .text.fminf    0x000000000800aa90       0x28 /usr/bin/../lib/gcc/arm-none-eabi/4.9.3/../../../../arm-none-eabi/lib/armv7-m/libm.a(lib_a-sf_fmin.o)
                0x000000000800aa90                fminf
 .text          0x000000000800aab8        0x0 /usr/bin/../lib/gcc/arm-none-eabi/4.9.3/../../../../arm-none-eabi/lib/armv7-m/libm.a(lib_a-sf_fpclassify.o)
 .text.__fpclassifyf
                0x000000000800aab8       0x34 /usr/bin/../lib/gcc/arm-none-eabi/4.9.3/../../../../arm-none-eabi/lib/armv7-m/libm.a(lib_a-sf_fpclassify.o)
                0x000000000800aab8                __fpclassifyf
 .text          0x000000000800aaec        0x0 /usr/bin/../lib/gcc/arm-none-eabi/4.9.3/../../../../arm-none-eabi/lib/armv7-m/libm.a(lib_a-wf_sqrt.o)
 .text.sqrtf    0x000000000800aaec       0x9c /usr/bin/../lib/gcc/arm-none-eabi/4.9.3/../../../../arm-none-eabi/lib/armv7-m/libm.a(lib_a-wf_sqrt.o)
                0x000000000800aaec                sqrtf
 .text          0x000000000800ab88        0x0 /usr/bin/../lib/gcc/arm-none-eabi/4.9.3/../../../../arm-none-eabi/lib/armv7-m/libm.a(lib_a-ef_sqrt.o)
 .text.__ieee754_sqrtf
                0x000000000800ab88       0xa8 /usr/bin/../lib/gcc/arm-none-eabi/4.9.3/../../../../arm-none-eabi/lib/armv7-m/libm.a(lib_a-ef_sqrt.o)
                0x000000000800ab88                __ieee754_sqrtf
 .text          0x000000000800ac30        0x0 /usr/bin/../lib/gcc/arm-none-eabi/4.9.3/../../../../arm-none-eabi/lib/armv7-m/libm.a(lib_a-s_lib_ver.o)
 .text          0x000000000800ac30        0x0 /usr/bin/../lib/gcc/arm-none-eabi/4.9.3/../../../../arm-none-eabi/lib/armv7-m/libm.a(lib_a-s_matherr.o)
 .text.matherr  0x000000000800ac30        0x4 /usr/bin/../lib/gcc/arm-none-eabi/4.9.3/../../../../arm-none-eabi/lib/armv7-m/libm.a(lib_a-s_matherr.o)
                0x000000000800ac30                matherr
 .text          0x000000000800ac34       0x18 /usr/bin/../lib/gcc/arm-none-eabi/4.9.3/armv7-m/libgcc.a(_lshrdi3.o)
                0x000000000800ac34                __aeabi_llsr
                0x000000000800ac34                __lshrdi3
 .text          0x000000000800ac4c      0x370 /usr/bin/../lib/gcc/arm-none-eabi/4.9.3/armv7-m/libgcc.a(_arm_addsubdf3.o)
                0x000000000800ac4c                __aeabi_drsub
                0x000000000800ac54                __aeabi_dsub
                0x000000000800ac54                __subdf3
                0x000000000800ac58                __adddf3
                0x000000000800ac58                __aeabi_dadd
                0x000000000800aed0                __aeabi_ui2d
                0x000000000800aed0                __floatunsidf
                0x000000000800aef0                __floatsidf
                0x000000000800aef0                __aeabi_i2d
                0x000000000800af14                __extendsfdf2
                0x000000000800af14                __aeabi_f2d
                0x000000000800af50                __aeabi_ul2d
                0x000000000800af50                __floatundidf
                0x000000000800af60                __floatdidf
                0x000000000800af60                __aeabi_l2d
 .text          0x000000000800afbc      0x424 /usr/bin/../lib/gcc/arm-none-eabi/4.9.3/armv7-m/libgcc.a(_arm_muldivdf3.o)
                0x000000000800afbc                __aeabi_dmul
                0x000000000800afbc                __muldf3
                0x000000000800b210                __aeabi_ddiv
                0x000000000800b210                __divdf3
 .text          0x000000000800b3e0       0xa0 /usr/bin/../lib/gcc/arm-none-eabi/4.9.3/armv7-m/libgcc.a(_arm_truncdfsf2.o)
                0x000000000800b3e0                __aeabi_d2f
                0x000000000800b3e0                __truncdfsf2
 .text          0x000000000800b480      0x21c /usr/bin/../lib/gcc/arm-none-eabi/4.9.3/armv7-m/libgcc.a(_arm_addsubsf3.o)
                0x000000000800b480                __aeabi_frsub
                0x000000000800b488                __subsf3
                0x000000000800b488                __aeabi_fsub
                0x000000000800b48c                __aeabi_fadd
                0x000000000800b48c                __addsf3
                0x000000000800b5ec                __aeabi_ui2f
                0x000000000800b5ec                __floatunsisf
                0x000000000800b5f4                __aeabi_i2f
                0x000000000800b5f4                __floatsisf
                0x000000000800b610                __floatundisf
                0x000000000800b610                __aeabi_ul2f
                0x000000000800b620                __floatdisf
                0x000000000800b620                __aeabi_l2f
 .text          0x000000000800b69c      0x2a0 /usr/bin/../lib/gcc/arm-none-eabi/4.9.3/armv7-m/libgcc.a(_arm_muldivsf3.o)
                0x000000000800b69c                __mulsf3
                0x000000000800b69c                __aeabi_fmul
                0x000000000800b804                __divsf3
                0x000000000800b804                __aeabi_fdiv
 .text          0x000000000800b93c       0xec /usr/bin/../lib/gcc/arm-none-eabi/4.9.3/armv7-m/libgcc.a(_arm_cmpsf2.o)
                0x000000000800b93c                __gtsf2
                0x000000000800b93c                __gesf2
                0x000000000800b944                __lesf2
                0x000000000800b944                __ltsf2
                0x000000000800b94c                __nesf2
                0x000000000800b94c                __eqsf2
                0x000000000800b94c                __cmpsf2
                0x000000000800b9ac                __aeabi_cfrcmple
                0x000000000800b9b4                __aeabi_cfcmple
                0x000000000800b9b4                __aeabi_cfcmpeq
                0x000000000800b9c4                __aeabi_fcmpeq
                0x000000000800b9d8                __aeabi_fcmplt
                0x000000000800b9ec                __aeabi_fcmple
                0x000000000800ba00                __aeabi_fcmpge
                0x000000000800ba14                __aeabi_fcmpgt
 .text          0x000000000800ba28       0x2c /usr/bin/../lib/gcc/arm-none-eabi/4.9.3/armv7-m/libgcc.a(_arm_unordsf2.o)
                0x000000000800ba28                __aeabi_fcmpun
                0x000000000800ba28                __unordsf2
 .text          0x000000000800ba54       0x4c /usr/bin/../lib/gcc/arm-none-eabi/4.9.3/armv7-m/libgcc.a(_arm_fixsfsi.o)
                0x000000000800ba54                __fixsfsi
                0x000000000800ba54                __aeabi_f2iz
 .text          0x000000000800baa0       0x40 /usr/bin/../lib/gcc/arm-none-eabi/4.9.3/armv7-m/libgcc.a(_arm_fixunssfsi.o)
                0x000000000800baa0                __aeabi_f2uiz
                0x000000000800baa0                __fixunssfsi
 .text          0x000000000800bae0       0x30 /usr/bin/../lib/gcc/arm-none-eabi/4.9.3/armv7-m/libgcc.a(_aeabi_uldivmod.o)
                0x000000000800bae0                __aeabi_uldivmod
 .text          0x000000000800bb10       0x60 /usr/bin/../lib/gcc/arm-none-eabi/4.9.3/armv7-m/libgcc.a(bpabi.o)
                0x000000000800bb10                __gnu_ldivmod_helper
                0x000000000800bb40                __gnu_uldivmod_helper
 .text          0x000000000800bb70        0x4 /usr/bin/../lib/gcc/arm-none-eabi/4.9.3/armv7-m/libgcc.a(_dvmd_tls.o)
                0x000000000800bb70                __aeabi_ldiv0
                0x000000000800bb70                __aeabi_idiv0
 .text          0x000000000800bb74      0x2ac /usr/bin/../lib/gcc/arm-none-eabi/4.9.3/armv7-m/libgcc.a(_divdi3.o)
                0x000000000800bb74                __divdi3
 .text          0x000000000800be20      0x270 /usr/bin/../lib/gcc/arm-none-eabi/4.9.3/armv7-m/libgcc.a(_udivdi3.o)
                0x000000000800be20                __udivdi3
 *(.fixup)
 *(.gnu.warning)
 *(.rodata .rodata.*)
 .rodata.str1.4
                0x000000000800c090       0x17 src/modules/px4iofirmware/CMakeFiles/px4io-v2.dir/controls.c.obj
 *fill*         0x000000000800c0a7        0x1 
 .rodata.str1.4
                0x000000000800c0a8       0x67 src/modules/px4iofirmware/CMakeFiles/px4io-v2.dir/px4io.c.obj
 *fill*         0x000000000800c10f        0x1 
 .rodata.r_page_config
                0x000000000800c110       0x12 src/modules/px4iofirmware/CMakeFiles/px4io-v2.dir/registers.c.obj
 *fill*         0x000000000800c122        0x2 
 .rodata.str1.4
                0x000000000800c124       0x35 src/modules/px4iofirmware/CMakeFiles/px4io-v2.dir/registers.c.obj
 *fill*         0x000000000800c159        0x3 
 .rodata.str1.4
                0x000000000800c15c       0xe1 src/modules/px4iofirmware/CMakeFiles/px4io-v2.dir/__/systemlib/perf_counter.c.obj
 *fill*         0x000000000800c23d        0x3 
 .rodata.str1.4
                0x000000000800c240       0x63 src/modules/px4iofirmware/CMakeFiles/px4io-v2.dir/mixer.cpp.obj
 *fill*         0x000000000800c2a3        0x5 
 .rodata._ZTV5Mixer
                0x000000000800c2a8       0x18 src/modules/px4iofirmware/CMakeFiles/px4io-v2.dir/__/systemlib/mixer/mixer.cpp.obj
                0x000000000800c2a8                vtable for Mixer
 .rodata._ZTV9NullMixer
                0x000000000800c2c0       0x18 src/modules/px4iofirmware/CMakeFiles/px4io-v2.dir/__/systemlib/mixer/mixer.cpp.obj
                0x000000000800c2c0                vtable for NullMixer
 .rodata._ZTV10MixerGroup
                0x000000000800c2d8       0x18 src/modules/px4iofirmware/CMakeFiles/px4io-v2.dir/__/systemlib/mixer/mixer_group.cpp.obj
                0x000000000800c2d8                vtable for MixerGroup
 .rodata._ZN12_GLOBAL__N_1L13_config_tri_yE
                0x000000000800c2f0       0x30 src/modules/px4iofirmware/CMakeFiles/px4io-v2.dir/__/systemlib/mixer/mixer_multirotor.cpp.obj
 .rodata._ZN12_GLOBAL__N_1L19_config_twin_engineE
                0x000000000800c320       0x20 src/modules/px4iofirmware/CMakeFiles/px4io-v2.dir/__/systemlib/mixer/mixer_multirotor.cpp.obj
 .rodata._ZN12_GLOBAL__N_1L13_config_hex_xE
                0x000000000800c340       0x60 src/modules/px4iofirmware/CMakeFiles/px4io-v2.dir/__/systemlib/mixer/mixer_multirotor.cpp.obj
 .rodata._ZN12_GLOBAL__N_1L14_config_quad_hE
                0x000000000800c3a0       0x40 src/modules/px4iofirmware/CMakeFiles/px4io-v2.dir/__/systemlib/mixer/mixer_multirotor.cpp.obj
 .rodata._ZN12_GLOBAL__N_1L15_config_hex_coxE
                0x000000000800c3e0       0x60 src/modules/px4iofirmware/CMakeFiles/px4io-v2.dir/__/systemlib/mixer/mixer_multirotor.cpp.obj
 .rodata._ZN12_GLOBAL__N_1L14_config_octa_xE
                0x000000000800c440       0x80 src/modules/px4iofirmware/CMakeFiles/px4io-v2.dir/__/systemlib/mixer/mixer_multirotor.cpp.obj
 .rodata._ZN12_GLOBAL__N_1L19_config_rotor_countE
                0x000000000800c4c0       0x3c src/modules/px4iofirmware/CMakeFiles/px4io-v2.dir/__/systemlib/mixer/mixer_multirotor.cpp.obj
 .rodata._ZN12_GLOBAL__N_1L20_config_quad_deadcatE
                0x000000000800c4fc       0x40 src/modules/px4iofirmware/CMakeFiles/px4io-v2.dir/__/systemlib/mixer/mixer_multirotor.cpp.obj
 .rodata.str1.4
                0x000000000800c53c       0x4b src/modules/px4iofirmware/CMakeFiles/px4io-v2.dir/__/systemlib/mixer/mixer_multirotor.cpp.obj
 *fill*         0x000000000800c587        0x1 
 .rodata._ZN12_GLOBAL__N_1L16_config_hex_plusE
                0x000000000800c588       0x60 src/modules/px4iofirmware/CMakeFiles/px4io-v2.dir/__/systemlib/mixer/mixer_multirotor.cpp.obj
 .rodata._ZN12_GLOBAL__N_1L17_config_octa_plusE
                0x000000000800c5e8       0x80 src/modules/px4iofirmware/CMakeFiles/px4io-v2.dir/__/systemlib/mixer/mixer_multirotor.cpp.obj
 .rodata._ZN12_GLOBAL__N_1L17_config_quad_plusE
                0x000000000800c668       0x40 src/modules/px4iofirmware/CMakeFiles/px4io-v2.dir/__/systemlib/mixer/mixer_multirotor.cpp.obj
 .rodata._ZN12_GLOBAL__N_113_config_indexE
                0x000000000800c6a8       0x3c src/modules/px4iofirmware/CMakeFiles/px4io-v2.dir/__/systemlib/mixer/mixer_multirotor.cpp.obj
 .rodata._ZN12_GLOBAL__N_1L17_config_quad_wideE
                0x000000000800c6e4       0x40 src/modules/px4iofirmware/CMakeFiles/px4io-v2.dir/__/systemlib/mixer/mixer_multirotor.cpp.obj
 .rodata._ZN12_GLOBAL__N_1L21_config_octa_cox_wideE
                0x000000000800c724       0x80 src/modules/px4iofirmware/CMakeFiles/px4io-v2.dir/__/systemlib/mixer/mixer_multirotor.cpp.obj
 .rodata._ZN12_GLOBAL__N_1L14_config_quad_vE
                0x000000000800c7a4       0x40 src/modules/px4iofirmware/CMakeFiles/px4io-v2.dir/__/systemlib/mixer/mixer_multirotor.cpp.obj
 .rodata._ZN12_GLOBAL__N_1L14_config_quad_xE
                0x000000000800c7e4       0x40 src/modules/px4iofirmware/CMakeFiles/px4io-v2.dir/__/systemlib/mixer/mixer_multirotor.cpp.obj
 *fill*         0x000000000800c824        0x4 
 .rodata._ZTV15MultirotorMixer
                0x000000000800c828       0x18 src/modules/px4iofirmware/CMakeFiles/px4io-v2.dir/__/systemlib/mixer/mixer_multirotor.cpp.obj
                0x000000000800c828                vtable for MultirotorMixer
 .rodata._ZN12_GLOBAL__N_1L16_config_octa_coxE
                0x000000000800c840       0x80 src/modules/px4iofirmware/CMakeFiles/px4io-v2.dir/__/systemlib/mixer/mixer_multirotor.cpp.obj
 .rodata._ZTV11SimpleMixer
                0x000000000800c8c0       0x18 src/modules/px4iofirmware/CMakeFiles/px4io-v2.dir/__/systemlib/mixer/mixer_simple.cpp.obj
                0x000000000800c8c0                vtable for SimpleMixer
 .rodata.str1.4
                0x000000000800c8d8       0x38 src/modules/px4iofirmware/CMakeFiles/px4io-v2.dir/__/systemlib/mixer/mixer_simple.cpp.obj
 .rodata.str1.4
                0x000000000800c910       0x41 src/modules/px4iofirmware/CMakeFiles/px4io-v2.dir/__/__/lib/rc/st24.c.obj
 *fill*         0x000000000800c951        0x3 
 .rodata.str1.4
                0x000000000800c954      0x24a src/modules/px4iofirmware/CMakeFiles/px4io-v2.dir/__/__/lib/rc/sumd.c.obj
 *fill*         0x000000000800cb9e        0x2 
 .rodata.sbus_decoder
                0x000000000800cba0       0xc0 src/modules/px4iofirmware/CMakeFiles/px4io-v2.dir/__/__/lib/rc/sbus.c.obj
 .rodata.masks.6847
                0x000000000800cc60       0x1c src/modules/px4iofirmware/CMakeFiles/px4io-v2.dir/__/__/lib/rc/dsm.c.obj
 .rodata.latency_bucket_count
                0x000000000800cc7c        0x2 src/modules/px4iofirmware/CMakeFiles/px4io-v2.dir/__/__/drivers/stm32/drv_hrt.c.obj
                0x000000000800cc7c                latency_bucket_count
 *fill*         0x000000000800cc7e        0x2 
 .rodata.latency_buckets
                0x000000000800cc80       0x10 src/modules/px4iofirmware/CMakeFiles/px4io-v2.dir/__/__/drivers/stm32/drv_hrt.c.obj
                0x000000000800cc80                latency_buckets
 .rodata.io_timers
                0x000000000800cc90       0x80 src/modules/px4iofirmware/CMakeFiles/px4io-v2.dir/__/__/drivers/boards/px4io-v2/px4io_timer_config.c.obj
                0x000000000800cc90                io_timers
 .rodata.timer_io_channels
                0x000000000800cd10       0x80 src/modules/px4iofirmware/CMakeFiles/px4io-v2.dir/__/__/drivers/boards/px4io-v2/px4io_timer_config.c.obj
                0x000000000800cd10                timer_io_channels
 .rodata.crc8_tab
                0x000000000800cd90      0x100 src/modules/px4iofirmware/CMakeFiles/px4io-v2.dir/serial.c.obj
 .rodata.str1.1
                0x000000000800ce90       0x14 /home/tuofeichen/SLAM/MAV-Project/Firmware/build_px4fmu-v2_lpe/px4io-v2/NuttX/nuttx-export/libs/libnuttx.a(sched-irq_unexpectedisr.o)
 .rodata.crc32_tab
                0x000000000800cea4      0x400 /home/tuofeichen/SLAM/MAV-Project/Firmware/build_px4fmu-v2_lpe/px4io-v2/NuttX/nuttx-export/libs/libnuttx.a(c-lib_crc32.o)
 .rodata.str1.1
                0x000000000800d2a4       0x14 /home/tuofeichen/SLAM/MAV-Project/Firmware/build_px4fmu-v2_lpe/px4io-v2/NuttX/nuttx-export/libs/libnuttx.a(c-lib_sscanf.o)
 .rodata.spaces
                0x000000000800d2b8        0x7 /home/tuofeichen/SLAM/MAV-Project/Firmware/build_px4fmu-v2_lpe/px4io-v2/NuttX/nuttx-export/libs/libnuttx.a(c-lib_sscanf.o)
 .rodata.str1.1
                0x000000000800d2bf        0x9 /home/tuofeichen/SLAM/MAV-Project/Firmware/build_px4fmu-v2_lpe/px4io-v2/NuttX/nuttx-export/libs/libnuttx.a(mm-mm_sem.o)
 .rodata.str1.1
                0x000000000800d2c8       0x17 /home/tuofeichen/SLAM/MAV-Project/Firmware/build_px4fmu-v2_lpe/px4io-v2/NuttX/nuttx-export/libs/libnuttx.a(arch-stm32_dma.o)
 *fill*         0x000000000800d2df        0x1 
 .rodata.g_gpiobase
                0x000000000800d2e0       0x10 /home/tuofeichen/SLAM/MAV-Project/Firmware/build_px4fmu-v2_lpe/px4io-v2/NuttX/nuttx-export/libs/libnuttx.a(arch-stm32_gpio.o)
                0x000000000800d2e0                g_gpiobase
 .rodata.str1.1
                0x000000000800d2f0       0x23 /home/tuofeichen/SLAM/MAV-Project/Firmware/build_px4fmu-v2_lpe/px4io-v2/NuttX/nuttx-export/libs/libnuttx.a(arch-stm32_serial.o)
 *fill*         0x000000000800d313        0x1 
 .rodata.uart_devs
                0x000000000800d314        0xc /home/tuofeichen/SLAM/MAV-Project/Firmware/build_px4fmu-v2_lpe/px4io-v2/NuttX/nuttx-export/libs/libnuttx.a(arch-stm32_serial.o)
 .rodata.g_uart_ops
                0x000000000800d320       0x34 /home/tuofeichen/SLAM/MAV-Project/Firmware/build_px4fmu-v2_lpe/px4io-v2/NuttX/nuttx-export/libs/libnuttx.a(arch-stm32_serial.o)
 .rodata.g_uart_dma_ops
                0x000000000800d354       0x34 /home/tuofeichen/SLAM/MAV-Project/Firmware/build_px4fmu-v2_lpe/px4io-v2/NuttX/nuttx-export/libs/libnuttx.a(arch-stm32_serial.o)
 .rodata.str1.1
                0x000000000800d388      0x160 /home/tuofeichen/SLAM/MAV-Project/Firmware/build_px4fmu-v2_lpe/px4io-v2/NuttX/nuttx-export/libs/libnuttx.a(arch-up_assert.o)
 .rodata.str1.1
                0x000000000800d4e8       0x17 /home/tuofeichen/SLAM/MAV-Project/Firmware/build_px4fmu-v2_lpe/px4io-v2/NuttX/nuttx-export/libs/libnuttx.a(arch-up_hardfault.o)
 .rodata.str1.1
                0x000000000800d4ff       0x19 /home/tuofeichen/SLAM/MAV-Project/Firmware/build_px4fmu-v2_lpe/px4io-v2/NuttX/nuttx-export/libs/libnuttx.a(cxx-libxx_cxapurevirtual.o)
 .rodata.str1.1
                0x000000000800d518       0x10 /home/tuofeichen/SLAM/MAV-Project/Firmware/build_px4fmu-v2_lpe/px4io-v2/NuttX/nuttx-export/libs/libnuttx.a(drivers-serial.o)
 .rodata.g_serialops
                0x000000000800d528       0x18 /home/tuofeichen/SLAM/MAV-Project/Firmware/build_px4fmu-v2_lpe/px4io-v2/NuttX/nuttx-export/libs/libnuttx.a(drivers-serial.o)
 .rodata.g_idlename
                0x000000000800d540        0xa /home/tuofeichen/SLAM/MAV-Project/Firmware/build_px4fmu-v2_lpe/px4io-v2/NuttX/nuttx-export/libs/libnuttx.a(sched-os_start.o)
 *fill*         0x000000000800d54a        0x2 
 .rodata.g_tasklisttable
                0x000000000800d54c       0x30 /home/tuofeichen/SLAM/MAV-Project/Firmware/build_px4fmu-v2_lpe/px4io-v2/NuttX/nuttx-export/libs/libnuttx.a(sched-os_start.o)
                0x000000000800d54c                g_tasklisttable
 .rodata.str1.1
                0x000000000800d57c        0xb /home/tuofeichen/SLAM/MAV-Project/Firmware/build_px4fmu-v2_lpe/px4io-v2/NuttX/nuttx-export/libs/libnuttx.a(sched-sem_post.o)
 .rodata.str1.1
                0x000000000800d587        0xb /home/tuofeichen/SLAM/MAV-Project/Firmware/build_px4fmu-v2_lpe/px4io-v2/NuttX/nuttx-export/libs/libnuttx.a(sched-sem_wait.o)
 .rodata.str1.1
                0x000000000800d592        0xc /home/tuofeichen/SLAM/MAV-Project/Firmware/build_px4fmu-v2_lpe/px4io-v2/NuttX/nuttx-export/libs/libnuttx.a(sched-wd_cancel.o)
 .rodata.g_nullstring
                0x000000000800d59e        0x7 /home/tuofeichen/SLAM/MAV-Project/Firmware/build_px4fmu-v2_lpe/px4io-v2/NuttX/nuttx-export/libs/libnuttx.a(c-lib_libvsprintf.o)
 .rodata.str1.1
                0x000000000800d5a5       0x1c /home/tuofeichen/SLAM/MAV-Project/Firmware/build_px4fmu-v2_lpe/px4io-v2/NuttX/nuttx-export/libs/libnuttx.a(c-lib_libvsprintf.o)
 .rodata        0x000000000800d5c1        0x4 /home/tuofeichen/SLAM/MAV-Project/Firmware/build_px4fmu-v2_lpe/px4io-v2/NuttX/nuttx-export/libs/libnuttx.a(arch-stm32_vectors.o)
                0x000000000800d5c1                g_idle_topstack
 .rodata.str1.1
                0x000000000800d5c5       0x17 /home/tuofeichen/SLAM/MAV-Project/Firmware/build_px4fmu-v2_lpe/px4io-v2/NuttX/nuttx-export/libs/libnuttx.a(arch-up_blocktask.o)
 .rodata.str1.1
                0x000000000800d5dc       0x19 /home/tuofeichen/SLAM/MAV-Project/Firmware/build_px4fmu-v2_lpe/px4io-v2/NuttX/nuttx-export/libs/libnuttx.a(arch-up_unblocktask.o)
 .rodata.str1.1
                0x000000000800d5f5        0xb /home/tuofeichen/SLAM/MAV-Project/Firmware/build_px4fmu-v2_lpe/px4io-v2/NuttX/nuttx-export/libs/libnuttx.a(fs-fs_files.o)
 .rodata.str1.1
                0x000000000800d600        0xb /home/tuofeichen/SLAM/MAV-Project/Firmware/build_px4fmu-v2_lpe/px4io-v2/NuttX/nuttx-export/libs/libnuttx.a(fs-fs_inode.o)
 .rodata.str1.1
                0x0000000000000000        0xd /home/tuofeichen/SLAM/MAV-Project/Firmware/build_px4fmu-v2_lpe/px4io-v2/NuttX/nuttx-export/libs/libnuttx.a(sched-group_setupidlefiles.o)
 .rodata.str1.1
                0x000000000800d60b       0x12 /home/tuofeichen/SLAM/MAV-Project/Firmware/build_px4fmu-v2_lpe/px4io-v2/NuttX/nuttx-export/libs/libnuttx.a(sched-os_bringup.o)
 .rodata.str1.1
                0x000000000800d61d       0x13 /home/tuofeichen/SLAM/MAV-Project/Firmware/build_px4fmu-v2_lpe/px4io-v2/NuttX/nuttx-export/libs/libnuttx.a(sched-sched_addblocked.o)
 .rodata.str1.1
                0x000000000800d630       0x17 /home/tuofeichen/SLAM/MAV-Project/Firmware/build_px4fmu-v2_lpe/px4io-v2/NuttX/nuttx-export/libs/libnuttx.a(sched-sched_addprioritized.o)
 .rodata.str1.1
                0x000000000800d647       0x16 /home/tuofeichen/SLAM/MAV-Project/Firmware/build_px4fmu-v2_lpe/px4io-v2/NuttX/nuttx-export/libs/libnuttx.a(sched-sched_addreadytorun.o)
 .rodata.str1.1
                0x000000000800d65d       0x15 /home/tuofeichen/SLAM/MAV-Project/Firmware/build_px4fmu-v2_lpe/px4io-v2/NuttX/nuttx-export/libs/libnuttx.a(sched-sched_mergepending.o)
 .rodata.str1.1
                0x000000000800d672       0x16 /home/tuofeichen/SLAM/MAV-Project/Firmware/build_px4fmu-v2_lpe/px4io-v2/NuttX/nuttx-export/libs/libnuttx.a(sched-sched_removeblocked.o)
 .rodata.str1.1
                0x000000000800d688       0x19 /home/tuofeichen/SLAM/MAV-Project/Firmware/build_px4fmu-v2_lpe/px4io-v2/NuttX/nuttx-export/libs/libnuttx.a(sched-sched_removereadytorun.o)
 .rodata.g_noname
                0x000000000800d6a1        0x9 /home/tuofeichen/SLAM/MAV-Project/Firmware/build_px4fmu-v2_lpe/px4io-v2/NuttX/nuttx-export/libs/libnuttx.a(sched-task_setup.o)
 .rodata.str1.1
                0x000000000800d6aa       0x11 /home/tuofeichen/SLAM/MAV-Project/Firmware/build_px4fmu-v2_lpe/px4io-v2/NuttX/nuttx-export/libs/libnuttx.a(sched-task_terminate.o)
 .rodata.str1.1
                0x000000000800d6bb        0xd /home/tuofeichen/SLAM/MAV-Project/Firmware/build_px4fmu-v2_lpe/px4io-v2/NuttX/nuttx-export/libs/libnuttx.a(sched-sched_lock.o)
 .rodata.str1.4
                0x000000000800d6c8        0x8 /usr/bin/../lib/gcc/arm-none-eabi/4.9.3/../../../../arm-none-eabi/lib/armv7-m/libm.a(lib_a-wf_sqrt.o)
                                          0x6 (size before relaxing)
 *(.gnu.linkonce.t.*)
 *(.glue_7)
 .glue_7        0x0000000000000000        0x0 linker stubs
 *(.glue_7t)
 .glue_7t       0x0000000000000000        0x0 linker stubs
 *(.got)
 *(.gcc_except_table)
 *(.gnu.linkonce.r.*)
                0x000000000800d6d0                _etext = ABSOLUTE (.)
                0x0000000008008cfc                __errno = get_errno_ptr

.vfp11_veneer   0x000000000800d6d0        0x0
 .vfp11_veneer  0x0000000000000000        0x0 linker stubs

.v4_bx          0x000000000800d6d0        0x0
 .v4_bx         0x0000000000000000        0x0 linker stubs

.iplt           0x000000000800d6d0        0x0
 .iplt          0x0000000000000000        0x0 src/modules/px4iofirmware/CMakeFiles/px4io-v2.dir/adc.c.obj

.init_section   0x000000000800d6d0        0x4
                0x000000000800d6d0                _sinit = ABSOLUTE (.)
 *(.init_array .init_array.*)
 .init_array    0x000000000800d6d0        0x4 src/modules/px4iofirmware/CMakeFiles/px4io-v2.dir/mixer.cpp.obj
                0x000000000800d6d4                _einit = ABSOLUTE (.)

.ARM.extab      0x000000000800d6d4        0x0
 *(.ARM.extab*)
 .ARM.extab     0x000000000800d6d4        0x0 /usr/bin/../lib/gcc/arm-none-eabi/4.9.3/armv7-m/libgcc.a(_divdi3.o)
 .ARM.extab     0x000000000800d6d4        0x0 /usr/bin/../lib/gcc/arm-none-eabi/4.9.3/armv7-m/libgcc.a(_udivdi3.o)
                0x000000000800d6d4                __exidx_start = ABSOLUTE (.)

.ARM.exidx      0x000000000800d6d4        0x8
 *(.ARM.exidx*)
 .ARM.exidx     0x000000000800d6d4        0x8 /usr/bin/../lib/gcc/arm-none-eabi/4.9.3/armv7-m/libgcc.a(_divdi3.o)
 .ARM.exidx     0x000000000800d6dc        0x0 /usr/bin/../lib/gcc/arm-none-eabi/4.9.3/armv7-m/libgcc.a(_udivdi3.o)
                                          0x8 (size before relaxing)
                0x000000000800d6dc                __exidx_end = ABSOLUTE (.)
                0x000000000800d6dc                _eronly = ABSOLUTE (.)

.rel.dyn        0x000000000800d6dc        0x0
 .rel.iplt      0x0000000000000000        0x0 src/modules/px4iofirmware/CMakeFiles/px4io-v2.dir/adc.c.obj

.data           0x0000000020000000      0x230 load address 0x000000000800d6dc
                0x0000000020000000                _sdata = ABSOLUTE (.)
 *(.data .data.*)
 .data          0x0000000020000000        0x0 src/modules/px4iofirmware/CMakeFiles/px4io-v2.dir/adc.c.obj
 .data          0x0000000020000000        0x0 src/modules/px4iofirmware/CMakeFiles/px4io-v2.dir/controls.c.obj
 .data._dsm_fd  0x0000000020000000        0x4 src/modules/px4iofirmware/CMakeFiles/px4io-v2.dir/controls.c.obj
 .data._sbus_fd
                0x0000000020000004        0x4 src/modules/px4iofirmware/CMakeFiles/px4io-v2.dir/controls.c.obj
                0x0000000020000004                _sbus_fd
 .data          0x0000000020000008        0x0 src/modules/px4iofirmware/CMakeFiles/px4io-v2.dir/px4io.c.obj
 .data.brightness.7158
                0x0000000020000008        0x4 src/modules/px4iofirmware/CMakeFiles/px4io-v2.dir/px4io.c.obj
 .data          0x000000002000000c        0x0 src/modules/px4iofirmware/CMakeFiles/px4io-v2.dir/registers.c.obj
 .data.r_page_servo_control_min
                0x000000002000000c       0x10 src/modules/px4iofirmware/CMakeFiles/px4io-v2.dir/registers.c.obj
                0x000000002000000c                r_page_servo_control_min
 .data.r_page_servo_control_max
                0x000000002000001c       0x10 src/modules/px4iofirmware/CMakeFiles/px4io-v2.dir/registers.c.obj
                0x000000002000001c                r_page_servo_control_max
 .data.r_page_setup
                0x000000002000002c       0x26 src/modules/px4iofirmware/CMakeFiles/px4io-v2.dir/registers.c.obj
                0x000000002000002c                r_page_setup
 .data          0x0000000020000052        0x0 src/modules/px4iofirmware/CMakeFiles/px4io-v2.dir/safety.c.obj
 .data          0x0000000020000052        0x0 src/modules/px4iofirmware/CMakeFiles/px4io-v2.dir/__/systemlib/up_cxxinitialize.c.obj
 .data          0x0000000020000052        0x0 src/modules/px4iofirmware/CMakeFiles/px4io-v2.dir/__/systemlib/perf_counter.c.obj
 .data          0x0000000020000052        0x0 src/modules/px4iofirmware/CMakeFiles/px4io-v2.dir/mixer.cpp.obj
 .data          0x0000000020000052        0x0 src/modules/px4iofirmware/CMakeFiles/px4io-v2.dir/__/systemlib/mixer/mixer.cpp.obj
 .data          0x0000000020000052        0x0 src/modules/px4iofirmware/CMakeFiles/px4io-v2.dir/__/systemlib/mixer/mixer_group.cpp.obj
 .data          0x0000000020000052        0x0 src/modules/px4iofirmware/CMakeFiles/px4io-v2.dir/__/systemlib/mixer/mixer_multirotor.cpp.obj
 .data          0x0000000020000052        0x0 src/modules/px4iofirmware/CMakeFiles/px4io-v2.dir/__/systemlib/mixer/mixer_simple.cpp.obj
 .data          0x0000000020000052        0x0 src/modules/px4iofirmware/CMakeFiles/px4io-v2.dir/__/systemlib/pwm_limit/pwm_limit.c.obj
 .data          0x0000000020000052        0x0 src/modules/px4iofirmware/CMakeFiles/px4io-v2.dir/__/__/lib/rc/st24.c.obj
 *fill*         0x0000000020000052        0x2 
 .data.decode_states
                0x0000000020000054       0x18 src/modules/px4iofirmware/CMakeFiles/px4io-v2.dir/__/__/lib/rc/st24.c.obj
                0x0000000020000054                decode_states
 .data          0x000000002000006c        0x0 src/modules/px4iofirmware/CMakeFiles/px4io-v2.dir/__/__/lib/rc/sumd.c.obj
 .data._sumd    0x000000002000006c        0x1 src/modules/px4iofirmware/CMakeFiles/px4io-v2.dir/__/__/lib/rc/sumd.c.obj
                0x000000002000006c                _sumd
 .data          0x000000002000006d        0x0 src/modules/px4iofirmware/CMakeFiles/px4io-v2.dir/__/__/lib/rc/sbus.c.obj
 *fill*         0x000000002000006d        0x1 
 .data.sbus_decode_state
                0x000000002000006e        0x2 src/modules/px4iofirmware/CMakeFiles/px4io-v2.dir/__/__/lib/rc/sbus.c.obj
 .data          0x0000000020000070        0x0 src/modules/px4iofirmware/CMakeFiles/px4io-v2.dir/__/__/lib/rc/dsm.c.obj
 .data.dsm_fd   0x0000000020000070        0x4 src/modules/px4iofirmware/CMakeFiles/px4io-v2.dir/__/__/lib/rc/dsm.c.obj
 .data          0x0000000020000074        0x0 src/modules/px4iofirmware/CMakeFiles/px4io-v2.dir/__/__/drivers/stm32/drv_hrt.c.obj
 .data          0x0000000020000074        0x0 src/modules/px4iofirmware/CMakeFiles/px4io-v2.dir/__/__/drivers/stm32/drv_io_timer.c.obj
 .data.channel_allocations
                0x0000000020000074        0x4 src/modules/px4iofirmware/CMakeFiles/px4io-v2.dir/__/__/drivers/stm32/drv_io_timer.c.obj
                0x0000000020000074                channel_allocations
 .data          0x0000000020000078        0x0 src/modules/px4iofirmware/CMakeFiles/px4io-v2.dir/__/__/drivers/stm32/drv_pwm_servo.c.obj
 .data          0x0000000020000078        0x0 src/modules/px4iofirmware/CMakeFiles/px4io-v2.dir/__/__/drivers/boards/px4io-v2/px4io_init.c.obj
 .data          0x0000000020000078        0x0 src/modules/px4iofirmware/CMakeFiles/px4io-v2.dir/__/__/drivers/boards/px4io-v2/px4io_timer_config.c.obj
 .data          0x0000000020000078        0x0 src/modules/px4iofirmware/CMakeFiles/px4io-v2.dir/serial.c.obj
 .data          0x0000000020000078        0x0 src/modules/px4iofirmware/CMakeFiles/px4io-v2.dir/__/systemlib/hx_stream.c.obj
 .data          0x0000000020000078        0x0 /home/tuofeichen/SLAM/MAV-Project/Firmware/build_px4fmu-v2_lpe/px4io-v2/NuttX/nuttx-export/libs/libnuttx.a(sched-irq_attach.o)
 .data          0x0000000020000078        0x0 /home/tuofeichen/SLAM/MAV-Project/Firmware/build_px4fmu-v2_lpe/px4io-v2/NuttX/nuttx-export/libs/libnuttx.a(sched-irq_initialize.o)
 .data          0x0000000020000078        0x0 /home/tuofeichen/SLAM/MAV-Project/Firmware/build_px4fmu-v2_lpe/px4io-v2/NuttX/nuttx-export/libs/libnuttx.a(sched-irq_unexpectedisr.o)
 .data          0x0000000020000078        0x0 /home/tuofeichen/SLAM/MAV-Project/Firmware/build_px4fmu-v2_lpe/px4io-v2/NuttX/nuttx-export/libs/libnuttx.a(c-lib_abort.o)
 .data          0x0000000020000078        0x0 /home/tuofeichen/SLAM/MAV-Project/Firmware/build_px4fmu-v2_lpe/px4io-v2/NuttX/nuttx-export/libs/libnuttx.a(c-lib_cfsetspeed.o)
 .data          0x0000000020000078        0x0 /home/tuofeichen/SLAM/MAV-Project/Firmware/build_px4fmu-v2_lpe/px4io-v2/NuttX/nuttx-export/libs/libnuttx.a(c-lib_crc32.o)
 .data          0x0000000020000078        0x0 /home/tuofeichen/SLAM/MAV-Project/Firmware/build_px4fmu-v2_lpe/px4io-v2/NuttX/nuttx-export/libs/libnuttx.a(c-lib_dprintf.o)
 .data          0x0000000020000078        0x0 /home/tuofeichen/SLAM/MAV-Project/Firmware/build_px4fmu-v2_lpe/px4io-v2/NuttX/nuttx-export/libs/libnuttx.a(c-lib_lowsyslog.o)
 .data          0x0000000020000078        0x0 /home/tuofeichen/SLAM/MAV-Project/Firmware/build_px4fmu-v2_lpe/px4io-v2/NuttX/nuttx-export/libs/libnuttx.a(c-lib_memchr.o)
 .data          0x0000000020000078        0x0 /home/tuofeichen/SLAM/MAV-Project/Firmware/build_px4fmu-v2_lpe/px4io-v2/NuttX/nuttx-export/libs/libnuttx.a(c-lib_memcpy.o)
 .data          0x0000000020000078        0x0 /home/tuofeichen/SLAM/MAV-Project/Firmware/build_px4fmu-v2_lpe/px4io-v2/NuttX/nuttx-export/libs/libnuttx.a(c-lib_memset.o)
 .data          0x0000000020000078        0x0 /home/tuofeichen/SLAM/MAV-Project/Firmware/build_px4fmu-v2_lpe/px4io-v2/NuttX/nuttx-export/libs/libnuttx.a(c-lib_printf.o)
 .data          0x0000000020000078        0x0 /home/tuofeichen/SLAM/MAV-Project/Firmware/build_px4fmu-v2_lpe/px4io-v2/NuttX/nuttx-export/libs/libnuttx.a(c-lib_sscanf.o)
 .data          0x0000000020000078        0x0 /home/tuofeichen/SLAM/MAV-Project/Firmware/build_px4fmu-v2_lpe/px4io-v2/NuttX/nuttx-export/libs/libnuttx.a(c-lib_strchr.o)
 .data          0x0000000020000078        0x0 /home/tuofeichen/SLAM/MAV-Project/Firmware/build_px4fmu-v2_lpe/px4io-v2/NuttX/nuttx-export/libs/libnuttx.a(c-lib_strcmp.o)
 .data          0x0000000020000078        0x0 /home/tuofeichen/SLAM/MAV-Project/Firmware/build_px4fmu-v2_lpe/px4io-v2/NuttX/nuttx-export/libs/libnuttx.a(c-lib_strcspn.o)
 .data          0x0000000020000078        0x0 /home/tuofeichen/SLAM/MAV-Project/Firmware/build_px4fmu-v2_lpe/px4io-v2/NuttX/nuttx-export/libs/libnuttx.a(c-lib_strncpy.o)
 .data          0x0000000020000078        0x0 /home/tuofeichen/SLAM/MAV-Project/Firmware/build_px4fmu-v2_lpe/px4io-v2/NuttX/nuttx-export/libs/libnuttx.a(c-lib_strtol.o)
 .data          0x0000000020000078        0x0 /home/tuofeichen/SLAM/MAV-Project/Firmware/build_px4fmu-v2_lpe/px4io-v2/NuttX/nuttx-export/libs/libnuttx.a(c-lib_strtoul.o)
 .data          0x0000000020000078        0x0 /home/tuofeichen/SLAM/MAV-Project/Firmware/build_px4fmu-v2_lpe/px4io-v2/NuttX/nuttx-export/libs/libnuttx.a(c-lib_syslog.o)
 .data          0x0000000020000078        0x0 /home/tuofeichen/SLAM/MAV-Project/Firmware/build_px4fmu-v2_lpe/px4io-v2/NuttX/nuttx-export/libs/libnuttx.a(c-lib_tcgetattr.o)
 .data          0x0000000020000078        0x0 /home/tuofeichen/SLAM/MAV-Project/Firmware/build_px4fmu-v2_lpe/px4io-v2/NuttX/nuttx-export/libs/libnuttx.a(c-lib_tcsetattr.o)
 .data          0x0000000020000078        0x0 /home/tuofeichen/SLAM/MAV-Project/Firmware/build_px4fmu-v2_lpe/px4io-v2/NuttX/nuttx-export/libs/libnuttx.a(c-lib_vdprintf.o)
 .data          0x0000000020000078        0x0 /home/tuofeichen/SLAM/MAV-Project/Firmware/build_px4fmu-v2_lpe/px4io-v2/NuttX/nuttx-export/libs/libnuttx.a(c-lib_vsnprintf.o)
 .data          0x0000000020000078        0x0 /home/tuofeichen/SLAM/MAV-Project/Firmware/build_px4fmu-v2_lpe/px4io-v2/NuttX/nuttx-export/libs/libnuttx.a(c-sq_addafter.o)
 .data          0x0000000020000078        0x0 /home/tuofeichen/SLAM/MAV-Project/Firmware/build_px4fmu-v2_lpe/px4io-v2/NuttX/nuttx-export/libs/libnuttx.a(c-sq_addfirst.o)
 .data          0x0000000020000078        0x0 /home/tuofeichen/SLAM/MAV-Project/Firmware/build_px4fmu-v2_lpe/px4io-v2/NuttX/nuttx-export/libs/libnuttx.a(c-sq_addlast.o)
 .data          0x0000000020000078        0x0 /home/tuofeichen/SLAM/MAV-Project/Firmware/build_px4fmu-v2_lpe/px4io-v2/NuttX/nuttx-export/libs/libnuttx.a(c-sq_rem.o)
 .data          0x0000000020000078        0x0 /home/tuofeichen/SLAM/MAV-Project/Firmware/build_px4fmu-v2_lpe/px4io-v2/NuttX/nuttx-export/libs/libnuttx.a(mm-mm_calloc.o)
 .data          0x0000000020000078        0x0 /home/tuofeichen/SLAM/MAV-Project/Firmware/build_px4fmu-v2_lpe/px4io-v2/NuttX/nuttx-export/libs/libnuttx.a(mm-mm_free.o)
 .data          0x0000000020000078        0x0 /home/tuofeichen/SLAM/MAV-Project/Firmware/build_px4fmu-v2_lpe/px4io-v2/NuttX/nuttx-export/libs/libnuttx.a(mm-mm_mallinfo.o)
 .data          0x0000000020000078        0x0 /home/tuofeichen/SLAM/MAV-Project/Firmware/build_px4fmu-v2_lpe/px4io-v2/NuttX/nuttx-export/libs/libnuttx.a(mm-mm_malloc.o)
 .data          0x0000000020000078        0x0 /home/tuofeichen/SLAM/MAV-Project/Firmware/build_px4fmu-v2_lpe/px4io-v2/NuttX/nuttx-export/libs/libnuttx.a(mm-mm_sem.o)
 .data          0x0000000020000078        0x0 /home/tuofeichen/SLAM/MAV-Project/Firmware/build_px4fmu-v2_lpe/px4io-v2/NuttX/nuttx-export/libs/libnuttx.a(mm-mm_size2ndx.o)
 .data          0x0000000020000078        0x0 /home/tuofeichen/SLAM/MAV-Project/Firmware/build_px4fmu-v2_lpe/px4io-v2/NuttX/nuttx-export/libs/libnuttx.a(mm-mm_user.o)
 .data          0x0000000020000078        0x0 /home/tuofeichen/SLAM/MAV-Project/Firmware/build_px4fmu-v2_lpe/px4io-v2/NuttX/nuttx-export/libs/libnuttx.a(mm-mm_zalloc.o)
 .data          0x0000000020000078        0x0 /home/tuofeichen/SLAM/MAV-Project/Firmware/build_px4fmu-v2_lpe/px4io-v2/NuttX/nuttx-export/libs/libnuttx.a(arch-stm32_dma.o)
 .data.g_dma    0x0000000020000078       0x70 /home/tuofeichen/SLAM/MAV-Project/Firmware/build_px4fmu-v2_lpe/px4io-v2/NuttX/nuttx-export/libs/libnuttx.a(arch-stm32_dma.o)
 .data          0x00000000200000e8        0x0 /home/tuofeichen/SLAM/MAV-Project/Firmware/build_px4fmu-v2_lpe/px4io-v2/NuttX/nuttx-export/libs/libnuttx.a(arch-stm32_gpio.o)
 .data          0x00000000200000e8        0x0 /home/tuofeichen/SLAM/MAV-Project/Firmware/build_px4fmu-v2_lpe/px4io-v2/NuttX/nuttx-export/libs/libnuttx.a(arch-stm32_irq.o)
 .data          0x00000000200000e8        0x0 /home/tuofeichen/SLAM/MAV-Project/Firmware/build_px4fmu-v2_lpe/px4io-v2/NuttX/nuttx-export/libs/libnuttx.a(arch-stm32_serial.o)
 .data.g_usart1priv
                0x00000000200000e8       0x6c /home/tuofeichen/SLAM/MAV-Project/Firmware/build_px4fmu-v2_lpe/px4io-v2/NuttX/nuttx-export/libs/libnuttx.a(arch-stm32_serial.o)
 .data.g_usart2priv
                0x0000000020000154       0x6c /home/tuofeichen/SLAM/MAV-Project/Firmware/build_px4fmu-v2_lpe/px4io-v2/NuttX/nuttx-export/libs/libnuttx.a(arch-stm32_serial.o)
 .data.g_usart3priv
                0x00000000200001c0       0x6c /home/tuofeichen/SLAM/MAV-Project/Firmware/build_px4fmu-v2_lpe/px4io-v2/NuttX/nuttx-export/libs/libnuttx.a(arch-stm32_serial.o)
 .data          0x000000002000022c        0x0 /home/tuofeichen/SLAM/MAV-Project/Firmware/build_px4fmu-v2_lpe/px4io-v2/NuttX/nuttx-export/libs/libnuttx.a(arch-stm32_start.o)
 .data          0x000000002000022c        0x0 /home/tuofeichen/SLAM/MAV-Project/Firmware/build_px4fmu-v2_lpe/px4io-v2/NuttX/nuttx-export/libs/libnuttx.a(arch-up_assert.o)
 .data          0x000000002000022c        0x0 /home/tuofeichen/SLAM/MAV-Project/Firmware/build_px4fmu-v2_lpe/px4io-v2/NuttX/nuttx-export/libs/libnuttx.a(arch-up_hardfault.o)
 .data          0x000000002000022c        0x0 /home/tuofeichen/SLAM/MAV-Project/Firmware/build_px4fmu-v2_lpe/px4io-v2/NuttX/nuttx-export/libs/libnuttx.a(arch-up_modifyreg32.o)
 .data          0x000000002000022c        0x0 /home/tuofeichen/SLAM/MAV-Project/Firmware/build_px4fmu-v2_lpe/px4io-v2/NuttX/nuttx-export/libs/libnuttx.a(arch-up_svcall.o)
 .data          0x000000002000022c        0x0 /home/tuofeichen/SLAM/MAV-Project/Firmware/build_px4fmu-v2_lpe/px4io-v2/NuttX/nuttx-export/libs/libnuttx.a(arch-up_systemreset.o)
 .data          0x000000002000022c        0x0 /home/tuofeichen/SLAM/MAV-Project/Firmware/build_px4fmu-v2_lpe/px4io-v2/NuttX/nuttx-export/libs/libnuttx.a(arch-up_udelay.o)
 .data          0x000000002000022c        0x0 /home/tuofeichen/SLAM/MAV-Project/Firmware/build_px4fmu-v2_lpe/px4io-v2/NuttX/nuttx-export/libs/libnuttx.a(arch-up_vectors.o)
 .data          0x000000002000022c        0x0 /home/tuofeichen/SLAM/MAV-Project/Firmware/build_px4fmu-v2_lpe/px4io-v2/NuttX/nuttx-export/libs/libnuttx.a(cxx-libxx_cxa_atexit.o)
 .data          0x000000002000022c        0x0 /home/tuofeichen/SLAM/MAV-Project/Firmware/build_px4fmu-v2_lpe/px4io-v2/NuttX/nuttx-export/libs/libnuttx.a(cxx-libxx_cxapurevirtual.o)
 .data          0x000000002000022c        0x0 /home/tuofeichen/SLAM/MAV-Project/Firmware/build_px4fmu-v2_lpe/px4io-v2/NuttX/nuttx-export/libs/libnuttx.a(cxx-libxx_delete.o)
 .data          0x000000002000022c        0x0 /home/tuofeichen/SLAM/MAV-Project/Firmware/build_px4fmu-v2_lpe/px4io-v2/NuttX/nuttx-export/libs/libnuttx.a(cxx-libxx_eabi_atexit.o)
 .data          0x000000002000022c        0x0 /home/tuofeichen/SLAM/MAV-Project/Firmware/build_px4fmu-v2_lpe/px4io-v2/NuttX/nuttx-export/libs/libnuttx.a(cxx-libxx_new.o)
 .data          0x000000002000022c        0x0 /home/tuofeichen/SLAM/MAV-Project/Firmware/build_px4fmu-v2_lpe/px4io-v2/NuttX/nuttx-export/libs/libnuttx.a(fs-fs_ioctl.o)
 .data          0x000000002000022c        0x0 /home/tuofeichen/SLAM/MAV-Project/Firmware/build_px4fmu-v2_lpe/px4io-v2/NuttX/nuttx-export/libs/libnuttx.a(fs-fs_open.o)
 .data          0x000000002000022c        0x0 /home/tuofeichen/SLAM/MAV-Project/Firmware/build_px4fmu-v2_lpe/px4io-v2/NuttX/nuttx-export/libs/libnuttx.a(fs-fs_read.o)
 .data          0x000000002000022c        0x0 /home/tuofeichen/SLAM/MAV-Project/Firmware/build_px4fmu-v2_lpe/px4io-v2/NuttX/nuttx-export/libs/libnuttx.a(fs-fs_write.o)
 .data          0x000000002000022c        0x0 /home/tuofeichen/SLAM/MAV-Project/Firmware/build_px4fmu-v2_lpe/px4io-v2/NuttX/nuttx-export/libs/libnuttx.a(drivers-serialirq.o)
 .data          0x000000002000022c        0x0 /home/tuofeichen/SLAM/MAV-Project/Firmware/build_px4fmu-v2_lpe/px4io-v2/NuttX/nuttx-export/libs/libnuttx.a(drivers-serial.o)
 .data          0x000000002000022c        0x0 /home/tuofeichen/SLAM/MAV-Project/Firmware/build_px4fmu-v2_lpe/px4io-v2/NuttX/nuttx-export/libs/libnuttx.a(sched-errno_getptr.o)
 .data          0x000000002000022c        0x0 /home/tuofeichen/SLAM/MAV-Project/Firmware/build_px4fmu-v2_lpe/px4io-v2/NuttX/nuttx-export/libs/libnuttx.a(sched-exit.o)
 .data          0x000000002000022c        0x0 /home/tuofeichen/SLAM/MAV-Project/Firmware/build_px4fmu-v2_lpe/px4io-v2/NuttX/nuttx-export/libs/libnuttx.a(sched-getpid.o)
 .data          0x000000002000022c        0x0 /home/tuofeichen/SLAM/MAV-Project/Firmware/build_px4fmu-v2_lpe/px4io-v2/NuttX/nuttx-export/libs/libnuttx.a(sched-os_start.o)
 .data          0x000000002000022c        0x0 /home/tuofeichen/SLAM/MAV-Project/Firmware/build_px4fmu-v2_lpe/px4io-v2/NuttX/nuttx-export/libs/libnuttx.a(sched-sched_garbage.o)
 .data          0x000000002000022c        0x0 /home/tuofeichen/SLAM/MAV-Project/Firmware/build_px4fmu-v2_lpe/px4io-v2/NuttX/nuttx-export/libs/libnuttx.a(sched-sched_getfiles.o)
 .data          0x000000002000022c        0x0 /home/tuofeichen/SLAM/MAV-Project/Firmware/build_px4fmu-v2_lpe/px4io-v2/NuttX/nuttx-export/libs/libnuttx.a(sched-sem_post.o)
 .data          0x000000002000022c        0x0 /home/tuofeichen/SLAM/MAV-Project/Firmware/build_px4fmu-v2_lpe/px4io-v2/NuttX/nuttx-export/libs/libnuttx.a(sched-sem_trywait.o)
 .data          0x000000002000022c        0x0 /home/tuofeichen/SLAM/MAV-Project/Firmware/build_px4fmu-v2_lpe/px4io-v2/NuttX/nuttx-export/libs/libnuttx.a(sched-sem_wait.o)
 .data          0x000000002000022c        0x0 /home/tuofeichen/SLAM/MAV-Project/Firmware/build_px4fmu-v2_lpe/px4io-v2/NuttX/nuttx-export/libs/libnuttx.a(sched-task_exithook.o)
 .data          0x000000002000022c        0x0 /home/tuofeichen/SLAM/MAV-Project/Firmware/build_px4fmu-v2_lpe/px4io-v2/NuttX/nuttx-export/libs/libnuttx.a(sched-task_recover.o)
 .data          0x000000002000022c        0x0 /home/tuofeichen/SLAM/MAV-Project/Firmware/build_px4fmu-v2_lpe/px4io-v2/NuttX/nuttx-export/libs/libnuttx.a(sched-wd_cancel.o)
 .data          0x000000002000022c        0x0 /home/tuofeichen/SLAM/MAV-Project/Firmware/build_px4fmu-v2_lpe/px4io-v2/NuttX/nuttx-export/libs/libnuttx.a(sched-wd_delete.o)
 .data          0x000000002000022c        0x0 /home/tuofeichen/SLAM/MAV-Project/Firmware/build_px4fmu-v2_lpe/px4io-v2/NuttX/nuttx-export/libs/libnuttx.a(sched-wd_initialize.o)
 .data          0x000000002000022c        0x0 /home/tuofeichen/SLAM/MAV-Project/Firmware/build_px4fmu-v2_lpe/px4io-v2/NuttX/nuttx-export/libs/libnuttx.a(c-dq_addfirst.o)
 .data          0x000000002000022c        0x0 /home/tuofeichen/SLAM/MAV-Project/Firmware/build_px4fmu-v2_lpe/px4io-v2/NuttX/nuttx-export/libs/libnuttx.a(c-lib_cfgetspeed.o)
 .data          0x000000002000022c        0x0 /home/tuofeichen/SLAM/MAV-Project/Firmware/build_px4fmu-v2_lpe/px4io-v2/NuttX/nuttx-export/libs/libnuttx.a(c-lib_checkbase.o)
 .data          0x000000002000022c        0x0 /home/tuofeichen/SLAM/MAV-Project/Firmware/build_px4fmu-v2_lpe/px4io-v2/NuttX/nuttx-export/libs/libnuttx.a(c-lib_isbasedigit.o)
 .data          0x000000002000022c        0x0 /home/tuofeichen/SLAM/MAV-Project/Firmware/build_px4fmu-v2_lpe/px4io-v2/NuttX/nuttx-export/libs/libnuttx.a(c-lib_libvsprintf.o)
 .data          0x000000002000022c        0x0 /home/tuofeichen/SLAM/MAV-Project/Firmware/build_px4fmu-v2_lpe/px4io-v2/NuttX/nuttx-export/libs/libnuttx.a(c-lib_lowoutstream.o)
 .data          0x000000002000022c        0x0 /home/tuofeichen/SLAM/MAV-Project/Firmware/build_px4fmu-v2_lpe/px4io-v2/NuttX/nuttx-export/libs/libnuttx.a(c-lib_memoutstream.o)
 .data          0x000000002000022c        0x0 /home/tuofeichen/SLAM/MAV-Project/Firmware/build_px4fmu-v2_lpe/px4io-v2/NuttX/nuttx-export/libs/libnuttx.a(c-lib_nulloutstream.o)
 .data          0x000000002000022c        0x0 /home/tuofeichen/SLAM/MAV-Project/Firmware/build_px4fmu-v2_lpe/px4io-v2/NuttX/nuttx-export/libs/libnuttx.a(c-lib_rawoutstream.o)
 .data          0x000000002000022c        0x0 /home/tuofeichen/SLAM/MAV-Project/Firmware/build_px4fmu-v2_lpe/px4io-v2/NuttX/nuttx-export/libs/libnuttx.a(c-lib_skipspace.o)
 .data          0x000000002000022c        0x0 /home/tuofeichen/SLAM/MAV-Project/Firmware/build_px4fmu-v2_lpe/px4io-v2/NuttX/nuttx-export/libs/libnuttx.a(c-lib_strcpy.o)
 .data          0x000000002000022c        0x0 /home/tuofeichen/SLAM/MAV-Project/Firmware/build_px4fmu-v2_lpe/px4io-v2/NuttX/nuttx-export/libs/libnuttx.a(c-lib_strlen.o)
 .data          0x000000002000022c        0x0 /home/tuofeichen/SLAM/MAV-Project/Firmware/build_px4fmu-v2_lpe/px4io-v2/NuttX/nuttx-export/libs/libnuttx.a(c-sem_init.o)
 .data          0x000000002000022c        0x0 /home/tuofeichen/SLAM/MAV-Project/Firmware/build_px4fmu-v2_lpe/px4io-v2/NuttX/nuttx-export/libs/libnuttx.a(c-sq_remafter.o)
 .data          0x000000002000022c        0x0 /home/tuofeichen/SLAM/MAV-Project/Firmware/build_px4fmu-v2_lpe/px4io-v2/NuttX/nuttx-export/libs/libnuttx.a(c-sq_remfirst.o)
 .data          0x000000002000022c        0x0 /home/tuofeichen/SLAM/MAV-Project/Firmware/build_px4fmu-v2_lpe/px4io-v2/NuttX/nuttx-export/libs/libnuttx.a(mm-mm_addfreechunk.o)
 .data          0x000000002000022c        0x0 /home/tuofeichen/SLAM/MAV-Project/Firmware/build_px4fmu-v2_lpe/px4io-v2/NuttX/nuttx-export/libs/libnuttx.a(mm-mm_initialize.o)
 .data          0x000000002000022c        0x0 /home/tuofeichen/SLAM/MAV-Project/Firmware/build_px4fmu-v2_lpe/px4io-v2/NuttX/nuttx-export/libs/libnuttx.a(arch-stm32_allocateheap.o)
 .data          0x000000002000022c        0x0 /home/tuofeichen/SLAM/MAV-Project/Firmware/build_px4fmu-v2_lpe/px4io-v2/NuttX/nuttx-export/libs/libnuttx.a(arch-stm32_idle.o)
 .data          0x000000002000022c        0x0 /home/tuofeichen/SLAM/MAV-Project/Firmware/build_px4fmu-v2_lpe/px4io-v2/NuttX/nuttx-export/libs/libnuttx.a(arch-stm32_lowputc.o)
 .data          0x000000002000022c        0x0 /home/tuofeichen/SLAM/MAV-Project/Firmware/build_px4fmu-v2_lpe/px4io-v2/NuttX/nuttx-export/libs/libnuttx.a(arch-stm32_rcc.o)
 .data          0x000000002000022c        0x0 /home/tuofeichen/SLAM/MAV-Project/Firmware/build_px4fmu-v2_lpe/px4io-v2/NuttX/nuttx-export/libs/libnuttx.a(arch-stm32_vectors.o)
 .data          0x000000002000022c        0x0 /home/tuofeichen/SLAM/MAV-Project/Firmware/build_px4fmu-v2_lpe/px4io-v2/NuttX/nuttx-export/libs/libnuttx.a(arch-up_blocktask.o)
 .data          0x000000002000022c        0x0 /home/tuofeichen/SLAM/MAV-Project/Firmware/build_px4fmu-v2_lpe/px4io-v2/NuttX/nuttx-export/libs/libnuttx.a(arch-up_copystate.o)
 .data          0x000000002000022c        0x0 /home/tuofeichen/SLAM/MAV-Project/Firmware/build_px4fmu-v2_lpe/px4io-v2/NuttX/nuttx-export/libs/libnuttx.a(arch-up_exception.o)
 .data          0x000000002000022c        0x0 /home/tuofeichen/SLAM/MAV-Project/Firmware/build_px4fmu-v2_lpe/px4io-v2/NuttX/nuttx-export/libs/libnuttx.a(arch-up_exit.o)
 .data          0x000000002000022c        0x0 /home/tuofeichen/SLAM/MAV-Project/Firmware/build_px4fmu-v2_lpe/px4io-v2/NuttX/nuttx-export/libs/libnuttx.a(arch-up_fullcontextrestore.o)
 .data          0x000000002000022c        0x0 /home/tuofeichen/SLAM/MAV-Project/Firmware/build_px4fmu-v2_lpe/px4io-v2/NuttX/nuttx-export/libs/libnuttx.a(arch-up_initialize.o)
 .data          0x000000002000022c        0x0 /home/tuofeichen/SLAM/MAV-Project/Firmware/build_px4fmu-v2_lpe/px4io-v2/NuttX/nuttx-export/libs/libnuttx.a(arch-up_initialstate.o)
 .data          0x000000002000022c        0x0 /home/tuofeichen/SLAM/MAV-Project/Firmware/build_px4fmu-v2_lpe/px4io-v2/NuttX/nuttx-export/libs/libnuttx.a(arch-up_interruptcontext.o)
 .data          0x000000002000022c        0x0 /home/tuofeichen/SLAM/MAV-Project/Firmware/build_px4fmu-v2_lpe/px4io-v2/NuttX/nuttx-export/libs/libnuttx.a(arch-up_mdelay.o)
 .data          0x000000002000022c        0x0 /home/tuofeichen/SLAM/MAV-Project/Firmware/build_px4fmu-v2_lpe/px4io-v2/NuttX/nuttx-export/libs/libnuttx.a(arch-up_switchcontext.o)
 .data          0x000000002000022c        0x0 /home/tuofeichen/SLAM/MAV-Project/Firmware/build_px4fmu-v2_lpe/px4io-v2/NuttX/nuttx-export/libs/libnuttx.a(arch-up_unblocktask.o)
 .data          0x000000002000022c        0x0 /home/tuofeichen/SLAM/MAV-Project/Firmware/build_px4fmu-v2_lpe/px4io-v2/NuttX/nuttx-export/libs/libnuttx.a(fs-fs_files.o)
 .data          0x000000002000022c        0x0 /home/tuofeichen/SLAM/MAV-Project/Firmware/build_px4fmu-v2_lpe/px4io-v2/NuttX/nuttx-export/libs/libnuttx.a(fs-fs_inodeaddref.o)
 .data          0x000000002000022c        0x0 /home/tuofeichen/SLAM/MAV-Project/Firmware/build_px4fmu-v2_lpe/px4io-v2/NuttX/nuttx-export/libs/libnuttx.a(fs-fs_inodefind.o)
 .data          0x000000002000022c        0x0 /home/tuofeichen/SLAM/MAV-Project/Firmware/build_px4fmu-v2_lpe/px4io-v2/NuttX/nuttx-export/libs/libnuttx.a(fs-fs_inode.o)
 .data          0x000000002000022c        0x0 /home/tuofeichen/SLAM/MAV-Project/Firmware/build_px4fmu-v2_lpe/px4io-v2/NuttX/nuttx-export/libs/libnuttx.a(fs-fs_inoderelease.o)
 .data          0x000000002000022c        0x0 /home/tuofeichen/SLAM/MAV-Project/Firmware/build_px4fmu-v2_lpe/px4io-v2/NuttX/nuttx-export/libs/libnuttx.a(fs-fs_registerdriver.o)
 .data          0x000000002000022c        0x0 /home/tuofeichen/SLAM/MAV-Project/Firmware/build_px4fmu-v2_lpe/px4io-v2/NuttX/nuttx-export/libs/libnuttx.a(sched-group_create.o)
 .data          0x000000002000022c        0x0 /home/tuofeichen/SLAM/MAV-Project/Firmware/build_px4fmu-v2_lpe/px4io-v2/NuttX/nuttx-export/libs/libnuttx.a(sched-group_leave.o)
 .data          0x000000002000022c        0x0 /home/tuofeichen/SLAM/MAV-Project/Firmware/build_px4fmu-v2_lpe/px4io-v2/NuttX/nuttx-export/libs/libnuttx.a(sched-group_setupidlefiles.o)
 .data          0x000000002000022c        0x0 /home/tuofeichen/SLAM/MAV-Project/Firmware/build_px4fmu-v2_lpe/px4io-v2/NuttX/nuttx-export/libs/libnuttx.a(sched-os_bringup.o)
 .data          0x000000002000022c        0x0 /home/tuofeichen/SLAM/MAV-Project/Firmware/build_px4fmu-v2_lpe/px4io-v2/NuttX/nuttx-export/libs/libnuttx.a(sched-sched_addblocked.o)
 .data          0x000000002000022c        0x0 /home/tuofeichen/SLAM/MAV-Project/Firmware/build_px4fmu-v2_lpe/px4io-v2/NuttX/nuttx-export/libs/libnuttx.a(sched-sched_addprioritized.o)
 .data          0x000000002000022c        0x0 /home/tuofeichen/SLAM/MAV-Project/Firmware/build_px4fmu-v2_lpe/px4io-v2/NuttX/nuttx-export/libs/libnuttx.a(sched-sched_addreadytorun.o)
 .data          0x000000002000022c        0x0 /home/tuofeichen/SLAM/MAV-Project/Firmware/build_px4fmu-v2_lpe/px4io-v2/NuttX/nuttx-export/libs/libnuttx.a(sched-sched_free.o)
 .data          0x000000002000022c        0x0 /home/tuofeichen/SLAM/MAV-Project/Firmware/build_px4fmu-v2_lpe/px4io-v2/NuttX/nuttx-export/libs/libnuttx.a(sched-sched_mergepending.o)
 .data          0x000000002000022c        0x0 /home/tuofeichen/SLAM/MAV-Project/Firmware/build_px4fmu-v2_lpe/px4io-v2/NuttX/nuttx-export/libs/libnuttx.a(sched-sched_removeblocked.o)
 .data          0x000000002000022c        0x0 /home/tuofeichen/SLAM/MAV-Project/Firmware/build_px4fmu-v2_lpe/px4io-v2/NuttX/nuttx-export/libs/libnuttx.a(sched-sched_removereadytorun.o)
 .data          0x000000002000022c        0x0 /home/tuofeichen/SLAM/MAV-Project/Firmware/build_px4fmu-v2_lpe/px4io-v2/NuttX/nuttx-export/libs/libnuttx.a(sched-sem_destroy.o)
 .data          0x000000002000022c        0x0 /home/tuofeichen/SLAM/MAV-Project/Firmware/build_px4fmu-v2_lpe/px4io-v2/NuttX/nuttx-export/libs/libnuttx.a(sched-task_create.o)
 .data          0x000000002000022c        0x0 /home/tuofeichen/SLAM/MAV-Project/Firmware/build_px4fmu-v2_lpe/px4io-v2/NuttX/nuttx-export/libs/libnuttx.a(sched-task_exit.o)
 .data          0x000000002000022c        0x0 /home/tuofeichen/SLAM/MAV-Project/Firmware/build_px4fmu-v2_lpe/px4io-v2/NuttX/nuttx-export/libs/libnuttx.a(sched-task_setup.o)
 .data          0x000000002000022c        0x0 /home/tuofeichen/SLAM/MAV-Project/Firmware/build_px4fmu-v2_lpe/px4io-v2/NuttX/nuttx-export/libs/libnuttx.a(sched-task_start.o)
 .data          0x000000002000022c        0x0 /home/tuofeichen/SLAM/MAV-Project/Firmware/build_px4fmu-v2_lpe/px4io-v2/NuttX/nuttx-export/libs/libnuttx.a(sched-task_terminate.o)
 .data          0x000000002000022c        0x0 /home/tuofeichen/SLAM/MAV-Project/Firmware/build_px4fmu-v2_lpe/px4io-v2/NuttX/nuttx-export/libs/libnuttx.a(c-dq_addlast.o)
 .data          0x000000002000022c        0x0 /home/tuofeichen/SLAM/MAV-Project/Firmware/build_px4fmu-v2_lpe/px4io-v2/NuttX/nuttx-export/libs/libnuttx.a(c-dq_rem.o)
 .data          0x000000002000022c        0x0 /home/tuofeichen/SLAM/MAV-Project/Firmware/build_px4fmu-v2_lpe/px4io-v2/NuttX/nuttx-export/libs/libnuttx.a(c-lib_strdup.o)
 .data          0x000000002000022c        0x0 /home/tuofeichen/SLAM/MAV-Project/Firmware/build_px4fmu-v2_lpe/px4io-v2/NuttX/nuttx-export/libs/libnuttx.a(arch-stm32_timerisr.o)
 .data          0x000000002000022c        0x0 /home/tuofeichen/SLAM/MAV-Project/Firmware/build_px4fmu-v2_lpe/px4io-v2/NuttX/nuttx-export/libs/libnuttx.a(arch-up_createstack.o)
 .data          0x000000002000022c        0x0 /home/tuofeichen/SLAM/MAV-Project/Firmware/build_px4fmu-v2_lpe/px4io-v2/NuttX/nuttx-export/libs/libnuttx.a(arch-up_doirq.o)
 .data          0x000000002000022c        0x0 /home/tuofeichen/SLAM/MAV-Project/Firmware/build_px4fmu-v2_lpe/px4io-v2/NuttX/nuttx-export/libs/libnuttx.a(arch-up_releasestack.o)
 .data          0x000000002000022c        0x0 /home/tuofeichen/SLAM/MAV-Project/Firmware/build_px4fmu-v2_lpe/px4io-v2/NuttX/nuttx-export/libs/libnuttx.a(fs-fs_close.o)
 .data          0x000000002000022c        0x0 /home/tuofeichen/SLAM/MAV-Project/Firmware/build_px4fmu-v2_lpe/px4io-v2/NuttX/nuttx-export/libs/libnuttx.a(fs-fs_filedup2.o)
 .data          0x000000002000022c        0x0 /home/tuofeichen/SLAM/MAV-Project/Firmware/build_px4fmu-v2_lpe/px4io-v2/NuttX/nuttx-export/libs/libnuttx.a(fs-fs_inodereserve.o)
 .data          0x000000002000022c        0x0 /home/tuofeichen/SLAM/MAV-Project/Firmware/build_px4fmu-v2_lpe/px4io-v2/NuttX/nuttx-export/libs/libnuttx.a(sched-group_setuptaskfiles.o)
 .data          0x000000002000022c        0x0 /home/tuofeichen/SLAM/MAV-Project/Firmware/build_px4fmu-v2_lpe/px4io-v2/NuttX/nuttx-export/libs/libnuttx.a(sched-irq_dispatch.o)
 .data          0x000000002000022c        0x0 /home/tuofeichen/SLAM/MAV-Project/Firmware/build_px4fmu-v2_lpe/px4io-v2/NuttX/nuttx-export/libs/libnuttx.a(sched-sched_gettcb.o)
 .data          0x000000002000022c        0x0 /home/tuofeichen/SLAM/MAV-Project/Firmware/build_px4fmu-v2_lpe/px4io-v2/NuttX/nuttx-export/libs/libnuttx.a(sched-sched_lock.o)
 .data          0x000000002000022c        0x0 /home/tuofeichen/SLAM/MAV-Project/Firmware/build_px4fmu-v2_lpe/px4io-v2/NuttX/nuttx-export/libs/libnuttx.a(sched-sched_processtimer.o)
 .data          0x000000002000022c        0x0 /home/tuofeichen/SLAM/MAV-Project/Firmware/build_px4fmu-v2_lpe/px4io-v2/NuttX/nuttx-export/libs/libnuttx.a(sched-sched_releasetcb.o)
 .data          0x000000002000022c        0x0 /home/tuofeichen/SLAM/MAV-Project/Firmware/build_px4fmu-v2_lpe/px4io-v2/NuttX/nuttx-export/libs/libnuttx.a(sched-sched_unlock.o)
 .data          0x000000002000022c        0x0 /home/tuofeichen/SLAM/MAV-Project/Firmware/build_px4fmu-v2_lpe/px4io-v2/NuttX/nuttx-export/libs/libnuttx.a(sched-task_activate.o)
 .data          0x000000002000022c        0x0 /home/tuofeichen/SLAM/MAV-Project/Firmware/build_px4fmu-v2_lpe/px4io-v2/NuttX/nuttx-export/libs/libnuttx.a(arch-up_releasepending.o)
 .data          0x000000002000022c        0x0 /usr/bin/../lib/gcc/arm-none-eabi/4.9.3/../../../../arm-none-eabi/lib/armv7-m/libm.a(lib_a-sf_fmin.o)
 .data          0x000000002000022c        0x0 /usr/bin/../lib/gcc/arm-none-eabi/4.9.3/../../../../arm-none-eabi/lib/armv7-m/libm.a(lib_a-sf_fpclassify.o)
 .data          0x000000002000022c        0x0 /usr/bin/../lib/gcc/arm-none-eabi/4.9.3/../../../../arm-none-eabi/lib/armv7-m/libm.a(lib_a-wf_sqrt.o)
 .data          0x000000002000022c        0x0 /usr/bin/../lib/gcc/arm-none-eabi/4.9.3/../../../../arm-none-eabi/lib/armv7-m/libm.a(lib_a-ef_sqrt.o)
 .data          0x000000002000022c        0x0 /usr/bin/../lib/gcc/arm-none-eabi/4.9.3/../../../../arm-none-eabi/lib/armv7-m/libm.a(lib_a-s_lib_ver.o)
 .data.__fdlib_version
                0x000000002000022c        0x1 /usr/bin/../lib/gcc/arm-none-eabi/4.9.3/../../../../arm-none-eabi/lib/armv7-m/libm.a(lib_a-s_lib_ver.o)
                0x000000002000022c                __fdlib_version
 .data          0x000000002000022d        0x0 /usr/bin/../lib/gcc/arm-none-eabi/4.9.3/../../../../arm-none-eabi/lib/armv7-m/libm.a(lib_a-s_matherr.o)
 .data          0x000000002000022d        0x0 /usr/bin/../lib/gcc/arm-none-eabi/4.9.3/armv7-m/libgcc.a(_lshrdi3.o)
 .data          0x000000002000022d        0x0 /usr/bin/../lib/gcc/arm-none-eabi/4.9.3/armv7-m/libgcc.a(_arm_addsubdf3.o)
 .data          0x000000002000022d        0x0 /usr/bin/../lib/gcc/arm-none-eabi/4.9.3/armv7-m/libgcc.a(_arm_muldivdf3.o)
 .data          0x000000002000022d        0x0 /usr/bin/../lib/gcc/arm-none-eabi/4.9.3/armv7-m/libgcc.a(_arm_truncdfsf2.o)
 .data          0x000000002000022d        0x0 /usr/bin/../lib/gcc/arm-none-eabi/4.9.3/armv7-m/libgcc.a(_arm_addsubsf3.o)
 .data          0x000000002000022d        0x0 /usr/bin/../lib/gcc/arm-none-eabi/4.9.3/armv7-m/libgcc.a(_arm_muldivsf3.o)
 .data          0x000000002000022d        0x0 /usr/bin/../lib/gcc/arm-none-eabi/4.9.3/armv7-m/libgcc.a(_arm_cmpsf2.o)
 .data          0x000000002000022d        0x0 /usr/bin/../lib/gcc/arm-none-eabi/4.9.3/armv7-m/libgcc.a(_arm_unordsf2.o)
 .data          0x000000002000022d        0x0 /usr/bin/../lib/gcc/arm-none-eabi/4.9.3/armv7-m/libgcc.a(_arm_fixsfsi.o)
 .data          0x000000002000022d        0x0 /usr/bin/../lib/gcc/arm-none-eabi/4.9.3/armv7-m/libgcc.a(_arm_fixunssfsi.o)
 .data          0x000000002000022d        0x0 /usr/bin/../lib/gcc/arm-none-eabi/4.9.3/armv7-m/libgcc.a(_aeabi_uldivmod.o)
 .data          0x000000002000022d        0x0 /usr/bin/../lib/gcc/arm-none-eabi/4.9.3/armv7-m/libgcc.a(bpabi.o)
 .data          0x000000002000022d        0x0 /usr/bin/../lib/gcc/arm-none-eabi/4.9.3/armv7-m/libgcc.a(_dvmd_tls.o)
 .data          0x000000002000022d        0x0 /usr/bin/../lib/gcc/arm-none-eabi/4.9.3/armv7-m/libgcc.a(_divdi3.o)
 .data          0x000000002000022d        0x0 /usr/bin/../lib/gcc/arm-none-eabi/4.9.3/armv7-m/libgcc.a(_udivdi3.o)
 *(.gnu.linkonce.d.*)
                0x000000002000022d                _edata = ABSOLUTE (.)
                0x0000000020000230                . = ALIGN (0x4)
 *fill*         0x000000002000022d        0x3 

.igot.plt       0x0000000020000230        0x0 load address 0x000000000800d90c
 .igot.plt      0x0000000000000000        0x0 src/modules/px4iofirmware/CMakeFiles/px4io-v2.dir/adc.c.obj

.bss            0x0000000020000230      0xb6e load address 0x000000000800d90c
                0x0000000020000230                _sbss = ABSOLUTE (.)
 *(.bss .bss.*)
 .bss           0x0000000020000230        0x0 src/modules/px4iofirmware/CMakeFiles/px4io-v2.dir/adc.c.obj
 .bss.adc_perf  0x0000000020000230        0x4 src/modules/px4iofirmware/CMakeFiles/px4io-v2.dir/adc.c.obj
                0x0000000020000230                adc_perf
 .bss           0x0000000020000234        0x0 src/modules/px4iofirmware/CMakeFiles/px4io-v2.dir/controls.c.obj
 .bss.c_gather_dsm
                0x0000000020000234        0x4 src/modules/px4iofirmware/CMakeFiles/px4io-v2.dir/controls.c.obj
 .bss._rssi_adc_counts
                0x0000000020000238        0x4 src/modules/px4iofirmware/CMakeFiles/px4io-v2.dir/controls.c.obj
 .bss.c_gather_ppm
                0x000000002000023c        0x4 src/modules/px4iofirmware/CMakeFiles/px4io-v2.dir/controls.c.obj
 .bss.rc_value_override
                0x0000000020000240        0x2 src/modules/px4iofirmware/CMakeFiles/px4io-v2.dir/controls.c.obj
 *fill*         0x0000000020000242        0x2 
 .bss.c_gather_sbus
                0x0000000020000244        0x4 src/modules/px4iofirmware/CMakeFiles/px4io-v2.dir/controls.c.obj
 .bss           0x0000000020000248        0x0 src/modules/px4iofirmware/CMakeFiles/px4io-v2.dir/px4io.c.obj
 .bss.last_msg_counter
                0x0000000020000248        0x4 src/modules/px4iofirmware/CMakeFiles/px4io-v2.dir/px4io.c.obj
 *fill*         0x000000002000024c        0x4 
 .bss.system_state
                0x0000000020000250       0x18 src/modules/px4iofirmware/CMakeFiles/px4io-v2.dir/px4io.c.obj
                0x0000000020000250                system_state
 .bss.msg_next_out
                0x0000000020000268        0x1 src/modules/px4iofirmware/CMakeFiles/px4io-v2.dir/px4io.c.obj
 *fill*         0x0000000020000269        0x7 
 .bss.serial_dma_call
                0x0000000020000270       0x20 src/modules/px4iofirmware/CMakeFiles/px4io-v2.dir/px4io.c.obj
 .bss.on_counter.7160
                0x0000000020000290        0x4 src/modules/px4iofirmware/CMakeFiles/px4io-v2.dir/px4io.c.obj
 .bss.msg_counter
                0x0000000020000294        0x4 src/modules/px4iofirmware/CMakeFiles/px4io-v2.dir/px4io.c.obj
 .bss.msg       0x0000000020000298       0x28 src/modules/px4iofirmware/CMakeFiles/px4io-v2.dir/px4io.c.obj
 .bss.msg_next_in
                0x00000000200002c0        0x1 src/modules/px4iofirmware/CMakeFiles/px4io-v2.dir/px4io.c.obj
 *fill*         0x00000000200002c1        0x7 
 .bss.pwm_limit
                0x00000000200002c8       0x10 src/modules/px4iofirmware/CMakeFiles/px4io-v2.dir/px4io.c.obj
                0x00000000200002c8                pwm_limit
 .bss.heartbeat.7152
                0x00000000200002d8        0x1 src/modules/px4iofirmware/CMakeFiles/px4io-v2.dir/px4io.c.obj
 *fill*         0x00000000200002d9        0x3 
 .bss.brightness_counter.7159
                0x00000000200002dc        0x4 src/modules/px4iofirmware/CMakeFiles/px4io-v2.dir/px4io.c.obj
 .bss.counter.7157
                0x00000000200002e0        0x4 src/modules/px4iofirmware/CMakeFiles/px4io-v2.dir/px4io.c.obj
 *fill*         0x00000000200002e4        0x4 
 .bss.reboot_time
                0x00000000200002e8        0x8 src/modules/px4iofirmware/CMakeFiles/px4io-v2.dir/px4io.c.obj
 .bss           0x00000000200002f0        0x0 src/modules/px4iofirmware/CMakeFiles/px4io-v2.dir/registers.c.obj
 .bss.r_page_rc_input
                0x00000000200002f0       0x14 src/modules/px4iofirmware/CMakeFiles/px4io-v2.dir/registers.c.obj
                0x00000000200002f0                r_page_rc_input
 .bss.r_page_scratch
                0x0000000020000304       0x40 src/modules/px4iofirmware/CMakeFiles/px4io-v2.dir/registers.c.obj
                0x0000000020000304                r_page_scratch
 .bss.r_page_servos
                0x0000000020000344       0x10 src/modules/px4iofirmware/CMakeFiles/px4io-v2.dir/registers.c.obj
                0x0000000020000344                r_page_servos
 .bss.last_offset
                0x0000000020000354        0x1 src/modules/px4iofirmware/CMakeFiles/px4io-v2.dir/registers.c.obj
                0x0000000020000354                last_offset
 *fill*         0x0000000020000355        0x3 
 .bss.r_page_status
                0x0000000020000358       0x14 src/modules/px4iofirmware/CMakeFiles/px4io-v2.dir/registers.c.obj
                0x0000000020000358                r_page_status
 .bss.r_page_rc_input_config
                0x000000002000036c       0xd8 src/modules/px4iofirmware/CMakeFiles/px4io-v2.dir/registers.c.obj
                0x000000002000036c                r_page_rc_input_config
 .bss.r_page_servo_disarmed
                0x0000000020000444       0x10 src/modules/px4iofirmware/CMakeFiles/px4io-v2.dir/registers.c.obj
                0x0000000020000444                r_page_servo_disarmed
 .bss.r_page_controls
                0x0000000020000454       0x40 src/modules/px4iofirmware/CMakeFiles/px4io-v2.dir/registers.c.obj
                0x0000000020000454                r_page_controls
 .bss.r_page_servo_failsafe
                0x0000000020000494       0x10 src/modules/px4iofirmware/CMakeFiles/px4io-v2.dir/registers.c.obj
                0x0000000020000494                r_page_servo_failsafe
 .bss.r_page_raw_rc_input
                0x00000000200004a4       0x32 src/modules/px4iofirmware/CMakeFiles/px4io-v2.dir/registers.c.obj
                0x00000000200004a4                r_page_raw_rc_input
 .bss.last_page
                0x00000000200004d6        0x1 src/modules/px4iofirmware/CMakeFiles/px4io-v2.dir/registers.c.obj
                0x00000000200004d6                last_page
 *fill*         0x00000000200004d7        0x1 
 .bss.r_page_actuators
                0x00000000200004d8       0x10 src/modules/px4iofirmware/CMakeFiles/px4io-v2.dir/registers.c.obj
                0x00000000200004d8                r_page_actuators
 .bss           0x00000000200004e8        0x0 src/modules/px4iofirmware/CMakeFiles/px4io-v2.dir/safety.c.obj
 .bss.arming_call
                0x00000000200004e8       0x20 src/modules/px4iofirmware/CMakeFiles/px4io-v2.dir/safety.c.obj
 .bss.blink_counter
                0x0000000020000508        0x4 src/modules/px4iofirmware/CMakeFiles/px4io-v2.dir/safety.c.obj
 .bss.safety_button_pressed
                0x000000002000050c        0x1 src/modules/px4iofirmware/CMakeFiles/px4io-v2.dir/safety.c.obj
 .bss.failsafe.5455
                0x000000002000050d        0x1 src/modules/px4iofirmware/CMakeFiles/px4io-v2.dir/safety.c.obj
 *fill*         0x000000002000050e        0x2 
 .bss.failsafe_call
                0x0000000020000510       0x20 src/modules/px4iofirmware/CMakeFiles/px4io-v2.dir/safety.c.obj
 .bss.counter   0x0000000020000530        0x4 src/modules/px4iofirmware/CMakeFiles/px4io-v2.dir/safety.c.obj
 .bss           0x0000000020000534        0x0 src/modules/px4iofirmware/CMakeFiles/px4io-v2.dir/__/systemlib/up_cxxinitialize.c.obj
 .bss           0x0000000020000534        0x0 src/modules/px4iofirmware/CMakeFiles/px4io-v2.dir/__/systemlib/perf_counter.c.obj
 .bss.perf_counters
                0x0000000020000534        0x8 src/modules/px4iofirmware/CMakeFiles/px4io-v2.dir/__/systemlib/perf_counter.c.obj
 .bss           0x000000002000053c        0x0 src/modules/px4iofirmware/CMakeFiles/px4io-v2.dir/mixer.cpp.obj
 .bss._ZL11mixer_group
                0x000000002000053c       0x14 src/modules/px4iofirmware/CMakeFiles/px4io-v2.dir/mixer.cpp.obj
 .bss._ZL17mixer_text_length
                0x0000000020000550        0x4 src/modules/px4iofirmware/CMakeFiles/px4io-v2.dir/mixer.cpp.obj
 .bss._ZL10should_arm
                0x0000000020000554        0x1 src/modules/px4iofirmware/CMakeFiles/px4io-v2.dir/mixer.cpp.obj
 .bss._ZL21should_arm_nothrottle
                0x0000000020000555        0x1 src/modules/px4iofirmware/CMakeFiles/px4io-v2.dir/mixer.cpp.obj
 .bss._ZL18mixer_servos_armed
                0x0000000020000556        0x1 src/modules/px4iofirmware/CMakeFiles/px4io-v2.dir/mixer.cpp.obj
 .bss._ZL24should_always_enable_pwm
                0x0000000020000557        0x1 src/modules/px4iofirmware/CMakeFiles/px4io-v2.dir/mixer.cpp.obj
 .bss._ZL10mixer_text
                0x0000000020000558       0xc8 src/modules/px4iofirmware/CMakeFiles/px4io-v2.dir/mixer.cpp.obj
 .bss._ZL8in_mixer
                0x0000000020000620        0x1 src/modules/px4iofirmware/CMakeFiles/px4io-v2.dir/mixer.cpp.obj
 .bss._ZL6source
                0x0000000020000621        0x1 src/modules/px4iofirmware/CMakeFiles/px4io-v2.dir/mixer.cpp.obj
 .bss           0x0000000020000622        0x0 src/modules/px4iofirmware/CMakeFiles/px4io-v2.dir/__/systemlib/mixer/mixer.cpp.obj
 .bss           0x0000000020000622        0x0 src/modules/px4iofirmware/CMakeFiles/px4io-v2.dir/__/systemlib/mixer/mixer_group.cpp.obj
 .bss           0x0000000020000622        0x0 src/modules/px4iofirmware/CMakeFiles/px4io-v2.dir/__/systemlib/mixer/mixer_multirotor.cpp.obj
 .bss           0x0000000020000622        0x0 src/modules/px4iofirmware/CMakeFiles/px4io-v2.dir/__/systemlib/mixer/mixer_simple.cpp.obj
 .bss           0x0000000020000622        0x0 src/modules/px4iofirmware/CMakeFiles/px4io-v2.dir/__/systemlib/pwm_limit/pwm_limit.c.obj
 .bss           0x0000000020000622        0x0 src/modules/px4iofirmware/CMakeFiles/px4io-v2.dir/__/__/lib/rc/st24.c.obj
 *fill*         0x0000000020000622        0x2 
 .bss._rxpacket
                0x0000000020000624       0x45 src/modules/px4iofirmware/CMakeFiles/px4io-v2.dir/__/__/lib/rc/st24.c.obj
 .bss._decode_state
                0x0000000020000669        0x1 src/modules/px4iofirmware/CMakeFiles/px4io-v2.dir/__/__/lib/rc/st24.c.obj
 .bss._rxlen    0x000000002000066a        0x1 src/modules/px4iofirmware/CMakeFiles/px4io-v2.dir/__/__/lib/rc/st24.c.obj
 .bss           0x000000002000066b        0x0 src/modules/px4iofirmware/CMakeFiles/px4io-v2.dir/__/__/lib/rc/sumd.c.obj
 *fill*         0x000000002000066b        0x1 
 .bss._crc16    0x000000002000066c        0x2 src/modules/px4iofirmware/CMakeFiles/px4io-v2.dir/__/__/lib/rc/sumd.c.obj
                0x000000002000066c                _crc16
 .bss._crc8     0x000000002000066e        0x1 src/modules/px4iofirmware/CMakeFiles/px4io-v2.dir/__/__/lib/rc/sumd.c.obj
                0x000000002000066e                _crc8
 .bss._debug    0x000000002000066f        0x1 src/modules/px4iofirmware/CMakeFiles/px4io-v2.dir/__/__/lib/rc/sumd.c.obj
                0x000000002000066f                _debug
 .bss._crcOK    0x0000000020000670        0x1 src/modules/px4iofirmware/CMakeFiles/px4io-v2.dir/__/__/lib/rc/sumd.c.obj
                0x0000000020000670                _crcOK
 *fill*         0x0000000020000671        0x3 
 .bss._rxpacket
                0x0000000020000674       0x47 src/modules/px4iofirmware/CMakeFiles/px4io-v2.dir/__/__/lib/rc/sumd.c.obj
 .bss._decode_state
                0x00000000200006bb        0x1 src/modules/px4iofirmware/CMakeFiles/px4io-v2.dir/__/__/lib/rc/sumd.c.obj
 .bss._rxlen    0x00000000200006bc        0x1 src/modules/px4iofirmware/CMakeFiles/px4io-v2.dir/__/__/lib/rc/sumd.c.obj
 .bss           0x00000000200006bd        0x0 src/modules/px4iofirmware/CMakeFiles/px4io-v2.dir/__/__/lib/rc/sbus.c.obj
 *fill*         0x00000000200006bd        0x3 
 .bss.last_frame_time
                0x00000000200006c0        0x8 src/modules/px4iofirmware/CMakeFiles/px4io-v2.dir/__/__/lib/rc/sbus.c.obj
 .bss.partial_frame_count
                0x00000000200006c8        0x4 src/modules/px4iofirmware/CMakeFiles/px4io-v2.dir/__/__/lib/rc/sbus.c.obj
 .bss.sbus_frame
                0x00000000200006cc       0x25 src/modules/px4iofirmware/CMakeFiles/px4io-v2.dir/__/__/lib/rc/sbus.c.obj
 *fill*         0x00000000200006f1        0x7 
 .bss.last_txframe_time
                0x00000000200006f8        0x8 src/modules/px4iofirmware/CMakeFiles/px4io-v2.dir/__/__/lib/rc/sbus.c.obj
 .bss.last_rx_time
                0x0000000020000700        0x8 src/modules/px4iofirmware/CMakeFiles/px4io-v2.dir/__/__/lib/rc/sbus.c.obj
 .bss.sbus_frame_drops
                0x0000000020000708        0x4 src/modules/px4iofirmware/CMakeFiles/px4io-v2.dir/__/__/lib/rc/sbus.c.obj
 .bss           0x000000002000070c        0x0 src/modules/px4iofirmware/CMakeFiles/px4io-v2.dir/__/__/lib/rc/dsm.c.obj
 .bss.cs11.6837
                0x000000002000070c        0x4 src/modules/px4iofirmware/CMakeFiles/px4io-v2.dir/__/__/lib/rc/dsm.c.obj
 .bss.dsm_last_frame_time
                0x0000000020000710        0x8 src/modules/px4iofirmware/CMakeFiles/px4io-v2.dir/__/__/lib/rc/dsm.c.obj
 .bss.dsm_partial_frame_count
                0x0000000020000718        0x4 src/modules/px4iofirmware/CMakeFiles/px4io-v2.dir/__/__/lib/rc/dsm.c.obj
 .bss.samples.6838
                0x000000002000071c        0x4 src/modules/px4iofirmware/CMakeFiles/px4io-v2.dir/__/__/lib/rc/dsm.c.obj
 .bss.dsm_frame
                0x0000000020000720       0x18 src/modules/px4iofirmware/CMakeFiles/px4io-v2.dir/__/__/lib/rc/dsm.c.obj
 .bss.dsm_buf   0x0000000020000738       0x20 src/modules/px4iofirmware/CMakeFiles/px4io-v2.dir/__/__/lib/rc/dsm.c.obj
 .bss.dsm_last_rx_time
                0x0000000020000758        0x8 src/modules/px4iofirmware/CMakeFiles/px4io-v2.dir/__/__/lib/rc/dsm.c.obj
 .bss.dsm_chan_count
                0x0000000020000760        0x2 src/modules/px4iofirmware/CMakeFiles/px4io-v2.dir/__/__/lib/rc/dsm.c.obj
 *fill*         0x0000000020000762        0x2 
 .bss.dsm_frame_drops
                0x0000000020000764        0x4 src/modules/px4iofirmware/CMakeFiles/px4io-v2.dir/__/__/lib/rc/dsm.c.obj
 .bss.cs10.6836
                0x0000000020000768        0x4 src/modules/px4iofirmware/CMakeFiles/px4io-v2.dir/__/__/lib/rc/dsm.c.obj
 .bss.dsm_decode_state
                0x000000002000076c        0x1 src/modules/px4iofirmware/CMakeFiles/px4io-v2.dir/__/__/lib/rc/dsm.c.obj
 *fill*         0x000000002000076d        0x3 
 .bss.dsm_channel_shift
                0x0000000020000770        0x4 src/modules/px4iofirmware/CMakeFiles/px4io-v2.dir/__/__/lib/rc/dsm.c.obj
 .bss           0x0000000020000774        0x0 src/modules/px4iofirmware/CMakeFiles/px4io-v2.dir/__/__/drivers/stm32/drv_hrt.c.obj
 .bss.callout_queue
                0x0000000020000774        0x8 src/modules/px4iofirmware/CMakeFiles/px4io-v2.dir/__/__/drivers/stm32/drv_hrt.c.obj
 .bss.latency_counters
                0x000000002000077c       0x24 src/modules/px4iofirmware/CMakeFiles/px4io-v2.dir/__/__/drivers/stm32/drv_hrt.c.obj
                0x000000002000077c                latency_counters
 .bss.ppm_frame_length
                0x00000000200007a0        0x2 src/modules/px4iofirmware/CMakeFiles/px4io-v2.dir/__/__/drivers/stm32/drv_hrt.c.obj
                0x00000000200007a0                ppm_frame_length
 *fill*         0x00000000200007a2        0x2 
 .bss.new_channel_holdoff.5996
                0x00000000200007a4        0x4 src/modules/px4iofirmware/CMakeFiles/px4io-v2.dir/__/__/drivers/stm32/drv_hrt.c.obj
 .bss.ppm_decoded_channels
                0x00000000200007a8        0x4 src/modules/px4iofirmware/CMakeFiles/px4io-v2.dir/__/__/drivers/stm32/drv_hrt.c.obj
                0x00000000200007a8                ppm_decoded_channels
 *fill*         0x00000000200007ac        0x4 
 .bss.base_time.6016
                0x00000000200007b0        0x8 src/modules/px4iofirmware/CMakeFiles/px4io-v2.dir/__/__/drivers/stm32/drv_hrt.c.obj
 .bss.last_count.6017
                0x00000000200007b8        0x4 src/modules/px4iofirmware/CMakeFiles/px4io-v2.dir/__/__/drivers/stm32/drv_hrt.c.obj
 .bss.ppm       0x00000000200007bc       0x10 src/modules/px4iofirmware/CMakeFiles/px4io-v2.dir/__/__/drivers/stm32/drv_hrt.c.obj
                0x00000000200007bc                ppm
 .bss.ppm_temp_buffer
                0x00000000200007cc       0x28 src/modules/px4iofirmware/CMakeFiles/px4io-v2.dir/__/__/drivers/stm32/drv_hrt.c.obj
 .bss.new_channel_count.5995
                0x00000000200007f4        0x4 src/modules/px4iofirmware/CMakeFiles/px4io-v2.dir/__/__/drivers/stm32/drv_hrt.c.obj
 .bss.latency_baseline
                0x00000000200007f8        0x2 src/modules/px4iofirmware/CMakeFiles/px4io-v2.dir/__/__/drivers/stm32/drv_hrt.c.obj
 *fill*         0x00000000200007fa        0x6 
 .bss.ppm_last_valid_decode
                0x0000000020000800        0x8 src/modules/px4iofirmware/CMakeFiles/px4io-v2.dir/__/__/drivers/stm32/drv_hrt.c.obj
                0x0000000020000800                ppm_last_valid_decode
 .bss.latency_actual
                0x0000000020000808        0x2 src/modules/px4iofirmware/CMakeFiles/px4io-v2.dir/__/__/drivers/stm32/drv_hrt.c.obj
 *fill*         0x000000002000080a        0x2 
 .bss.ppm_buffer
                0x000000002000080c       0x28 src/modules/px4iofirmware/CMakeFiles/px4io-v2.dir/__/__/drivers/stm32/drv_hrt.c.obj
                0x000000002000080c                ppm_buffer
 .bss           0x0000000020000834        0x0 src/modules/px4iofirmware/CMakeFiles/px4io-v2.dir/__/__/drivers/stm32/drv_io_timer.c.obj
 .bss.channel_handlers
                0x0000000020000834       0x40 src/modules/px4iofirmware/CMakeFiles/px4io-v2.dir/__/__/drivers/stm32/drv_io_timer.c.obj
 .bss.once      0x0000000020000874        0x1 src/modules/px4iofirmware/CMakeFiles/px4io-v2.dir/__/__/drivers/stm32/drv_io_timer.c.obj
 *fill*         0x0000000020000875        0x3 
 .bss.io_timer_channel_stats
                0x0000000020000878       0x40 src/modules/px4iofirmware/CMakeFiles/px4io-v2.dir/__/__/drivers/stm32/drv_io_timer.c.obj
 .bss           0x00000000200008b8        0x0 src/modules/px4iofirmware/CMakeFiles/px4io-v2.dir/__/__/drivers/stm32/drv_pwm_servo.c.obj
 .bss           0x00000000200008b8        0x0 src/modules/px4iofirmware/CMakeFiles/px4io-v2.dir/__/__/drivers/boards/px4io-v2/px4io_init.c.obj
 .bss           0x00000000200008b8        0x0 src/modules/px4iofirmware/CMakeFiles/px4io-v2.dir/__/__/drivers/boards/px4io-v2/px4io_timer_config.c.obj
 .bss           0x00000000200008b8        0x0 src/modules/px4iofirmware/CMakeFiles/px4io-v2.dir/serial.c.obj
 .bss.abort_on_idle.7014
                0x00000000200008b8        0x1 src/modules/px4iofirmware/CMakeFiles/px4io-v2.dir/serial.c.obj
 *fill*         0x00000000200008b9        0x3 
 .bss.pc_badidle
                0x00000000200008bc        0x4 src/modules/px4iofirmware/CMakeFiles/px4io-v2.dir/serial.c.obj
 .bss.rx_dma    0x00000000200008c0        0x4 src/modules/px4iofirmware/CMakeFiles/px4io-v2.dir/serial.c.obj
 .bss.pc_txns   0x00000000200008c4        0x4 src/modules/px4iofirmware/CMakeFiles/px4io-v2.dir/serial.c.obj
 .bss.pc_crcerr
                0x00000000200008c8        0x4 src/modules/px4iofirmware/CMakeFiles/px4io-v2.dir/serial.c.obj
 .bss.pc_errors
                0x00000000200008cc        0x4 src/modules/px4iofirmware/CMakeFiles/px4io-v2.dir/serial.c.obj
 .bss.pc_fe     0x00000000200008d0        0x4 src/modules/px4iofirmware/CMakeFiles/px4io-v2.dir/serial.c.obj
 .bss.dma_packet
                0x00000000200008d4       0x44 src/modules/px4iofirmware/CMakeFiles/px4io-v2.dir/serial.c.obj
 .bss.tx_dma    0x0000000020000918        0x4 src/modules/px4iofirmware/CMakeFiles/px4io-v2.dir/serial.c.obj
 .bss.pc_ne     0x000000002000091c        0x4 src/modules/px4iofirmware/CMakeFiles/px4io-v2.dir/serial.c.obj
 .bss.pc_regerr
                0x0000000020000920        0x4 src/modules/px4iofirmware/CMakeFiles/px4io-v2.dir/serial.c.obj
 .bss.pc_ore    0x0000000020000924        0x4 src/modules/px4iofirmware/CMakeFiles/px4io-v2.dir/serial.c.obj
 .bss.pc_idle   0x0000000020000928        0x4 src/modules/px4iofirmware/CMakeFiles/px4io-v2.dir/serial.c.obj
 .bss           0x000000002000092c        0x0 src/modules/px4iofirmware/CMakeFiles/px4io-v2.dir/__/systemlib/hx_stream.c.obj
 .bss           0x000000002000092c        0x0 /home/tuofeichen/SLAM/MAV-Project/Firmware/build_px4fmu-v2_lpe/px4io-v2/NuttX/nuttx-export/libs/libnuttx.a(sched-irq_attach.o)
 .bss           0x000000002000092c        0x0 /home/tuofeichen/SLAM/MAV-Project/Firmware/build_px4fmu-v2_lpe/px4io-v2/NuttX/nuttx-export/libs/libnuttx.a(sched-irq_initialize.o)
 .bss.g_irqvector
                0x000000002000092c      0x138 /home/tuofeichen/SLAM/MAV-Project/Firmware/build_px4fmu-v2_lpe/px4io-v2/NuttX/nuttx-export/libs/libnuttx.a(sched-irq_initialize.o)
                0x000000002000092c                g_irqvector
 .bss           0x0000000020000a64        0x0 /home/tuofeichen/SLAM/MAV-Project/Firmware/build_px4fmu-v2_lpe/px4io-v2/NuttX/nuttx-export/libs/libnuttx.a(sched-irq_unexpectedisr.o)
 .bss           0x0000000020000a64        0x0 /home/tuofeichen/SLAM/MAV-Project/Firmware/build_px4fmu-v2_lpe/px4io-v2/NuttX/nuttx-export/libs/libnuttx.a(c-lib_abort.o)
 .bss           0x0000000020000a64        0x0 /home/tuofeichen/SLAM/MAV-Project/Firmware/build_px4fmu-v2_lpe/px4io-v2/NuttX/nuttx-export/libs/libnuttx.a(c-lib_cfsetspeed.o)
 .bss           0x0000000020000a64        0x0 /home/tuofeichen/SLAM/MAV-Project/Firmware/build_px4fmu-v2_lpe/px4io-v2/NuttX/nuttx-export/libs/libnuttx.a(c-lib_crc32.o)
 .bss           0x0000000020000a64        0x0 /home/tuofeichen/SLAM/MAV-Project/Firmware/build_px4fmu-v2_lpe/px4io-v2/NuttX/nuttx-export/libs/libnuttx.a(c-lib_dprintf.o)
 .bss           0x0000000020000a64        0x0 /home/tuofeichen/SLAM/MAV-Project/Firmware/build_px4fmu-v2_lpe/px4io-v2/NuttX/nuttx-export/libs/libnuttx.a(c-lib_lowsyslog.o)
 .bss           0x0000000020000a64        0x0 /home/tuofeichen/SLAM/MAV-Project/Firmware/build_px4fmu-v2_lpe/px4io-v2/NuttX/nuttx-export/libs/libnuttx.a(c-lib_memchr.o)
 .bss           0x0000000020000a64        0x0 /home/tuofeichen/SLAM/MAV-Project/Firmware/build_px4fmu-v2_lpe/px4io-v2/NuttX/nuttx-export/libs/libnuttx.a(c-lib_memcpy.o)
 .bss           0x0000000020000a64        0x0 /home/tuofeichen/SLAM/MAV-Project/Firmware/build_px4fmu-v2_lpe/px4io-v2/NuttX/nuttx-export/libs/libnuttx.a(c-lib_memset.o)
 .bss           0x0000000020000a64        0x0 /home/tuofeichen/SLAM/MAV-Project/Firmware/build_px4fmu-v2_lpe/px4io-v2/NuttX/nuttx-export/libs/libnuttx.a(c-lib_printf.o)
 .bss           0x0000000020000a64        0x0 /home/tuofeichen/SLAM/MAV-Project/Firmware/build_px4fmu-v2_lpe/px4io-v2/NuttX/nuttx-export/libs/libnuttx.a(c-lib_sscanf.o)
 .bss           0x0000000020000a64        0x0 /home/tuofeichen/SLAM/MAV-Project/Firmware/build_px4fmu-v2_lpe/px4io-v2/NuttX/nuttx-export/libs/libnuttx.a(c-lib_strchr.o)
 .bss           0x0000000020000a64        0x0 /home/tuofeichen/SLAM/MAV-Project/Firmware/build_px4fmu-v2_lpe/px4io-v2/NuttX/nuttx-export/libs/libnuttx.a(c-lib_strcmp.o)
 .bss           0x0000000020000a64        0x0 /home/tuofeichen/SLAM/MAV-Project/Firmware/build_px4fmu-v2_lpe/px4io-v2/NuttX/nuttx-export/libs/libnuttx.a(c-lib_strcspn.o)
 .bss           0x0000000020000a64        0x0 /home/tuofeichen/SLAM/MAV-Project/Firmware/build_px4fmu-v2_lpe/px4io-v2/NuttX/nuttx-export/libs/libnuttx.a(c-lib_strncpy.o)
 .bss           0x0000000020000a64        0x0 /home/tuofeichen/SLAM/MAV-Project/Firmware/build_px4fmu-v2_lpe/px4io-v2/NuttX/nuttx-export/libs/libnuttx.a(c-lib_strtol.o)
 .bss           0x0000000020000a64        0x0 /home/tuofeichen/SLAM/MAV-Project/Firmware/build_px4fmu-v2_lpe/px4io-v2/NuttX/nuttx-export/libs/libnuttx.a(c-lib_strtoul.o)
 .bss           0x0000000020000a64        0x0 /home/tuofeichen/SLAM/MAV-Project/Firmware/build_px4fmu-v2_lpe/px4io-v2/NuttX/nuttx-export/libs/libnuttx.a(c-lib_syslog.o)
 .bss           0x0000000020000a64        0x0 /home/tuofeichen/SLAM/MAV-Project/Firmware/build_px4fmu-v2_lpe/px4io-v2/NuttX/nuttx-export/libs/libnuttx.a(c-lib_tcgetattr.o)
 .bss           0x0000000020000a64        0x0 /home/tuofeichen/SLAM/MAV-Project/Firmware/build_px4fmu-v2_lpe/px4io-v2/NuttX/nuttx-export/libs/libnuttx.a(c-lib_tcsetattr.o)
 .bss           0x0000000020000a64        0x0 /home/tuofeichen/SLAM/MAV-Project/Firmware/build_px4fmu-v2_lpe/px4io-v2/NuttX/nuttx-export/libs/libnuttx.a(c-lib_vdprintf.o)
 .bss           0x0000000020000a64        0x0 /home/tuofeichen/SLAM/MAV-Project/Firmware/build_px4fmu-v2_lpe/px4io-v2/NuttX/nuttx-export/libs/libnuttx.a(c-lib_vsnprintf.o)
 .bss           0x0000000020000a64        0x0 /home/tuofeichen/SLAM/MAV-Project/Firmware/build_px4fmu-v2_lpe/px4io-v2/NuttX/nuttx-export/libs/libnuttx.a(c-sq_addafter.o)
 .bss           0x0000000020000a64        0x0 /home/tuofeichen/SLAM/MAV-Project/Firmware/build_px4fmu-v2_lpe/px4io-v2/NuttX/nuttx-export/libs/libnuttx.a(c-sq_addfirst.o)
 .bss           0x0000000020000a64        0x0 /home/tuofeichen/SLAM/MAV-Project/Firmware/build_px4fmu-v2_lpe/px4io-v2/NuttX/nuttx-export/libs/libnuttx.a(c-sq_addlast.o)
 .bss           0x0000000020000a64        0x0 /home/tuofeichen/SLAM/MAV-Project/Firmware/build_px4fmu-v2_lpe/px4io-v2/NuttX/nuttx-export/libs/libnuttx.a(c-sq_rem.o)
 .bss           0x0000000020000a64        0x0 /home/tuofeichen/SLAM/MAV-Project/Firmware/build_px4fmu-v2_lpe/px4io-v2/NuttX/nuttx-export/libs/libnuttx.a(mm-mm_calloc.o)
 .bss           0x0000000020000a64        0x0 /home/tuofeichen/SLAM/MAV-Project/Firmware/build_px4fmu-v2_lpe/px4io-v2/NuttX/nuttx-export/libs/libnuttx.a(mm-mm_free.o)
 .bss           0x0000000020000a64        0x0 /home/tuofeichen/SLAM/MAV-Project/Firmware/build_px4fmu-v2_lpe/px4io-v2/NuttX/nuttx-export/libs/libnuttx.a(mm-mm_mallinfo.o)
 .bss           0x0000000020000a64        0x0 /home/tuofeichen/SLAM/MAV-Project/Firmware/build_px4fmu-v2_lpe/px4io-v2/NuttX/nuttx-export/libs/libnuttx.a(mm-mm_malloc.o)
 .bss           0x0000000020000a64        0x0 /home/tuofeichen/SLAM/MAV-Project/Firmware/build_px4fmu-v2_lpe/px4io-v2/NuttX/nuttx-export/libs/libnuttx.a(mm-mm_sem.o)
 .bss           0x0000000020000a64        0x0 /home/tuofeichen/SLAM/MAV-Project/Firmware/build_px4fmu-v2_lpe/px4io-v2/NuttX/nuttx-export/libs/libnuttx.a(mm-mm_size2ndx.o)
 .bss           0x0000000020000a64        0x0 /home/tuofeichen/SLAM/MAV-Project/Firmware/build_px4fmu-v2_lpe/px4io-v2/NuttX/nuttx-export/libs/libnuttx.a(mm-mm_user.o)
 .bss.g_mmheap  0x0000000020000a64       0xa4 /home/tuofeichen/SLAM/MAV-Project/Firmware/build_px4fmu-v2_lpe/px4io-v2/NuttX/nuttx-export/libs/libnuttx.a(mm-mm_user.o)
                0x0000000020000a64                g_mmheap
 .bss           0x0000000020000b08        0x0 /home/tuofeichen/SLAM/MAV-Project/Firmware/build_px4fmu-v2_lpe/px4io-v2/NuttX/nuttx-export/libs/libnuttx.a(mm-mm_zalloc.o)
 .bss           0x0000000020000b08        0x0 /home/tuofeichen/SLAM/MAV-Project/Firmware/build_px4fmu-v2_lpe/px4io-v2/NuttX/nuttx-export/libs/libnuttx.a(arch-stm32_dma.o)
 .bss           0x0000000020000b08        0x0 /home/tuofeichen/SLAM/MAV-Project/Firmware/build_px4fmu-v2_lpe/px4io-v2/NuttX/nuttx-export/libs/libnuttx.a(arch-stm32_gpio.o)
 .bss           0x0000000020000b08        0x0 /home/tuofeichen/SLAM/MAV-Project/Firmware/build_px4fmu-v2_lpe/px4io-v2/NuttX/nuttx-export/libs/libnuttx.a(arch-stm32_irq.o)
 .bss.current_regs
                0x0000000020000b08        0x4 /home/tuofeichen/SLAM/MAV-Project/Firmware/build_px4fmu-v2_lpe/px4io-v2/NuttX/nuttx-export/libs/libnuttx.a(arch-stm32_irq.o)
                0x0000000020000b08                current_regs
 .bss           0x0000000020000b0c        0x0 /home/tuofeichen/SLAM/MAV-Project/Firmware/build_px4fmu-v2_lpe/px4io-v2/NuttX/nuttx-export/libs/libnuttx.a(arch-stm32_serial.o)
 .bss.g_usart1txbuffer
                0x0000000020000b0c       0x20 /home/tuofeichen/SLAM/MAV-Project/Firmware/build_px4fmu-v2_lpe/px4io-v2/NuttX/nuttx-export/libs/libnuttx.a(arch-stm32_serial.o)
 .bss.g_usart1rxfifo
                0x0000000020000b2c       0x20 /home/tuofeichen/SLAM/MAV-Project/Firmware/build_px4fmu-v2_lpe/px4io-v2/NuttX/nuttx-export/libs/libnuttx.a(arch-stm32_serial.o)
 .bss.g_usart2rxbuffer
                0x0000000020000b4c       0x40 /home/tuofeichen/SLAM/MAV-Project/Firmware/build_px4fmu-v2_lpe/px4io-v2/NuttX/nuttx-export/libs/libnuttx.a(arch-stm32_serial.o)
 .bss.g_usart2txbuffer
                0x0000000020000b8c       0x20 /home/tuofeichen/SLAM/MAV-Project/Firmware/build_px4fmu-v2_lpe/px4io-v2/NuttX/nuttx-export/libs/libnuttx.a(arch-stm32_serial.o)
 .bss.g_usart3rxbuffer
                0x0000000020000bac       0x40 /home/tuofeichen/SLAM/MAV-Project/Firmware/build_px4fmu-v2_lpe/px4io-v2/NuttX/nuttx-export/libs/libnuttx.a(arch-stm32_serial.o)
 .bss.g_usart1rxbuffer
                0x0000000020000bec       0x40 /home/tuofeichen/SLAM/MAV-Project/Firmware/build_px4fmu-v2_lpe/px4io-v2/NuttX/nuttx-export/libs/libnuttx.a(arch-stm32_serial.o)
 .bss.g_usart3rxfifo
                0x0000000020000c2c       0x20 /home/tuofeichen/SLAM/MAV-Project/Firmware/build_px4fmu-v2_lpe/px4io-v2/NuttX/nuttx-export/libs/libnuttx.a(arch-stm32_serial.o)
 .bss.g_usart3txbuffer
                0x0000000020000c4c       0x40 /home/tuofeichen/SLAM/MAV-Project/Firmware/build_px4fmu-v2_lpe/px4io-v2/NuttX/nuttx-export/libs/libnuttx.a(arch-stm32_serial.o)
 .bss           0x0000000020000c8c        0x0 /home/tuofeichen/SLAM/MAV-Project/Firmware/build_px4fmu-v2_lpe/px4io-v2/NuttX/nuttx-export/libs/libnuttx.a(arch-stm32_start.o)
 .bss           0x0000000020000c8c        0x0 /home/tuofeichen/SLAM/MAV-Project/Firmware/build_px4fmu-v2_lpe/px4io-v2/NuttX/nuttx-export/libs/libnuttx.a(arch-up_assert.o)
 .bss           0x0000000020000c8c        0x0 /home/tuofeichen/SLAM/MAV-Project/Firmware/build_px4fmu-v2_lpe/px4io-v2/NuttX/nuttx-export/libs/libnuttx.a(arch-up_hardfault.o)
 .bss           0x0000000020000c8c        0x0 /home/tuofeichen/SLAM/MAV-Project/Firmware/build_px4fmu-v2_lpe/px4io-v2/NuttX/nuttx-export/libs/libnuttx.a(arch-up_modifyreg32.o)
 .bss           0x0000000020000c8c        0x0 /home/tuofeichen/SLAM/MAV-Project/Firmware/build_px4fmu-v2_lpe/px4io-v2/NuttX/nuttx-export/libs/libnuttx.a(arch-up_svcall.o)
 .bss           0x0000000020000c8c        0x0 /home/tuofeichen/SLAM/MAV-Project/Firmware/build_px4fmu-v2_lpe/px4io-v2/NuttX/nuttx-export/libs/libnuttx.a(arch-up_systemreset.o)
 .bss           0x0000000020000c8c        0x0 /home/tuofeichen/SLAM/MAV-Project/Firmware/build_px4fmu-v2_lpe/px4io-v2/NuttX/nuttx-export/libs/libnuttx.a(arch-up_udelay.o)
 .bss           0x0000000020000c8c        0x0 /home/tuofeichen/SLAM/MAV-Project/Firmware/build_px4fmu-v2_lpe/px4io-v2/NuttX/nuttx-export/libs/libnuttx.a(arch-up_vectors.o)
 .bss           0x0000000020000c8c        0x0 /home/tuofeichen/SLAM/MAV-Project/Firmware/build_px4fmu-v2_lpe/px4io-v2/NuttX/nuttx-export/libs/libnuttx.a(cxx-libxx_cxa_atexit.o)
 .bss.__dso_handle
                0x0000000020000c8c        0x4 /home/tuofeichen/SLAM/MAV-Project/Firmware/build_px4fmu-v2_lpe/px4io-v2/NuttX/nuttx-export/libs/libnuttx.a(cxx-libxx_cxa_atexit.o)
                0x0000000020000c8c                __dso_handle
 .bss           0x0000000020000c90        0x0 /home/tuofeichen/SLAM/MAV-Project/Firmware/build_px4fmu-v2_lpe/px4io-v2/NuttX/nuttx-export/libs/libnuttx.a(cxx-libxx_cxapurevirtual.o)
 .bss           0x0000000020000c90        0x0 /home/tuofeichen/SLAM/MAV-Project/Firmware/build_px4fmu-v2_lpe/px4io-v2/NuttX/nuttx-export/libs/libnuttx.a(cxx-libxx_delete.o)
 .bss           0x0000000020000c90        0x0 /home/tuofeichen/SLAM/MAV-Project/Firmware/build_px4fmu-v2_lpe/px4io-v2/NuttX/nuttx-export/libs/libnuttx.a(cxx-libxx_eabi_atexit.o)
 .bss           0x0000000020000c90        0x0 /home/tuofeichen/SLAM/MAV-Project/Firmware/build_px4fmu-v2_lpe/px4io-v2/NuttX/nuttx-export/libs/libnuttx.a(cxx-libxx_new.o)
 .bss           0x0000000020000c90        0x0 /home/tuofeichen/SLAM/MAV-Project/Firmware/build_px4fmu-v2_lpe/px4io-v2/NuttX/nuttx-export/libs/libnuttx.a(fs-fs_ioctl.o)
 .bss           0x0000000020000c90        0x0 /home/tuofeichen/SLAM/MAV-Project/Firmware/build_px4fmu-v2_lpe/px4io-v2/NuttX/nuttx-export/libs/libnuttx.a(fs-fs_open.o)
 .bss           0x0000000020000c90        0x0 /home/tuofeichen/SLAM/MAV-Project/Firmware/build_px4fmu-v2_lpe/px4io-v2/NuttX/nuttx-export/libs/libnuttx.a(fs-fs_read.o)
 .bss           0x0000000020000c90        0x0 /home/tuofeichen/SLAM/MAV-Project/Firmware/build_px4fmu-v2_lpe/px4io-v2/NuttX/nuttx-export/libs/libnuttx.a(fs-fs_write.o)
 .bss           0x0000000020000c90        0x0 /home/tuofeichen/SLAM/MAV-Project/Firmware/build_px4fmu-v2_lpe/px4io-v2/NuttX/nuttx-export/libs/libnuttx.a(drivers-serialirq.o)
 .bss           0x0000000020000c90        0x0 /home/tuofeichen/SLAM/MAV-Project/Firmware/build_px4fmu-v2_lpe/px4io-v2/NuttX/nuttx-export/libs/libnuttx.a(drivers-serial.o)
 .bss           0x0000000020000c90        0x0 /home/tuofeichen/SLAM/MAV-Project/Firmware/build_px4fmu-v2_lpe/px4io-v2/NuttX/nuttx-export/libs/libnuttx.a(sched-errno_getptr.o)
 .bss.g_irqerrno
                0x0000000020000c90        0x4 /home/tuofeichen/SLAM/MAV-Project/Firmware/build_px4fmu-v2_lpe/px4io-v2/NuttX/nuttx-export/libs/libnuttx.a(sched-errno_getptr.o)
 .bss           0x0000000020000c94        0x0 /home/tuofeichen/SLAM/MAV-Project/Firmware/build_px4fmu-v2_lpe/px4io-v2/NuttX/nuttx-export/libs/libnuttx.a(sched-exit.o)
 .bss           0x0000000020000c94        0x0 /home/tuofeichen/SLAM/MAV-Project/Firmware/build_px4fmu-v2_lpe/px4io-v2/NuttX/nuttx-export/libs/libnuttx.a(sched-getpid.o)
 .bss           0x0000000020000c94        0x0 /home/tuofeichen/SLAM/MAV-Project/Firmware/build_px4fmu-v2_lpe/px4io-v2/NuttX/nuttx-export/libs/libnuttx.a(sched-os_start.o)
 .bss.g_pendingtasks
                0x0000000020000c94        0x8 /home/tuofeichen/SLAM/MAV-Project/Firmware/build_px4fmu-v2_lpe/px4io-v2/NuttX/nuttx-export/libs/libnuttx.a(sched-os_start.o)
                0x0000000020000c94                g_pendingtasks
 .bss.g_delayed_kufree
                0x0000000020000c9c        0x8 /home/tuofeichen/SLAM/MAV-Project/Firmware/build_px4fmu-v2_lpe/px4io-v2/NuttX/nuttx-export/libs/libnuttx.a(sched-os_start.o)
                0x0000000020000c9c                g_delayed_kufree
 .bss.g_waitingforsemaphore
                0x0000000020000ca4        0x8 /home/tuofeichen/SLAM/MAV-Project/Firmware/build_px4fmu-v2_lpe/px4io-v2/NuttX/nuttx-export/libs/libnuttx.a(sched-os_start.o)
                0x0000000020000ca4                g_waitingforsemaphore
 .bss.g_pidhash
                0x0000000020000cac       0x20 /home/tuofeichen/SLAM/MAV-Project/Firmware/build_px4fmu-v2_lpe/px4io-v2/NuttX/nuttx-export/libs/libnuttx.a(sched-os_start.o)
                0x0000000020000cac                g_pidhash
 .bss.g_lastpid
                0x0000000020000ccc        0x2 /home/tuofeichen/SLAM/MAV-Project/Firmware/build_px4fmu-v2_lpe/px4io-v2/NuttX/nuttx-export/libs/libnuttx.a(sched-os_start.o)
                0x0000000020000ccc                g_lastpid
 *fill*         0x0000000020000cce        0x2 
 .bss.g_readytorun
                0x0000000020000cd0        0x8 /home/tuofeichen/SLAM/MAV-Project/Firmware/build_px4fmu-v2_lpe/px4io-v2/NuttX/nuttx-export/libs/libnuttx.a(sched-os_start.o)
                0x0000000020000cd0                g_readytorun
 .bss.g_inactivetasks
                0x0000000020000cd8        0x8 /home/tuofeichen/SLAM/MAV-Project/Firmware/build_px4fmu-v2_lpe/px4io-v2/NuttX/nuttx-export/libs/libnuttx.a(sched-os_start.o)
                0x0000000020000cd8                g_inactivetasks
 .bss.g_idletcb
                0x0000000020000ce0       0xa4 /home/tuofeichen/SLAM/MAV-Project/Firmware/build_px4fmu-v2_lpe/px4io-v2/NuttX/nuttx-export/libs/libnuttx.a(sched-os_start.o)
 .bss           0x0000000020000d84        0x0 /home/tuofeichen/SLAM/MAV-Project/Firmware/build_px4fmu-v2_lpe/px4io-v2/NuttX/nuttx-export/libs/libnuttx.a(sched-sched_garbage.o)
 .bss           0x0000000020000d84        0x0 /home/tuofeichen/SLAM/MAV-Project/Firmware/build_px4fmu-v2_lpe/px4io-v2/NuttX/nuttx-export/libs/libnuttx.a(sched-sched_getfiles.o)
 .bss           0x0000000020000d84        0x0 /home/tuofeichen/SLAM/MAV-Project/Firmware/build_px4fmu-v2_lpe/px4io-v2/NuttX/nuttx-export/libs/libnuttx.a(sched-sem_post.o)
 .bss           0x0000000020000d84        0x0 /home/tuofeichen/SLAM/MAV-Project/Firmware/build_px4fmu-v2_lpe/px4io-v2/NuttX/nuttx-export/libs/libnuttx.a(sched-sem_trywait.o)
 .bss           0x0000000020000d84        0x0 /home/tuofeichen/SLAM/MAV-Project/Firmware/build_px4fmu-v2_lpe/px4io-v2/NuttX/nuttx-export/libs/libnuttx.a(sched-sem_wait.o)
 .bss           0x0000000020000d84        0x0 /home/tuofeichen/SLAM/MAV-Project/Firmware/build_px4fmu-v2_lpe/px4io-v2/NuttX/nuttx-export/libs/libnuttx.a(sched-task_exithook.o)
 .bss           0x0000000020000d84        0x0 /home/tuofeichen/SLAM/MAV-Project/Firmware/build_px4fmu-v2_lpe/px4io-v2/NuttX/nuttx-export/libs/libnuttx.a(sched-task_recover.o)
 .bss           0x0000000020000d84        0x0 /home/tuofeichen/SLAM/MAV-Project/Firmware/build_px4fmu-v2_lpe/px4io-v2/NuttX/nuttx-export/libs/libnuttx.a(sched-wd_cancel.o)
 .bss           0x0000000020000d84        0x0 /home/tuofeichen/SLAM/MAV-Project/Firmware/build_px4fmu-v2_lpe/px4io-v2/NuttX/nuttx-export/libs/libnuttx.a(sched-wd_delete.o)
 .bss           0x0000000020000d84        0x0 /home/tuofeichen/SLAM/MAV-Project/Firmware/build_px4fmu-v2_lpe/px4io-v2/NuttX/nuttx-export/libs/libnuttx.a(sched-wd_initialize.o)
 .bss.g_wdfreelist
                0x0000000020000d84        0x8 /home/tuofeichen/SLAM/MAV-Project/Firmware/build_px4fmu-v2_lpe/px4io-v2/NuttX/nuttx-export/libs/libnuttx.a(sched-wd_initialize.o)
                0x0000000020000d84                g_wdfreelist
 .bss.g_wdpool  0x0000000020000d8c        0x4 /home/tuofeichen/SLAM/MAV-Project/Firmware/build_px4fmu-v2_lpe/px4io-v2/NuttX/nuttx-export/libs/libnuttx.a(sched-wd_initialize.o)
                0x0000000020000d8c                g_wdpool
 .bss.g_wdactivelist
                0x0000000020000d90        0x8 /home/tuofeichen/SLAM/MAV-Project/Firmware/build_px4fmu-v2_lpe/px4io-v2/NuttX/nuttx-export/libs/libnuttx.a(sched-wd_initialize.o)
                0x0000000020000d90                g_wdactivelist
 .bss           0x0000000020000d98        0x0 /home/tuofeichen/SLAM/MAV-Project/Firmware/build_px4fmu-v2_lpe/px4io-v2/NuttX/nuttx-export/libs/libnuttx.a(c-dq_addfirst.o)
 .bss           0x0000000020000d98        0x0 /home/tuofeichen/SLAM/MAV-Project/Firmware/build_px4fmu-v2_lpe/px4io-v2/NuttX/nuttx-export/libs/libnuttx.a(c-lib_cfgetspeed.o)
 .bss           0x0000000020000d98        0x0 /home/tuofeichen/SLAM/MAV-Project/Firmware/build_px4fmu-v2_lpe/px4io-v2/NuttX/nuttx-export/libs/libnuttx.a(c-lib_checkbase.o)
 .bss           0x0000000020000d98        0x0 /home/tuofeichen/SLAM/MAV-Project/Firmware/build_px4fmu-v2_lpe/px4io-v2/NuttX/nuttx-export/libs/libnuttx.a(c-lib_isbasedigit.o)
 .bss           0x0000000020000d98        0x0 /home/tuofeichen/SLAM/MAV-Project/Firmware/build_px4fmu-v2_lpe/px4io-v2/NuttX/nuttx-export/libs/libnuttx.a(c-lib_libvsprintf.o)
 .bss           0x0000000020000d98        0x0 /home/tuofeichen/SLAM/MAV-Project/Firmware/build_px4fmu-v2_lpe/px4io-v2/NuttX/nuttx-export/libs/libnuttx.a(c-lib_lowoutstream.o)
 .bss           0x0000000020000d98        0x0 /home/tuofeichen/SLAM/MAV-Project/Firmware/build_px4fmu-v2_lpe/px4io-v2/NuttX/nuttx-export/libs/libnuttx.a(c-lib_memoutstream.o)
 .bss           0x0000000020000d98        0x0 /home/tuofeichen/SLAM/MAV-Project/Firmware/build_px4fmu-v2_lpe/px4io-v2/NuttX/nuttx-export/libs/libnuttx.a(c-lib_nulloutstream.o)
 .bss           0x0000000020000d98        0x0 /home/tuofeichen/SLAM/MAV-Project/Firmware/build_px4fmu-v2_lpe/px4io-v2/NuttX/nuttx-export/libs/libnuttx.a(c-lib_rawoutstream.o)
 .bss           0x0000000020000d98        0x0 /home/tuofeichen/SLAM/MAV-Project/Firmware/build_px4fmu-v2_lpe/px4io-v2/NuttX/nuttx-export/libs/libnuttx.a(c-lib_skipspace.o)
 .bss           0x0000000020000d98        0x0 /home/tuofeichen/SLAM/MAV-Project/Firmware/build_px4fmu-v2_lpe/px4io-v2/NuttX/nuttx-export/libs/libnuttx.a(c-lib_strcpy.o)
 .bss           0x0000000020000d98        0x0 /home/tuofeichen/SLAM/MAV-Project/Firmware/build_px4fmu-v2_lpe/px4io-v2/NuttX/nuttx-export/libs/libnuttx.a(c-lib_strlen.o)
 .bss           0x0000000020000d98        0x0 /home/tuofeichen/SLAM/MAV-Project/Firmware/build_px4fmu-v2_lpe/px4io-v2/NuttX/nuttx-export/libs/libnuttx.a(c-sem_init.o)
 .bss           0x0000000020000d98        0x0 /home/tuofeichen/SLAM/MAV-Project/Firmware/build_px4fmu-v2_lpe/px4io-v2/NuttX/nuttx-export/libs/libnuttx.a(c-sq_remafter.o)
 .bss           0x0000000020000d98        0x0 /home/tuofeichen/SLAM/MAV-Project/Firmware/build_px4fmu-v2_lpe/px4io-v2/NuttX/nuttx-export/libs/libnuttx.a(c-sq_remfirst.o)
 .bss           0x0000000020000d98        0x0 /home/tuofeichen/SLAM/MAV-Project/Firmware/build_px4fmu-v2_lpe/px4io-v2/NuttX/nuttx-export/libs/libnuttx.a(mm-mm_addfreechunk.o)
 .bss           0x0000000020000d98        0x0 /home/tuofeichen/SLAM/MAV-Project/Firmware/build_px4fmu-v2_lpe/px4io-v2/NuttX/nuttx-export/libs/libnuttx.a(mm-mm_initialize.o)
 .bss           0x0000000020000d98        0x0 /home/tuofeichen/SLAM/MAV-Project/Firmware/build_px4fmu-v2_lpe/px4io-v2/NuttX/nuttx-export/libs/libnuttx.a(arch-stm32_allocateheap.o)
 .bss           0x0000000020000d98        0x0 /home/tuofeichen/SLAM/MAV-Project/Firmware/build_px4fmu-v2_lpe/px4io-v2/NuttX/nuttx-export/libs/libnuttx.a(arch-stm32_idle.o)
 .bss           0x0000000020000d98        0x0 /home/tuofeichen/SLAM/MAV-Project/Firmware/build_px4fmu-v2_lpe/px4io-v2/NuttX/nuttx-export/libs/libnuttx.a(arch-stm32_lowputc.o)
 .bss           0x0000000020000d98        0x0 /home/tuofeichen/SLAM/MAV-Project/Firmware/build_px4fmu-v2_lpe/px4io-v2/NuttX/nuttx-export/libs/libnuttx.a(arch-stm32_rcc.o)
 .bss           0x0000000020000d98        0x0 /home/tuofeichen/SLAM/MAV-Project/Firmware/build_px4fmu-v2_lpe/px4io-v2/NuttX/nuttx-export/libs/libnuttx.a(arch-stm32_vectors.o)
 .bss           0x0000000020000d98        0x0 /home/tuofeichen/SLAM/MAV-Project/Firmware/build_px4fmu-v2_lpe/px4io-v2/NuttX/nuttx-export/libs/libnuttx.a(arch-up_blocktask.o)
 .bss           0x0000000020000d98        0x0 /home/tuofeichen/SLAM/MAV-Project/Firmware/build_px4fmu-v2_lpe/px4io-v2/NuttX/nuttx-export/libs/libnuttx.a(arch-up_copystate.o)
 .bss           0x0000000020000d98        0x0 /home/tuofeichen/SLAM/MAV-Project/Firmware/build_px4fmu-v2_lpe/px4io-v2/NuttX/nuttx-export/libs/libnuttx.a(arch-up_exception.o)
 .bss           0x0000000020000d98        0x0 /home/tuofeichen/SLAM/MAV-Project/Firmware/build_px4fmu-v2_lpe/px4io-v2/NuttX/nuttx-export/libs/libnuttx.a(arch-up_exit.o)
 .bss           0x0000000020000d98        0x0 /home/tuofeichen/SLAM/MAV-Project/Firmware/build_px4fmu-v2_lpe/px4io-v2/NuttX/nuttx-export/libs/libnuttx.a(arch-up_fullcontextrestore.o)
 .bss           0x0000000020000d98        0x0 /home/tuofeichen/SLAM/MAV-Project/Firmware/build_px4fmu-v2_lpe/px4io-v2/NuttX/nuttx-export/libs/libnuttx.a(arch-up_initialize.o)
 .bss           0x0000000020000d98        0x0 /home/tuofeichen/SLAM/MAV-Project/Firmware/build_px4fmu-v2_lpe/px4io-v2/NuttX/nuttx-export/libs/libnuttx.a(arch-up_initialstate.o)
 .bss           0x0000000020000d98        0x0 /home/tuofeichen/SLAM/MAV-Project/Firmware/build_px4fmu-v2_lpe/px4io-v2/NuttX/nuttx-export/libs/libnuttx.a(arch-up_interruptcontext.o)
 .bss           0x0000000020000d98        0x0 /home/tuofeichen/SLAM/MAV-Project/Firmware/build_px4fmu-v2_lpe/px4io-v2/NuttX/nuttx-export/libs/libnuttx.a(arch-up_mdelay.o)
 .bss           0x0000000020000d98        0x0 /home/tuofeichen/SLAM/MAV-Project/Firmware/build_px4fmu-v2_lpe/px4io-v2/NuttX/nuttx-export/libs/libnuttx.a(arch-up_switchcontext.o)
 .bss           0x0000000020000d98        0x0 /home/tuofeichen/SLAM/MAV-Project/Firmware/build_px4fmu-v2_lpe/px4io-v2/NuttX/nuttx-export/libs/libnuttx.a(arch-up_unblocktask.o)
 .bss           0x0000000020000d98        0x0 /home/tuofeichen/SLAM/MAV-Project/Firmware/build_px4fmu-v2_lpe/px4io-v2/NuttX/nuttx-export/libs/libnuttx.a(fs-fs_files.o)
 .bss           0x0000000020000d98        0x0 /home/tuofeichen/SLAM/MAV-Project/Firmware/build_px4fmu-v2_lpe/px4io-v2/NuttX/nuttx-export/libs/libnuttx.a(fs-fs_inodeaddref.o)
 .bss           0x0000000020000d98        0x0 /home/tuofeichen/SLAM/MAV-Project/Firmware/build_px4fmu-v2_lpe/px4io-v2/NuttX/nuttx-export/libs/libnuttx.a(fs-fs_inodefind.o)
 .bss           0x0000000020000d98        0x0 /home/tuofeichen/SLAM/MAV-Project/Firmware/build_px4fmu-v2_lpe/px4io-v2/NuttX/nuttx-export/libs/libnuttx.a(fs-fs_inode.o)
 .bss.root_inode
                0x0000000020000d98        0x4 /home/tuofeichen/SLAM/MAV-Project/Firmware/build_px4fmu-v2_lpe/px4io-v2/NuttX/nuttx-export/libs/libnuttx.a(fs-fs_inode.o)
                0x0000000020000d98                root_inode
 .bss.tree_sem  0x0000000020000d9c        0x2 /home/tuofeichen/SLAM/MAV-Project/Firmware/build_px4fmu-v2_lpe/px4io-v2/NuttX/nuttx-export/libs/libnuttx.a(fs-fs_inode.o)
 .bss           0x0000000020000d9e        0x0 /home/tuofeichen/SLAM/MAV-Project/Firmware/build_px4fmu-v2_lpe/px4io-v2/NuttX/nuttx-export/libs/libnuttx.a(fs-fs_inoderelease.o)
 .bss           0x0000000020000d9e        0x0 /home/tuofeichen/SLAM/MAV-Project/Firmware/build_px4fmu-v2_lpe/px4io-v2/NuttX/nuttx-export/libs/libnuttx.a(fs-fs_registerdriver.o)
 .bss           0x0000000020000d9e        0x0 /home/tuofeichen/SLAM/MAV-Project/Firmware/build_px4fmu-v2_lpe/px4io-v2/NuttX/nuttx-export/libs/libnuttx.a(sched-group_create.o)
 .bss           0x0000000020000d9e        0x0 /home/tuofeichen/SLAM/MAV-Project/Firmware/build_px4fmu-v2_lpe/px4io-v2/NuttX/nuttx-export/libs/libnuttx.a(sched-group_leave.o)
 .bss           0x0000000020000d9e        0x0 /home/tuofeichen/SLAM/MAV-Project/Firmware/build_px4fmu-v2_lpe/px4io-v2/NuttX/nuttx-export/libs/libnuttx.a(sched-group_setupidlefiles.o)
 .bss           0x0000000020000d9e        0x0 /home/tuofeichen/SLAM/MAV-Project/Firmware/build_px4fmu-v2_lpe/px4io-v2/NuttX/nuttx-export/libs/libnuttx.a(sched-os_bringup.o)
 .bss           0x0000000020000d9e        0x0 /home/tuofeichen/SLAM/MAV-Project/Firmware/build_px4fmu-v2_lpe/px4io-v2/NuttX/nuttx-export/libs/libnuttx.a(sched-sched_addblocked.o)
 .bss           0x0000000020000d9e        0x0 /home/tuofeichen/SLAM/MAV-Project/Firmware/build_px4fmu-v2_lpe/px4io-v2/NuttX/nuttx-export/libs/libnuttx.a(sched-sched_addprioritized.o)
 .bss           0x0000000020000d9e        0x0 /home/tuofeichen/SLAM/MAV-Project/Firmware/build_px4fmu-v2_lpe/px4io-v2/NuttX/nuttx-export/libs/libnuttx.a(sched-sched_addreadytorun.o)
 .bss           0x0000000020000d9e        0x0 /home/tuofeichen/SLAM/MAV-Project/Firmware/build_px4fmu-v2_lpe/px4io-v2/NuttX/nuttx-export/libs/libnuttx.a(sched-sched_free.o)
 .bss           0x0000000020000d9e        0x0 /home/tuofeichen/SLAM/MAV-Project/Firmware/build_px4fmu-v2_lpe/px4io-v2/NuttX/nuttx-export/libs/libnuttx.a(sched-sched_mergepending.o)
 .bss           0x0000000020000d9e        0x0 /home/tuofeichen/SLAM/MAV-Project/Firmware/build_px4fmu-v2_lpe/px4io-v2/NuttX/nuttx-export/libs/libnuttx.a(sched-sched_removeblocked.o)
 .bss           0x0000000020000d9e        0x0 /home/tuofeichen/SLAM/MAV-Project/Firmware/build_px4fmu-v2_lpe/px4io-v2/NuttX/nuttx-export/libs/libnuttx.a(sched-sched_removereadytorun.o)
 .bss           0x0000000020000d9e        0x0 /home/tuofeichen/SLAM/MAV-Project/Firmware/build_px4fmu-v2_lpe/px4io-v2/NuttX/nuttx-export/libs/libnuttx.a(sched-sem_destroy.o)
 .bss           0x0000000020000d9e        0x0 /home/tuofeichen/SLAM/MAV-Project/Firmware/build_px4fmu-v2_lpe/px4io-v2/NuttX/nuttx-export/libs/libnuttx.a(sched-task_create.o)
 .bss           0x0000000020000d9e        0x0 /home/tuofeichen/SLAM/MAV-Project/Firmware/build_px4fmu-v2_lpe/px4io-v2/NuttX/nuttx-export/libs/libnuttx.a(sched-task_exit.o)
 .bss           0x0000000020000d9e        0x0 /home/tuofeichen/SLAM/MAV-Project/Firmware/build_px4fmu-v2_lpe/px4io-v2/NuttX/nuttx-export/libs/libnuttx.a(sched-task_setup.o)
 .bss           0x0000000020000d9e        0x0 /home/tuofeichen/SLAM/MAV-Project/Firmware/build_px4fmu-v2_lpe/px4io-v2/NuttX/nuttx-export/libs/libnuttx.a(sched-task_start.o)
 .bss           0x0000000020000d9e        0x0 /home/tuofeichen/SLAM/MAV-Project/Firmware/build_px4fmu-v2_lpe/px4io-v2/NuttX/nuttx-export/libs/libnuttx.a(sched-task_terminate.o)
 .bss           0x0000000020000d9e        0x0 /home/tuofeichen/SLAM/MAV-Project/Firmware/build_px4fmu-v2_lpe/px4io-v2/NuttX/nuttx-export/libs/libnuttx.a(c-dq_addlast.o)
 .bss           0x0000000020000d9e        0x0 /home/tuofeichen/SLAM/MAV-Project/Firmware/build_px4fmu-v2_lpe/px4io-v2/NuttX/nuttx-export/libs/libnuttx.a(c-dq_rem.o)
 .bss           0x0000000020000d9e        0x0 /home/tuofeichen/SLAM/MAV-Project/Firmware/build_px4fmu-v2_lpe/px4io-v2/NuttX/nuttx-export/libs/libnuttx.a(c-lib_strdup.o)
 .bss           0x0000000020000d9e        0x0 /home/tuofeichen/SLAM/MAV-Project/Firmware/build_px4fmu-v2_lpe/px4io-v2/NuttX/nuttx-export/libs/libnuttx.a(arch-stm32_timerisr.o)
 .bss           0x0000000020000d9e        0x0 /home/tuofeichen/SLAM/MAV-Project/Firmware/build_px4fmu-v2_lpe/px4io-v2/NuttX/nuttx-export/libs/libnuttx.a(arch-up_createstack.o)
 .bss           0x0000000020000d9e        0x0 /home/tuofeichen/SLAM/MAV-Project/Firmware/build_px4fmu-v2_lpe/px4io-v2/NuttX/nuttx-export/libs/libnuttx.a(arch-up_doirq.o)
 .bss           0x0000000020000d9e        0x0 /home/tuofeichen/SLAM/MAV-Project/Firmware/build_px4fmu-v2_lpe/px4io-v2/NuttX/nuttx-export/libs/libnuttx.a(arch-up_releasestack.o)
 .bss           0x0000000020000d9e        0x0 /home/tuofeichen/SLAM/MAV-Project/Firmware/build_px4fmu-v2_lpe/px4io-v2/NuttX/nuttx-export/libs/libnuttx.a(fs-fs_close.o)
 .bss           0x0000000020000d9e        0x0 /home/tuofeichen/SLAM/MAV-Project/Firmware/build_px4fmu-v2_lpe/px4io-v2/NuttX/nuttx-export/libs/libnuttx.a(fs-fs_filedup2.o)
 .bss           0x0000000020000d9e        0x0 /home/tuofeichen/SLAM/MAV-Project/Firmware/build_px4fmu-v2_lpe/px4io-v2/NuttX/nuttx-export/libs/libnuttx.a(fs-fs_inodereserve.o)
 .bss           0x0000000020000d9e        0x0 /home/tuofeichen/SLAM/MAV-Project/Firmware/build_px4fmu-v2_lpe/px4io-v2/NuttX/nuttx-export/libs/libnuttx.a(sched-group_setuptaskfiles.o)
 .bss           0x0000000020000d9e        0x0 /home/tuofeichen/SLAM/MAV-Project/Firmware/build_px4fmu-v2_lpe/px4io-v2/NuttX/nuttx-export/libs/libnuttx.a(sched-irq_dispatch.o)
 .bss           0x0000000020000d9e        0x0 /home/tuofeichen/SLAM/MAV-Project/Firmware/build_px4fmu-v2_lpe/px4io-v2/NuttX/nuttx-export/libs/libnuttx.a(sched-sched_gettcb.o)
 .bss           0x0000000020000d9e        0x0 /home/tuofeichen/SLAM/MAV-Project/Firmware/build_px4fmu-v2_lpe/px4io-v2/NuttX/nuttx-export/libs/libnuttx.a(sched-sched_lock.o)
 .bss           0x0000000020000d9e        0x0 /home/tuofeichen/SLAM/MAV-Project/Firmware/build_px4fmu-v2_lpe/px4io-v2/NuttX/nuttx-export/libs/libnuttx.a(sched-sched_processtimer.o)
 .bss           0x0000000020000d9e        0x0 /home/tuofeichen/SLAM/MAV-Project/Firmware/build_px4fmu-v2_lpe/px4io-v2/NuttX/nuttx-export/libs/libnuttx.a(sched-sched_releasetcb.o)
 .bss           0x0000000020000d9e        0x0 /home/tuofeichen/SLAM/MAV-Project/Firmware/build_px4fmu-v2_lpe/px4io-v2/NuttX/nuttx-export/libs/libnuttx.a(sched-sched_unlock.o)
 .bss           0x0000000020000d9e        0x0 /home/tuofeichen/SLAM/MAV-Project/Firmware/build_px4fmu-v2_lpe/px4io-v2/NuttX/nuttx-export/libs/libnuttx.a(sched-task_activate.o)
 .bss           0x0000000020000d9e        0x0 /home/tuofeichen/SLAM/MAV-Project/Firmware/build_px4fmu-v2_lpe/px4io-v2/NuttX/nuttx-export/libs/libnuttx.a(arch-up_releasepending.o)
 .bss           0x0000000020000d9e        0x0 /usr/bin/../lib/gcc/arm-none-eabi/4.9.3/../../../../arm-none-eabi/lib/armv7-m/libm.a(lib_a-sf_fmin.o)
 .bss           0x0000000020000d9e        0x0 /usr/bin/../lib/gcc/arm-none-eabi/4.9.3/../../../../arm-none-eabi/lib/armv7-m/libm.a(lib_a-sf_fpclassify.o)
 .bss           0x0000000020000d9e        0x0 /usr/bin/../lib/gcc/arm-none-eabi/4.9.3/../../../../arm-none-eabi/lib/armv7-m/libm.a(lib_a-wf_sqrt.o)
 .bss           0x0000000020000d9e        0x0 /usr/bin/../lib/gcc/arm-none-eabi/4.9.3/../../../../arm-none-eabi/lib/armv7-m/libm.a(lib_a-ef_sqrt.o)
 .bss           0x0000000020000d9e        0x0 /usr/bin/../lib/gcc/arm-none-eabi/4.9.3/../../../../arm-none-eabi/lib/armv7-m/libm.a(lib_a-s_lib_ver.o)
 .bss           0x0000000020000d9e        0x0 /usr/bin/../lib/gcc/arm-none-eabi/4.9.3/../../../../arm-none-eabi/lib/armv7-m/libm.a(lib_a-s_matherr.o)
 .bss           0x0000000020000d9e        0x0 /usr/bin/../lib/gcc/arm-none-eabi/4.9.3/armv7-m/libgcc.a(_lshrdi3.o)
 .bss           0x0000000020000d9e        0x0 /usr/bin/../lib/gcc/arm-none-eabi/4.9.3/armv7-m/libgcc.a(_arm_addsubdf3.o)
 .bss           0x0000000020000d9e        0x0 /usr/bin/../lib/gcc/arm-none-eabi/4.9.3/armv7-m/libgcc.a(_arm_muldivdf3.o)
 .bss           0x0000000020000d9e        0x0 /usr/bin/../lib/gcc/arm-none-eabi/4.9.3/armv7-m/libgcc.a(_arm_truncdfsf2.o)
 .bss           0x0000000020000d9e        0x0 /usr/bin/../lib/gcc/arm-none-eabi/4.9.3/armv7-m/libgcc.a(_arm_addsubsf3.o)
 .bss           0x0000000020000d9e        0x0 /usr/bin/../lib/gcc/arm-none-eabi/4.9.3/armv7-m/libgcc.a(_arm_muldivsf3.o)
 .bss           0x0000000020000d9e        0x0 /usr/bin/../lib/gcc/arm-none-eabi/4.9.3/armv7-m/libgcc.a(_arm_cmpsf2.o)
 .bss           0x0000000020000d9e        0x0 /usr/bin/../lib/gcc/arm-none-eabi/4.9.3/armv7-m/libgcc.a(_arm_unordsf2.o)
 .bss           0x0000000020000d9e        0x0 /usr/bin/../lib/gcc/arm-none-eabi/4.9.3/armv7-m/libgcc.a(_arm_fixsfsi.o)
 .bss           0x0000000020000d9e        0x0 /usr/bin/../lib/gcc/arm-none-eabi/4.9.3/armv7-m/libgcc.a(_arm_fixunssfsi.o)
 .bss           0x0000000020000d9e        0x0 /usr/bin/../lib/gcc/arm-none-eabi/4.9.3/armv7-m/libgcc.a(_aeabi_uldivmod.o)
 .bss           0x0000000020000d9e        0x0 /usr/bin/../lib/gcc/arm-none-eabi/4.9.3/armv7-m/libgcc.a(bpabi.o)
 .bss           0x0000000020000d9e        0x0 /usr/bin/../lib/gcc/arm-none-eabi/4.9.3/armv7-m/libgcc.a(_dvmd_tls.o)
 .bss           0x0000000020000d9e        0x0 /usr/bin/../lib/gcc/arm-none-eabi/4.9.3/armv7-m/libgcc.a(_divdi3.o)
 .bss           0x0000000020000d9e        0x0 /usr/bin/../lib/gcc/arm-none-eabi/4.9.3/armv7-m/libgcc.a(_udivdi3.o)
 *(.gnu.linkonce.b.*)
 *(COMMON)
                0x0000000020000d9e                _ebss = ABSOLUTE (.)

.stab
 *(.stab)

.stabstr
 *(.stabstr)

.stab.excl
 *(.stab.excl)

.stab.exclstr
 *(.stab.exclstr)

.stab.index
 *(.stab.index)

.stab.indexstr
 *(.stab.indexstr)

.comment        0x0000000000000000       0x70
 *(.comment)
 .comment       0x0000000000000000       0x70 src/modules/px4iofirmware/CMakeFiles/px4io-v2.dir/adc.c.obj
                                         0x71 (size before relaxing)
 .comment       0x0000000000000000       0x71 src/modules/px4iofirmware/CMakeFiles/px4io-v2.dir/controls.c.obj
 .comment       0x0000000000000000       0x71 src/modules/px4iofirmware/CMakeFiles/px4io-v2.dir/px4io.c.obj
 .comment       0x0000000000000000       0x71 src/modules/px4iofirmware/CMakeFiles/px4io-v2.dir/registers.c.obj
 .comment       0x0000000000000000       0x71 src/modules/px4iofirmware/CMakeFiles/px4io-v2.dir/safety.c.obj
 .comment       0x0000000000000000       0x71 src/modules/px4iofirmware/CMakeFiles/px4io-v2.dir/__/systemlib/up_cxxinitialize.c.obj
 .comment       0x0000000000000000       0x71 src/modules/px4iofirmware/CMakeFiles/px4io-v2.dir/__/systemlib/perf_counter.c.obj
 .comment       0x0000000000000000       0x71 src/modules/px4iofirmware/CMakeFiles/px4io-v2.dir/mixer.cpp.obj
 .comment       0x0000000000000000       0x71 src/modules/px4iofirmware/CMakeFiles/px4io-v2.dir/__/systemlib/mixer/mixer.cpp.obj
 .comment       0x0000000000000000       0x71 src/modules/px4iofirmware/CMakeFiles/px4io-v2.dir/__/systemlib/mixer/mixer_group.cpp.obj
 .comment       0x0000000000000000       0x71 src/modules/px4iofirmware/CMakeFiles/px4io-v2.dir/__/systemlib/mixer/mixer_multirotor.cpp.obj
 .comment       0x0000000000000000       0x71 src/modules/px4iofirmware/CMakeFiles/px4io-v2.dir/__/systemlib/mixer/mixer_simple.cpp.obj
 .comment       0x0000000000000000       0x71 src/modules/px4iofirmware/CMakeFiles/px4io-v2.dir/__/systemlib/pwm_limit/pwm_limit.c.obj
 .comment       0x0000000000000000       0x71 src/modules/px4iofirmware/CMakeFiles/px4io-v2.dir/__/__/lib/rc/st24.c.obj
 .comment       0x0000000000000000       0x71 src/modules/px4iofirmware/CMakeFiles/px4io-v2.dir/__/__/lib/rc/sumd.c.obj
 .comment       0x0000000000000000       0x71 src/modules/px4iofirmware/CMakeFiles/px4io-v2.dir/__/__/lib/rc/sbus.c.obj
 .comment       0x0000000000000000       0x71 src/modules/px4iofirmware/CMakeFiles/px4io-v2.dir/__/__/lib/rc/dsm.c.obj
 .comment       0x0000000000000000       0x71 src/modules/px4iofirmware/CMakeFiles/px4io-v2.dir/__/__/drivers/stm32/drv_hrt.c.obj
 .comment       0x0000000000000000       0x71 src/modules/px4iofirmware/CMakeFiles/px4io-v2.dir/__/__/drivers/stm32/drv_io_timer.c.obj
 .comment       0x0000000000000000       0x71 src/modules/px4iofirmware/CMakeFiles/px4io-v2.dir/__/__/drivers/stm32/drv_pwm_servo.c.obj
 .comment       0x0000000000000000       0x71 src/modules/px4iofirmware/CMakeFiles/px4io-v2.dir/__/__/drivers/boards/px4io-v2/px4io_init.c.obj
 .comment       0x0000000000000000       0x71 src/modules/px4iofirmware/CMakeFiles/px4io-v2.dir/__/__/drivers/boards/px4io-v2/px4io_timer_config.c.obj
 .comment       0x0000000000000000       0x71 src/modules/px4iofirmware/CMakeFiles/px4io-v2.dir/serial.c.obj
 .comment       0x0000000000000000       0x71 src/modules/px4iofirmware/CMakeFiles/px4io-v2.dir/__/systemlib/hx_stream.c.obj
 .comment       0x0000000000000000       0x71 /home/tuofeichen/SLAM/MAV-Project/Firmware/build_px4fmu-v2_lpe/px4io-v2/NuttX/nuttx-export/libs/libnuttx.a(sched-irq_attach.o)
 .comment       0x0000000000000000       0x71 /home/tuofeichen/SLAM/MAV-Project/Firmware/build_px4fmu-v2_lpe/px4io-v2/NuttX/nuttx-export/libs/libnuttx.a(sched-irq_initialize.o)
 .comment       0x0000000000000000       0x71 /home/tuofeichen/SLAM/MAV-Project/Firmware/build_px4fmu-v2_lpe/px4io-v2/NuttX/nuttx-export/libs/libnuttx.a(sched-irq_unexpectedisr.o)
 .comment       0x0000000000000000       0x71 /home/tuofeichen/SLAM/MAV-Project/Firmware/build_px4fmu-v2_lpe/px4io-v2/NuttX/nuttx-export/libs/libnuttx.a(c-lib_abort.o)
 .comment       0x0000000000000000       0x71 /home/tuofeichen/SLAM/MAV-Project/Firmware/build_px4fmu-v2_lpe/px4io-v2/NuttX/nuttx-export/libs/libnuttx.a(c-lib_cfsetspeed.o)
 .comment       0x0000000000000000       0x71 /home/tuofeichen/SLAM/MAV-Project/Firmware/build_px4fmu-v2_lpe/px4io-v2/NuttX/nuttx-export/libs/libnuttx.a(c-lib_crc32.o)
 .comment       0x0000000000000000       0x71 /home/tuofeichen/SLAM/MAV-Project/Firmware/build_px4fmu-v2_lpe/px4io-v2/NuttX/nuttx-export/libs/libnuttx.a(c-lib_dprintf.o)
 .comment       0x0000000000000000       0x71 /home/tuofeichen/SLAM/MAV-Project/Firmware/build_px4fmu-v2_lpe/px4io-v2/NuttX/nuttx-export/libs/libnuttx.a(c-lib_lowsyslog.o)
 .comment       0x0000000000000000       0x71 /home/tuofeichen/SLAM/MAV-Project/Firmware/build_px4fmu-v2_lpe/px4io-v2/NuttX/nuttx-export/libs/libnuttx.a(c-lib_memchr.o)
 .comment       0x0000000000000000       0x71 /home/tuofeichen/SLAM/MAV-Project/Firmware/build_px4fmu-v2_lpe/px4io-v2/NuttX/nuttx-export/libs/libnuttx.a(c-lib_memcpy.o)
 .comment       0x0000000000000000       0x71 /home/tuofeichen/SLAM/MAV-Project/Firmware/build_px4fmu-v2_lpe/px4io-v2/NuttX/nuttx-export/libs/libnuttx.a(c-lib_memset.o)
 .comment       0x0000000000000000       0x71 /home/tuofeichen/SLAM/MAV-Project/Firmware/build_px4fmu-v2_lpe/px4io-v2/NuttX/nuttx-export/libs/libnuttx.a(c-lib_printf.o)
 .comment       0x0000000000000000       0x71 /home/tuofeichen/SLAM/MAV-Project/Firmware/build_px4fmu-v2_lpe/px4io-v2/NuttX/nuttx-export/libs/libnuttx.a(c-lib_sscanf.o)
 .comment       0x0000000000000000       0x71 /home/tuofeichen/SLAM/MAV-Project/Firmware/build_px4fmu-v2_lpe/px4io-v2/NuttX/nuttx-export/libs/libnuttx.a(c-lib_strchr.o)
 .comment       0x0000000000000000       0x71 /home/tuofeichen/SLAM/MAV-Project/Firmware/build_px4fmu-v2_lpe/px4io-v2/NuttX/nuttx-export/libs/libnuttx.a(c-lib_strcmp.o)
 .comment       0x0000000000000000       0x71 /home/tuofeichen/SLAM/MAV-Project/Firmware/build_px4fmu-v2_lpe/px4io-v2/NuttX/nuttx-export/libs/libnuttx.a(c-lib_strcspn.o)
 .comment       0x0000000000000000       0x71 /home/tuofeichen/SLAM/MAV-Project/Firmware/build_px4fmu-v2_lpe/px4io-v2/NuttX/nuttx-export/libs/libnuttx.a(c-lib_strncpy.o)
 .comment       0x0000000000000000       0x71 /home/tuofeichen/SLAM/MAV-Project/Firmware/build_px4fmu-v2_lpe/px4io-v2/NuttX/nuttx-export/libs/libnuttx.a(c-lib_strtol.o)
 .comment       0x0000000000000000       0x71 /home/tuofeichen/SLAM/MAV-Project/Firmware/build_px4fmu-v2_lpe/px4io-v2/NuttX/nuttx-export/libs/libnuttx.a(c-lib_strtoul.o)
 .comment       0x0000000000000000       0x71 /home/tuofeichen/SLAM/MAV-Project/Firmware/build_px4fmu-v2_lpe/px4io-v2/NuttX/nuttx-export/libs/libnuttx.a(c-lib_syslog.o)
 .comment       0x0000000000000000       0x71 /home/tuofeichen/SLAM/MAV-Project/Firmware/build_px4fmu-v2_lpe/px4io-v2/NuttX/nuttx-export/libs/libnuttx.a(c-lib_tcgetattr.o)
 .comment       0x0000000000000000       0x71 /home/tuofeichen/SLAM/MAV-Project/Firmware/build_px4fmu-v2_lpe/px4io-v2/NuttX/nuttx-export/libs/libnuttx.a(c-lib_tcsetattr.o)
 .comment       0x0000000000000000       0x71 /home/tuofeichen/SLAM/MAV-Project/Firmware/build_px4fmu-v2_lpe/px4io-v2/NuttX/nuttx-export/libs/libnuttx.a(c-lib_vdprintf.o)
 .comment       0x0000000000000000       0x71 /home/tuofeichen/SLAM/MAV-Project/Firmware/build_px4fmu-v2_lpe/px4io-v2/NuttX/nuttx-export/libs/libnuttx.a(c-lib_vsnprintf.o)
 .comment       0x0000000000000000       0x71 /home/tuofeichen/SLAM/MAV-Project/Firmware/build_px4fmu-v2_lpe/px4io-v2/NuttX/nuttx-export/libs/libnuttx.a(c-sq_addafter.o)
 .comment       0x0000000000000000       0x71 /home/tuofeichen/SLAM/MAV-Project/Firmware/build_px4fmu-v2_lpe/px4io-v2/NuttX/nuttx-export/libs/libnuttx.a(c-sq_addfirst.o)
 .comment       0x0000000000000000       0x71 /home/tuofeichen/SLAM/MAV-Project/Firmware/build_px4fmu-v2_lpe/px4io-v2/NuttX/nuttx-export/libs/libnuttx.a(c-sq_addlast.o)
 .comment       0x0000000000000000       0x71 /home/tuofeichen/SLAM/MAV-Project/Firmware/build_px4fmu-v2_lpe/px4io-v2/NuttX/nuttx-export/libs/libnuttx.a(c-sq_rem.o)
 .comment       0x0000000000000000       0x71 /home/tuofeichen/SLAM/MAV-Project/Firmware/build_px4fmu-v2_lpe/px4io-v2/NuttX/nuttx-export/libs/libnuttx.a(mm-mm_calloc.o)
 .comment       0x0000000000000000       0x71 /home/tuofeichen/SLAM/MAV-Project/Firmware/build_px4fmu-v2_lpe/px4io-v2/NuttX/nuttx-export/libs/libnuttx.a(mm-mm_free.o)
 .comment       0x0000000000000000       0x71 /home/tuofeichen/SLAM/MAV-Project/Firmware/build_px4fmu-v2_lpe/px4io-v2/NuttX/nuttx-export/libs/libnuttx.a(mm-mm_mallinfo.o)
 .comment       0x0000000000000000       0x71 /home/tuofeichen/SLAM/MAV-Project/Firmware/build_px4fmu-v2_lpe/px4io-v2/NuttX/nuttx-export/libs/libnuttx.a(mm-mm_malloc.o)
 .comment       0x0000000000000000       0x71 /home/tuofeichen/SLAM/MAV-Project/Firmware/build_px4fmu-v2_lpe/px4io-v2/NuttX/nuttx-export/libs/libnuttx.a(mm-mm_sem.o)
 .comment       0x0000000000000000       0x71 /home/tuofeichen/SLAM/MAV-Project/Firmware/build_px4fmu-v2_lpe/px4io-v2/NuttX/nuttx-export/libs/libnuttx.a(mm-mm_size2ndx.o)
 .comment       0x0000000000000000       0x71 /home/tuofeichen/SLAM/MAV-Project/Firmware/build_px4fmu-v2_lpe/px4io-v2/NuttX/nuttx-export/libs/libnuttx.a(mm-mm_user.o)
 .comment       0x0000000000000000       0x71 /home/tuofeichen/SLAM/MAV-Project/Firmware/build_px4fmu-v2_lpe/px4io-v2/NuttX/nuttx-export/libs/libnuttx.a(mm-mm_zalloc.o)
 .comment       0x0000000000000000       0x71 /home/tuofeichen/SLAM/MAV-Project/Firmware/build_px4fmu-v2_lpe/px4io-v2/NuttX/nuttx-export/libs/libnuttx.a(arch-stm32_dma.o)
 .comment       0x0000000000000000       0x71 /home/tuofeichen/SLAM/MAV-Project/Firmware/build_px4fmu-v2_lpe/px4io-v2/NuttX/nuttx-export/libs/libnuttx.a(arch-stm32_gpio.o)
 .comment       0x0000000000000000       0x71 /home/tuofeichen/SLAM/MAV-Project/Firmware/build_px4fmu-v2_lpe/px4io-v2/NuttX/nuttx-export/libs/libnuttx.a(arch-stm32_irq.o)
 .comment       0x0000000000000000       0x71 /home/tuofeichen/SLAM/MAV-Project/Firmware/build_px4fmu-v2_lpe/px4io-v2/NuttX/nuttx-export/libs/libnuttx.a(arch-stm32_serial.o)
 .comment       0x0000000000000000       0x71 /home/tuofeichen/SLAM/MAV-Project/Firmware/build_px4fmu-v2_lpe/px4io-v2/NuttX/nuttx-export/libs/libnuttx.a(arch-stm32_start.o)
 .comment       0x0000000000000000       0x71 /home/tuofeichen/SLAM/MAV-Project/Firmware/build_px4fmu-v2_lpe/px4io-v2/NuttX/nuttx-export/libs/libnuttx.a(arch-up_assert.o)
 .comment       0x0000000000000000       0x71 /home/tuofeichen/SLAM/MAV-Project/Firmware/build_px4fmu-v2_lpe/px4io-v2/NuttX/nuttx-export/libs/libnuttx.a(arch-up_hardfault.o)
 .comment       0x0000000000000000       0x71 /home/tuofeichen/SLAM/MAV-Project/Firmware/build_px4fmu-v2_lpe/px4io-v2/NuttX/nuttx-export/libs/libnuttx.a(arch-up_modifyreg32.o)
 .comment       0x0000000000000000       0x71 /home/tuofeichen/SLAM/MAV-Project/Firmware/build_px4fmu-v2_lpe/px4io-v2/NuttX/nuttx-export/libs/libnuttx.a(arch-up_svcall.o)
 .comment       0x0000000000000000       0x71 /home/tuofeichen/SLAM/MAV-Project/Firmware/build_px4fmu-v2_lpe/px4io-v2/NuttX/nuttx-export/libs/libnuttx.a(arch-up_systemreset.o)
 .comment       0x0000000000000000       0x71 /home/tuofeichen/SLAM/MAV-Project/Firmware/build_px4fmu-v2_lpe/px4io-v2/NuttX/nuttx-export/libs/libnuttx.a(arch-up_udelay.o)
 .comment       0x0000000000000000       0x71 /home/tuofeichen/SLAM/MAV-Project/Firmware/build_px4fmu-v2_lpe/px4io-v2/NuttX/nuttx-export/libs/libnuttx.a(arch-up_vectors.o)
 .comment       0x0000000000000000       0x71 /home/tuofeichen/SLAM/MAV-Project/Firmware/build_px4fmu-v2_lpe/px4io-v2/NuttX/nuttx-export/libs/libnuttx.a(cxx-libxx_cxa_atexit.o)
 .comment       0x0000000000000000       0x71 /home/tuofeichen/SLAM/MAV-Project/Firmware/build_px4fmu-v2_lpe/px4io-v2/NuttX/nuttx-export/libs/libnuttx.a(cxx-libxx_cxapurevirtual.o)
 .comment       0x0000000000000000       0x71 /home/tuofeichen/SLAM/MAV-Project/Firmware/build_px4fmu-v2_lpe/px4io-v2/NuttX/nuttx-export/libs/libnuttx.a(cxx-libxx_delete.o)
 .comment       0x0000000000000000       0x71 /home/tuofeichen/SLAM/MAV-Project/Firmware/build_px4fmu-v2_lpe/px4io-v2/NuttX/nuttx-export/libs/libnuttx.a(cxx-libxx_eabi_atexit.o)
 .comment       0x0000000000000000       0x71 /home/tuofeichen/SLAM/MAV-Project/Firmware/build_px4fmu-v2_lpe/px4io-v2/NuttX/nuttx-export/libs/libnuttx.a(cxx-libxx_new.o)
 .comment       0x0000000000000000       0x71 /home/tuofeichen/SLAM/MAV-Project/Firmware/build_px4fmu-v2_lpe/px4io-v2/NuttX/nuttx-export/libs/libnuttx.a(fs-fs_ioctl.o)
 .comment       0x0000000000000000       0x71 /home/tuofeichen/SLAM/MAV-Project/Firmware/build_px4fmu-v2_lpe/px4io-v2/NuttX/nuttx-export/libs/libnuttx.a(fs-fs_open.o)
 .comment       0x0000000000000000       0x71 /home/tuofeichen/SLAM/MAV-Project/Firmware/build_px4fmu-v2_lpe/px4io-v2/NuttX/nuttx-export/libs/libnuttx.a(fs-fs_read.o)
 .comment       0x0000000000000000       0x71 /home/tuofeichen/SLAM/MAV-Project/Firmware/build_px4fmu-v2_lpe/px4io-v2/NuttX/nuttx-export/libs/libnuttx.a(fs-fs_write.o)
 .comment       0x0000000000000000       0x71 /home/tuofeichen/SLAM/MAV-Project/Firmware/build_px4fmu-v2_lpe/px4io-v2/NuttX/nuttx-export/libs/libnuttx.a(drivers-serialirq.o)
 .comment       0x0000000000000000       0x71 /home/tuofeichen/SLAM/MAV-Project/Firmware/build_px4fmu-v2_lpe/px4io-v2/NuttX/nuttx-export/libs/libnuttx.a(drivers-serial.o)
 .comment       0x0000000000000000       0x71 /home/tuofeichen/SLAM/MAV-Project/Firmware/build_px4fmu-v2_lpe/px4io-v2/NuttX/nuttx-export/libs/libnuttx.a(sched-errno_getptr.o)
 .comment       0x0000000000000000       0x71 /home/tuofeichen/SLAM/MAV-Project/Firmware/build_px4fmu-v2_lpe/px4io-v2/NuttX/nuttx-export/libs/libnuttx.a(sched-exit.o)
 .comment       0x0000000000000000       0x71 /home/tuofeichen/SLAM/MAV-Project/Firmware/build_px4fmu-v2_lpe/px4io-v2/NuttX/nuttx-export/libs/libnuttx.a(sched-getpid.o)
 .comment       0x0000000000000000       0x71 /home/tuofeichen/SLAM/MAV-Project/Firmware/build_px4fmu-v2_lpe/px4io-v2/NuttX/nuttx-export/libs/libnuttx.a(sched-os_start.o)
 .comment       0x0000000000000000       0x71 /home/tuofeichen/SLAM/MAV-Project/Firmware/build_px4fmu-v2_lpe/px4io-v2/NuttX/nuttx-export/libs/libnuttx.a(sched-sched_garbage.o)
 .comment       0x0000000000000000       0x71 /home/tuofeichen/SLAM/MAV-Project/Firmware/build_px4fmu-v2_lpe/px4io-v2/NuttX/nuttx-export/libs/libnuttx.a(sched-sched_getfiles.o)
 .comment       0x0000000000000000       0x71 /home/tuofeichen/SLAM/MAV-Project/Firmware/build_px4fmu-v2_lpe/px4io-v2/NuttX/nuttx-export/libs/libnuttx.a(sched-sem_post.o)
 .comment       0x0000000000000000       0x71 /home/tuofeichen/SLAM/MAV-Project/Firmware/build_px4fmu-v2_lpe/px4io-v2/NuttX/nuttx-export/libs/libnuttx.a(sched-sem_trywait.o)
 .comment       0x0000000000000000       0x71 /home/tuofeichen/SLAM/MAV-Project/Firmware/build_px4fmu-v2_lpe/px4io-v2/NuttX/nuttx-export/libs/libnuttx.a(sched-sem_wait.o)
 .comment       0x0000000000000000       0x71 /home/tuofeichen/SLAM/MAV-Project/Firmware/build_px4fmu-v2_lpe/px4io-v2/NuttX/nuttx-export/libs/libnuttx.a(sched-task_exithook.o)
 .comment       0x0000000000000000       0x71 /home/tuofeichen/SLAM/MAV-Project/Firmware/build_px4fmu-v2_lpe/px4io-v2/NuttX/nuttx-export/libs/libnuttx.a(sched-task_recover.o)
 .comment       0x0000000000000000       0x71 /home/tuofeichen/SLAM/MAV-Project/Firmware/build_px4fmu-v2_lpe/px4io-v2/NuttX/nuttx-export/libs/libnuttx.a(sched-wd_cancel.o)
 .comment       0x0000000000000000       0x71 /home/tuofeichen/SLAM/MAV-Project/Firmware/build_px4fmu-v2_lpe/px4io-v2/NuttX/nuttx-export/libs/libnuttx.a(sched-wd_delete.o)
 .comment       0x0000000000000000       0x71 /home/tuofeichen/SLAM/MAV-Project/Firmware/build_px4fmu-v2_lpe/px4io-v2/NuttX/nuttx-export/libs/libnuttx.a(sched-wd_initialize.o)
 .comment       0x0000000000000000       0x71 /home/tuofeichen/SLAM/MAV-Project/Firmware/build_px4fmu-v2_lpe/px4io-v2/NuttX/nuttx-export/libs/libnuttx.a(c-dq_addfirst.o)
 .comment       0x0000000000000000       0x71 /home/tuofeichen/SLAM/MAV-Project/Firmware/build_px4fmu-v2_lpe/px4io-v2/NuttX/nuttx-export/libs/libnuttx.a(c-lib_cfgetspeed.o)
 .comment       0x0000000000000000       0x71 /home/tuofeichen/SLAM/MAV-Project/Firmware/build_px4fmu-v2_lpe/px4io-v2/NuttX/nuttx-export/libs/libnuttx.a(c-lib_checkbase.o)
 .comment       0x0000000000000000       0x71 /home/tuofeichen/SLAM/MAV-Project/Firmware/build_px4fmu-v2_lpe/px4io-v2/NuttX/nuttx-export/libs/libnuttx.a(c-lib_isbasedigit.o)
 .comment       0x0000000000000000       0x71 /home/tuofeichen/SLAM/MAV-Project/Firmware/build_px4fmu-v2_lpe/px4io-v2/NuttX/nuttx-export/libs/libnuttx.a(c-lib_libvsprintf.o)
 .comment       0x0000000000000000       0x71 /home/tuofeichen/SLAM/MAV-Project/Firmware/build_px4fmu-v2_lpe/px4io-v2/NuttX/nuttx-export/libs/libnuttx.a(c-lib_lowoutstream.o)
 .comment       0x0000000000000000       0x71 /home/tuofeichen/SLAM/MAV-Project/Firmware/build_px4fmu-v2_lpe/px4io-v2/NuttX/nuttx-export/libs/libnuttx.a(c-lib_memoutstream.o)
 .comment       0x0000000000000000       0x71 /home/tuofeichen/SLAM/MAV-Project/Firmware/build_px4fmu-v2_lpe/px4io-v2/NuttX/nuttx-export/libs/libnuttx.a(c-lib_nulloutstream.o)
 .comment       0x0000000000000000       0x71 /home/tuofeichen/SLAM/MAV-Project/Firmware/build_px4fmu-v2_lpe/px4io-v2/NuttX/nuttx-export/libs/libnuttx.a(c-lib_rawoutstream.o)
 .comment       0x0000000000000000       0x71 /home/tuofeichen/SLAM/MAV-Project/Firmware/build_px4fmu-v2_lpe/px4io-v2/NuttX/nuttx-export/libs/libnuttx.a(c-lib_skipspace.o)
 .comment       0x0000000000000000       0x71 /home/tuofeichen/SLAM/MAV-Project/Firmware/build_px4fmu-v2_lpe/px4io-v2/NuttX/nuttx-export/libs/libnuttx.a(c-lib_strcpy.o)
 .comment       0x0000000000000000       0x71 /home/tuofeichen/SLAM/MAV-Project/Firmware/build_px4fmu-v2_lpe/px4io-v2/NuttX/nuttx-export/libs/libnuttx.a(c-lib_strlen.o)
 .comment       0x0000000000000000       0x71 /home/tuofeichen/SLAM/MAV-Project/Firmware/build_px4fmu-v2_lpe/px4io-v2/NuttX/nuttx-export/libs/libnuttx.a(c-sem_init.o)
 .comment       0x0000000000000000       0x71 /home/tuofeichen/SLAM/MAV-Project/Firmware/build_px4fmu-v2_lpe/px4io-v2/NuttX/nuttx-export/libs/libnuttx.a(c-sq_remafter.o)
 .comment       0x0000000000000000       0x71 /home/tuofeichen/SLAM/MAV-Project/Firmware/build_px4fmu-v2_lpe/px4io-v2/NuttX/nuttx-export/libs/libnuttx.a(c-sq_remfirst.o)
 .comment       0x0000000000000000       0x71 /home/tuofeichen/SLAM/MAV-Project/Firmware/build_px4fmu-v2_lpe/px4io-v2/NuttX/nuttx-export/libs/libnuttx.a(mm-mm_addfreechunk.o)
 .comment       0x0000000000000000       0x71 /home/tuofeichen/SLAM/MAV-Project/Firmware/build_px4fmu-v2_lpe/px4io-v2/NuttX/nuttx-export/libs/libnuttx.a(mm-mm_initialize.o)
 .comment       0x0000000000000000       0x71 /home/tuofeichen/SLAM/MAV-Project/Firmware/build_px4fmu-v2_lpe/px4io-v2/NuttX/nuttx-export/libs/libnuttx.a(arch-stm32_allocateheap.o)
 .comment       0x0000000000000000       0x71 /home/tuofeichen/SLAM/MAV-Project/Firmware/build_px4fmu-v2_lpe/px4io-v2/NuttX/nuttx-export/libs/libnuttx.a(arch-stm32_idle.o)
 .comment       0x0000000000000000       0x71 /home/tuofeichen/SLAM/MAV-Project/Firmware/build_px4fmu-v2_lpe/px4io-v2/NuttX/nuttx-export/libs/libnuttx.a(arch-stm32_lowputc.o)
 .comment       0x0000000000000000       0x71 /home/tuofeichen/SLAM/MAV-Project/Firmware/build_px4fmu-v2_lpe/px4io-v2/NuttX/nuttx-export/libs/libnuttx.a(arch-stm32_rcc.o)
 .comment       0x0000000000000000       0x71 /home/tuofeichen/SLAM/MAV-Project/Firmware/build_px4fmu-v2_lpe/px4io-v2/NuttX/nuttx-export/libs/libnuttx.a(arch-up_blocktask.o)
 .comment       0x0000000000000000       0x71 /home/tuofeichen/SLAM/MAV-Project/Firmware/build_px4fmu-v2_lpe/px4io-v2/NuttX/nuttx-export/libs/libnuttx.a(arch-up_copystate.o)
 .comment       0x0000000000000000       0x71 /home/tuofeichen/SLAM/MAV-Project/Firmware/build_px4fmu-v2_lpe/px4io-v2/NuttX/nuttx-export/libs/libnuttx.a(arch-up_exit.o)
 .comment       0x0000000000000000       0x71 /home/tuofeichen/SLAM/MAV-Project/Firmware/build_px4fmu-v2_lpe/px4io-v2/NuttX/nuttx-export/libs/libnuttx.a(arch-up_initialize.o)
 .comment       0x0000000000000000       0x71 /home/tuofeichen/SLAM/MAV-Project/Firmware/build_px4fmu-v2_lpe/px4io-v2/NuttX/nuttx-export/libs/libnuttx.a(arch-up_initialstate.o)
 .comment       0x0000000000000000       0x71 /home/tuofeichen/SLAM/MAV-Project/Firmware/build_px4fmu-v2_lpe/px4io-v2/NuttX/nuttx-export/libs/libnuttx.a(arch-up_interruptcontext.o)
 .comment       0x0000000000000000       0x71 /home/tuofeichen/SLAM/MAV-Project/Firmware/build_px4fmu-v2_lpe/px4io-v2/NuttX/nuttx-export/libs/libnuttx.a(arch-up_mdelay.o)
 .comment       0x0000000000000000       0x71 /home/tuofeichen/SLAM/MAV-Project/Firmware/build_px4fmu-v2_lpe/px4io-v2/NuttX/nuttx-export/libs/libnuttx.a(arch-up_unblocktask.o)
 .comment       0x0000000000000000       0x71 /home/tuofeichen/SLAM/MAV-Project/Firmware/build_px4fmu-v2_lpe/px4io-v2/NuttX/nuttx-export/libs/libnuttx.a(fs-fs_files.o)
 .comment       0x0000000000000000       0x71 /home/tuofeichen/SLAM/MAV-Project/Firmware/build_px4fmu-v2_lpe/px4io-v2/NuttX/nuttx-export/libs/libnuttx.a(fs-fs_inodeaddref.o)
 .comment       0x0000000000000000       0x71 /home/tuofeichen/SLAM/MAV-Project/Firmware/build_px4fmu-v2_lpe/px4io-v2/NuttX/nuttx-export/libs/libnuttx.a(fs-fs_inodefind.o)
 .comment       0x0000000000000000       0x71 /home/tuofeichen/SLAM/MAV-Project/Firmware/build_px4fmu-v2_lpe/px4io-v2/NuttX/nuttx-export/libs/libnuttx.a(fs-fs_inode.o)
 .comment       0x0000000000000000       0x71 /home/tuofeichen/SLAM/MAV-Project/Firmware/build_px4fmu-v2_lpe/px4io-v2/NuttX/nuttx-export/libs/libnuttx.a(fs-fs_inoderelease.o)
 .comment       0x0000000000000000       0x71 /home/tuofeichen/SLAM/MAV-Project/Firmware/build_px4fmu-v2_lpe/px4io-v2/NuttX/nuttx-export/libs/libnuttx.a(fs-fs_registerdriver.o)
 .comment       0x0000000000000000       0x71 /home/tuofeichen/SLAM/MAV-Project/Firmware/build_px4fmu-v2_lpe/px4io-v2/NuttX/nuttx-export/libs/libnuttx.a(sched-group_create.o)
 .comment       0x0000000000000000       0x71 /home/tuofeichen/SLAM/MAV-Project/Firmware/build_px4fmu-v2_lpe/px4io-v2/NuttX/nuttx-export/libs/libnuttx.a(sched-group_leave.o)
 .comment       0x0000000000000000       0x71 /home/tuofeichen/SLAM/MAV-Project/Firmware/build_px4fmu-v2_lpe/px4io-v2/NuttX/nuttx-export/libs/libnuttx.a(sched-group_setupidlefiles.o)
 .comment       0x0000000000000000       0x71 /home/tuofeichen/SLAM/MAV-Project/Firmware/build_px4fmu-v2_lpe/px4io-v2/NuttX/nuttx-export/libs/libnuttx.a(sched-os_bringup.o)
 .comment       0x0000000000000000       0x71 /home/tuofeichen/SLAM/MAV-Project/Firmware/build_px4fmu-v2_lpe/px4io-v2/NuttX/nuttx-export/libs/libnuttx.a(sched-sched_addblocked.o)
 .comment       0x0000000000000000       0x71 /home/tuofeichen/SLAM/MAV-Project/Firmware/build_px4fmu-v2_lpe/px4io-v2/NuttX/nuttx-export/libs/libnuttx.a(sched-sched_addprioritized.o)
 .comment       0x0000000000000000       0x71 /home/tuofeichen/SLAM/MAV-Project/Firmware/build_px4fmu-v2_lpe/px4io-v2/NuttX/nuttx-export/libs/libnuttx.a(sched-sched_addreadytorun.o)
 .comment       0x0000000000000000       0x71 /home/tuofeichen/SLAM/MAV-Project/Firmware/build_px4fmu-v2_lpe/px4io-v2/NuttX/nuttx-export/libs/libnuttx.a(sched-sched_free.o)
 .comment       0x0000000000000000       0x71 /home/tuofeichen/SLAM/MAV-Project/Firmware/build_px4fmu-v2_lpe/px4io-v2/NuttX/nuttx-export/libs/libnuttx.a(sched-sched_mergepending.o)
 .comment       0x0000000000000000       0x71 /home/tuofeichen/SLAM/MAV-Project/Firmware/build_px4fmu-v2_lpe/px4io-v2/NuttX/nuttx-export/libs/libnuttx.a(sched-sched_removeblocked.o)
 .comment       0x0000000000000000       0x71 /home/tuofeichen/SLAM/MAV-Project/Firmware/build_px4fmu-v2_lpe/px4io-v2/NuttX/nuttx-export/libs/libnuttx.a(sched-sched_removereadytorun.o)
 .comment       0x0000000000000000       0x71 /home/tuofeichen/SLAM/MAV-Project/Firmware/build_px4fmu-v2_lpe/px4io-v2/NuttX/nuttx-export/libs/libnuttx.a(sched-sem_destroy.o)
 .comment       0x0000000000000000       0x71 /home/tuofeichen/SLAM/MAV-Project/Firmware/build_px4fmu-v2_lpe/px4io-v2/NuttX/nuttx-export/libs/libnuttx.a(sched-task_create.o)
 .comment       0x0000000000000000       0x71 /home/tuofeichen/SLAM/MAV-Project/Firmware/build_px4fmu-v2_lpe/px4io-v2/NuttX/nuttx-export/libs/libnuttx.a(sched-task_exit.o)
 .comment       0x0000000000000000       0x71 /home/tuofeichen/SLAM/MAV-Project/Firmware/build_px4fmu-v2_lpe/px4io-v2/NuttX/nuttx-export/libs/libnuttx.a(sched-task_setup.o)
 .comment       0x0000000000000000       0x71 /home/tuofeichen/SLAM/MAV-Project/Firmware/build_px4fmu-v2_lpe/px4io-v2/NuttX/nuttx-export/libs/libnuttx.a(sched-task_start.o)
 .comment       0x0000000000000000       0x71 /home/tuofeichen/SLAM/MAV-Project/Firmware/build_px4fmu-v2_lpe/px4io-v2/NuttX/nuttx-export/libs/libnuttx.a(sched-task_terminate.o)
 .comment       0x0000000000000000       0x71 /home/tuofeichen/SLAM/MAV-Project/Firmware/build_px4fmu-v2_lpe/px4io-v2/NuttX/nuttx-export/libs/libnuttx.a(c-dq_addlast.o)
 .comment       0x0000000000000000       0x71 /home/tuofeichen/SLAM/MAV-Project/Firmware/build_px4fmu-v2_lpe/px4io-v2/NuttX/nuttx-export/libs/libnuttx.a(c-dq_rem.o)
 .comment       0x0000000000000000       0x71 /home/tuofeichen/SLAM/MAV-Project/Firmware/build_px4fmu-v2_lpe/px4io-v2/NuttX/nuttx-export/libs/libnuttx.a(c-lib_strdup.o)
 .comment       0x0000000000000000       0x71 /home/tuofeichen/SLAM/MAV-Project/Firmware/build_px4fmu-v2_lpe/px4io-v2/NuttX/nuttx-export/libs/libnuttx.a(arch-stm32_timerisr.o)
 .comment       0x0000000000000000       0x71 /home/tuofeichen/SLAM/MAV-Project/Firmware/build_px4fmu-v2_lpe/px4io-v2/NuttX/nuttx-export/libs/libnuttx.a(arch-up_createstack.o)
 .comment       0x0000000000000000       0x71 /home/tuofeichen/SLAM/MAV-Project/Firmware/build_px4fmu-v2_lpe/px4io-v2/NuttX/nuttx-export/libs/libnuttx.a(arch-up_doirq.o)
 .comment       0x0000000000000000       0x71 /home/tuofeichen/SLAM/MAV-Project/Firmware/build_px4fmu-v2_lpe/px4io-v2/NuttX/nuttx-export/libs/libnuttx.a(arch-up_releasestack.o)
 .comment       0x0000000000000000       0x71 /home/tuofeichen/SLAM/MAV-Project/Firmware/build_px4fmu-v2_lpe/px4io-v2/NuttX/nuttx-export/libs/libnuttx.a(fs-fs_close.o)
 .comment       0x0000000000000000       0x71 /home/tuofeichen/SLAM/MAV-Project/Firmware/build_px4fmu-v2_lpe/px4io-v2/NuttX/nuttx-export/libs/libnuttx.a(fs-fs_filedup2.o)
 .comment       0x0000000000000000       0x71 /home/tuofeichen/SLAM/MAV-Project/Firmware/build_px4fmu-v2_lpe/px4io-v2/NuttX/nuttx-export/libs/libnuttx.a(fs-fs_inodereserve.o)
 .comment       0x0000000000000000       0x71 /home/tuofeichen/SLAM/MAV-Project/Firmware/build_px4fmu-v2_lpe/px4io-v2/NuttX/nuttx-export/libs/libnuttx.a(sched-group_setuptaskfiles.o)
 .comment       0x0000000000000000       0x71 /home/tuofeichen/SLAM/MAV-Project/Firmware/build_px4fmu-v2_lpe/px4io-v2/NuttX/nuttx-export/libs/libnuttx.a(sched-irq_dispatch.o)
 .comment       0x0000000000000000       0x71 /home/tuofeichen/SLAM/MAV-Project/Firmware/build_px4fmu-v2_lpe/px4io-v2/NuttX/nuttx-export/libs/libnuttx.a(sched-sched_gettcb.o)
 .comment       0x0000000000000000       0x71 /home/tuofeichen/SLAM/MAV-Project/Firmware/build_px4fmu-v2_lpe/px4io-v2/NuttX/nuttx-export/libs/libnuttx.a(sched-sched_lock.o)
 .comment       0x0000000000000000       0x71 /home/tuofeichen/SLAM/MAV-Project/Firmware/build_px4fmu-v2_lpe/px4io-v2/NuttX/nuttx-export/libs/libnuttx.a(sched-sched_processtimer.o)
 .comment       0x0000000000000000       0x71 /home/tuofeichen/SLAM/MAV-Project/Firmware/build_px4fmu-v2_lpe/px4io-v2/NuttX/nuttx-export/libs/libnuttx.a(sched-sched_releasetcb.o)
 .comment       0x0000000000000000       0x71 /home/tuofeichen/SLAM/MAV-Project/Firmware/build_px4fmu-v2_lpe/px4io-v2/NuttX/nuttx-export/libs/libnuttx.a(sched-sched_unlock.o)
 .comment       0x0000000000000000       0x71 /home/tuofeichen/SLAM/MAV-Project/Firmware/build_px4fmu-v2_lpe/px4io-v2/NuttX/nuttx-export/libs/libnuttx.a(sched-task_activate.o)
 .comment       0x0000000000000000       0x71 /home/tuofeichen/SLAM/MAV-Project/Firmware/build_px4fmu-v2_lpe/px4io-v2/NuttX/nuttx-export/libs/libnuttx.a(arch-up_releasepending.o)

.ARM.attributes
                0x0000000000000000       0x31
 .ARM.attributes
                0x0000000000000000       0x2f src/modules/px4iofirmware/CMakeFiles/px4io-v2.dir/adc.c.obj
 .ARM.attributes
                0x000000000000002f       0x2f src/modules/px4iofirmware/CMakeFiles/px4io-v2.dir/controls.c.obj
 .ARM.attributes
                0x000000000000005e       0x2f src/modules/px4iofirmware/CMakeFiles/px4io-v2.dir/px4io.c.obj
 .ARM.attributes
                0x000000000000008d       0x2f src/modules/px4iofirmware/CMakeFiles/px4io-v2.dir/registers.c.obj
 .ARM.attributes
                0x00000000000000bc       0x2f src/modules/px4iofirmware/CMakeFiles/px4io-v2.dir/safety.c.obj
 .ARM.attributes
                0x00000000000000eb       0x2f src/modules/px4iofirmware/CMakeFiles/px4io-v2.dir/__/systemlib/up_cxxinitialize.c.obj
 .ARM.attributes
                0x000000000000011a       0x2f src/modules/px4iofirmware/CMakeFiles/px4io-v2.dir/__/systemlib/perf_counter.c.obj
 .ARM.attributes
                0x0000000000000149       0x2f src/modules/px4iofirmware/CMakeFiles/px4io-v2.dir/mixer.cpp.obj
 .ARM.attributes
                0x0000000000000178       0x2f src/modules/px4iofirmware/CMakeFiles/px4io-v2.dir/__/systemlib/mixer/mixer.cpp.obj
 .ARM.attributes
                0x00000000000001a7       0x2f src/modules/px4iofirmware/CMakeFiles/px4io-v2.dir/__/systemlib/mixer/mixer_group.cpp.obj
 .ARM.attributes
                0x00000000000001d6       0x2f src/modules/px4iofirmware/CMakeFiles/px4io-v2.dir/__/systemlib/mixer/mixer_multirotor.cpp.obj
 .ARM.attributes
                0x0000000000000205       0x2f src/modules/px4iofirmware/CMakeFiles/px4io-v2.dir/__/systemlib/mixer/mixer_simple.cpp.obj
 .ARM.attributes
                0x0000000000000234       0x2f src/modules/px4iofirmware/CMakeFiles/px4io-v2.dir/__/systemlib/pwm_limit/pwm_limit.c.obj
 .ARM.attributes
                0x0000000000000263       0x2f src/modules/px4iofirmware/CMakeFiles/px4io-v2.dir/__/__/lib/rc/st24.c.obj
 .ARM.attributes
                0x0000000000000292       0x2f src/modules/px4iofirmware/CMakeFiles/px4io-v2.dir/__/__/lib/rc/sumd.c.obj
 .ARM.attributes
                0x00000000000002c1       0x2f src/modules/px4iofirmware/CMakeFiles/px4io-v2.dir/__/__/lib/rc/sbus.c.obj
 .ARM.attributes
                0x00000000000002f0       0x2f src/modules/px4iofirmware/CMakeFiles/px4io-v2.dir/__/__/lib/rc/dsm.c.obj
 .ARM.attributes
                0x000000000000031f       0x2f src/modules/px4iofirmware/CMakeFiles/px4io-v2.dir/__/__/drivers/stm32/drv_hrt.c.obj
 .ARM.attributes
                0x000000000000034e       0x2f src/modules/px4iofirmware/CMakeFiles/px4io-v2.dir/__/__/drivers/stm32/drv_io_timer.c.obj
 .ARM.attributes
                0x000000000000037d       0x2f src/modules/px4iofirmware/CMakeFiles/px4io-v2.dir/__/__/drivers/stm32/drv_pwm_servo.c.obj
 .ARM.attributes
                0x00000000000003ac       0x2f src/modules/px4iofirmware/CMakeFiles/px4io-v2.dir/__/__/drivers/boards/px4io-v2/px4io_init.c.obj
 .ARM.attributes
                0x00000000000003db       0x2f src/modules/px4iofirmware/CMakeFiles/px4io-v2.dir/__/__/drivers/boards/px4io-v2/px4io_timer_config.c.obj
 .ARM.attributes
                0x000000000000040a       0x2f src/modules/px4iofirmware/CMakeFiles/px4io-v2.dir/serial.c.obj
 .ARM.attributes
                0x0000000000000439       0x2f src/modules/px4iofirmware/CMakeFiles/px4io-v2.dir/__/systemlib/hx_stream.c.obj
 .ARM.attributes
                0x0000000000000468       0x2f /home/tuofeichen/SLAM/MAV-Project/Firmware/build_px4fmu-v2_lpe/px4io-v2/NuttX/nuttx-export/libs/libnuttx.a(sched-irq_attach.o)
 .ARM.attributes
                0x0000000000000497       0x2f /home/tuofeichen/SLAM/MAV-Project/Firmware/build_px4fmu-v2_lpe/px4io-v2/NuttX/nuttx-export/libs/libnuttx.a(sched-irq_initialize.o)
 .ARM.attributes
                0x00000000000004c6       0x2f /home/tuofeichen/SLAM/MAV-Project/Firmware/build_px4fmu-v2_lpe/px4io-v2/NuttX/nuttx-export/libs/libnuttx.a(sched-irq_unexpectedisr.o)
 .ARM.attributes
                0x00000000000004f5       0x2f /home/tuofeichen/SLAM/MAV-Project/Firmware/build_px4fmu-v2_lpe/px4io-v2/NuttX/nuttx-export/libs/libnuttx.a(c-lib_abort.o)
 .ARM.attributes
                0x0000000000000524       0x2f /home/tuofeichen/SLAM/MAV-Project/Firmware/build_px4fmu-v2_lpe/px4io-v2/NuttX/nuttx-export/libs/libnuttx.a(c-lib_cfsetspeed.o)
 .ARM.attributes
                0x0000000000000553       0x2f /home/tuofeichen/SLAM/MAV-Project/Firmware/build_px4fmu-v2_lpe/px4io-v2/NuttX/nuttx-export/libs/libnuttx.a(c-lib_crc32.o)
 .ARM.attributes
                0x0000000000000582       0x2f /home/tuofeichen/SLAM/MAV-Project/Firmware/build_px4fmu-v2_lpe/px4io-v2/NuttX/nuttx-export/libs/libnuttx.a(c-lib_dprintf.o)
 .ARM.attributes
                0x00000000000005b1       0x2f /home/tuofeichen/SLAM/MAV-Project/Firmware/build_px4fmu-v2_lpe/px4io-v2/NuttX/nuttx-export/libs/libnuttx.a(c-lib_lowsyslog.o)
 .ARM.attributes
                0x00000000000005e0       0x2f /home/tuofeichen/SLAM/MAV-Project/Firmware/build_px4fmu-v2_lpe/px4io-v2/NuttX/nuttx-export/libs/libnuttx.a(c-lib_memchr.o)
 .ARM.attributes
                0x000000000000060f       0x2f /home/tuofeichen/SLAM/MAV-Project/Firmware/build_px4fmu-v2_lpe/px4io-v2/NuttX/nuttx-export/libs/libnuttx.a(c-lib_memcpy.o)
 .ARM.attributes
                0x000000000000063e       0x2f /home/tuofeichen/SLAM/MAV-Project/Firmware/build_px4fmu-v2_lpe/px4io-v2/NuttX/nuttx-export/libs/libnuttx.a(c-lib_memset.o)
 .ARM.attributes
                0x000000000000066d       0x2f /home/tuofeichen/SLAM/MAV-Project/Firmware/build_px4fmu-v2_lpe/px4io-v2/NuttX/nuttx-export/libs/libnuttx.a(c-lib_printf.o)
 .ARM.attributes
                0x000000000000069c       0x2f /home/tuofeichen/SLAM/MAV-Project/Firmware/build_px4fmu-v2_lpe/px4io-v2/NuttX/nuttx-export/libs/libnuttx.a(c-lib_sscanf.o)
 .ARM.attributes
                0x00000000000006cb       0x2f /home/tuofeichen/SLAM/MAV-Project/Firmware/build_px4fmu-v2_lpe/px4io-v2/NuttX/nuttx-export/libs/libnuttx.a(c-lib_strchr.o)
 .ARM.attributes
                0x00000000000006fa       0x2f /home/tuofeichen/SLAM/MAV-Project/Firmware/build_px4fmu-v2_lpe/px4io-v2/NuttX/nuttx-export/libs/libnuttx.a(c-lib_strcmp.o)
 .ARM.attributes
                0x0000000000000729       0x2f /home/tuofeichen/SLAM/MAV-Project/Firmware/build_px4fmu-v2_lpe/px4io-v2/NuttX/nuttx-export/libs/libnuttx.a(c-lib_strcspn.o)
 .ARM.attributes
                0x0000000000000758       0x2f /home/tuofeichen/SLAM/MAV-Project/Firmware/build_px4fmu-v2_lpe/px4io-v2/NuttX/nuttx-export/libs/libnuttx.a(c-lib_strncpy.o)
 .ARM.attributes
                0x0000000000000787       0x2f /home/tuofeichen/SLAM/MAV-Project/Firmware/build_px4fmu-v2_lpe/px4io-v2/NuttX/nuttx-export/libs/libnuttx.a(c-lib_strtol.o)
 .ARM.attributes
                0x00000000000007b6       0x2f /home/tuofeichen/SLAM/MAV-Project/Firmware/build_px4fmu-v2_lpe/px4io-v2/NuttX/nuttx-export/libs/libnuttx.a(c-lib_strtoul.o)
 .ARM.attributes
                0x00000000000007e5       0x2f /home/tuofeichen/SLAM/MAV-Project/Firmware/build_px4fmu-v2_lpe/px4io-v2/NuttX/nuttx-export/libs/libnuttx.a(c-lib_syslog.o)
 .ARM.attributes
                0x0000000000000814       0x2f /home/tuofeichen/SLAM/MAV-Project/Firmware/build_px4fmu-v2_lpe/px4io-v2/NuttX/nuttx-export/libs/libnuttx.a(c-lib_tcgetattr.o)
 .ARM.attributes
                0x0000000000000843       0x2f /home/tuofeichen/SLAM/MAV-Project/Firmware/build_px4fmu-v2_lpe/px4io-v2/NuttX/nuttx-export/libs/libnuttx.a(c-lib_tcsetattr.o)
 .ARM.attributes
                0x0000000000000872       0x2f /home/tuofeichen/SLAM/MAV-Project/Firmware/build_px4fmu-v2_lpe/px4io-v2/NuttX/nuttx-export/libs/libnuttx.a(c-lib_vdprintf.o)
 .ARM.attributes
                0x00000000000008a1       0x2f /home/tuofeichen/SLAM/MAV-Project/Firmware/build_px4fmu-v2_lpe/px4io-v2/NuttX/nuttx-export/libs/libnuttx.a(c-lib_vsnprintf.o)
 .ARM.attributes
                0x00000000000008d0       0x2f /home/tuofeichen/SLAM/MAV-Project/Firmware/build_px4fmu-v2_lpe/px4io-v2/NuttX/nuttx-export/libs/libnuttx.a(c-sq_addafter.o)
 .ARM.attributes
                0x00000000000008ff       0x2f /home/tuofeichen/SLAM/MAV-Project/Firmware/build_px4fmu-v2_lpe/px4io-v2/NuttX/nuttx-export/libs/libnuttx.a(c-sq_addfirst.o)
 .ARM.attributes
                0x000000000000092e       0x2f /home/tuofeichen/SLAM/MAV-Project/Firmware/build_px4fmu-v2_lpe/px4io-v2/NuttX/nuttx-export/libs/libnuttx.a(c-sq_addlast.o)
 .ARM.attributes
                0x000000000000095d       0x2f /home/tuofeichen/SLAM/MAV-Project/Firmware/build_px4fmu-v2_lpe/px4io-v2/NuttX/nuttx-export/libs/libnuttx.a(c-sq_rem.o)
 .ARM.attributes
                0x000000000000098c       0x2f /home/tuofeichen/SLAM/MAV-Project/Firmware/build_px4fmu-v2_lpe/px4io-v2/NuttX/nuttx-export/libs/libnuttx.a(mm-mm_calloc.o)
 .ARM.attributes
                0x00000000000009bb       0x2f /home/tuofeichen/SLAM/MAV-Project/Firmware/build_px4fmu-v2_lpe/px4io-v2/NuttX/nuttx-export/libs/libnuttx.a(mm-mm_free.o)
 .ARM.attributes
                0x00000000000009ea       0x2f /home/tuofeichen/SLAM/MAV-Project/Firmware/build_px4fmu-v2_lpe/px4io-v2/NuttX/nuttx-export/libs/libnuttx.a(mm-mm_mallinfo.o)
 .ARM.attributes
                0x0000000000000a19       0x2f /home/tuofeichen/SLAM/MAV-Project/Firmware/build_px4fmu-v2_lpe/px4io-v2/NuttX/nuttx-export/libs/libnuttx.a(mm-mm_malloc.o)
 .ARM.attributes
                0x0000000000000a48       0x2f /home/tuofeichen/SLAM/MAV-Project/Firmware/build_px4fmu-v2_lpe/px4io-v2/NuttX/nuttx-export/libs/libnuttx.a(mm-mm_sem.o)
 .ARM.attributes
                0x0000000000000a77       0x2f /home/tuofeichen/SLAM/MAV-Project/Firmware/build_px4fmu-v2_lpe/px4io-v2/NuttX/nuttx-export/libs/libnuttx.a(mm-mm_size2ndx.o)
 .ARM.attributes
                0x0000000000000aa6       0x2f /home/tuofeichen/SLAM/MAV-Project/Firmware/build_px4fmu-v2_lpe/px4io-v2/NuttX/nuttx-export/libs/libnuttx.a(mm-mm_user.o)
 .ARM.attributes
                0x0000000000000ad5       0x2f /home/tuofeichen/SLAM/MAV-Project/Firmware/build_px4fmu-v2_lpe/px4io-v2/NuttX/nuttx-export/libs/libnuttx.a(mm-mm_zalloc.o)
 .ARM.attributes
                0x0000000000000b04       0x2f /home/tuofeichen/SLAM/MAV-Project/Firmware/build_px4fmu-v2_lpe/px4io-v2/NuttX/nuttx-export/libs/libnuttx.a(arch-stm32_dma.o)
 .ARM.attributes
                0x0000000000000b33       0x2f /home/tuofeichen/SLAM/MAV-Project/Firmware/build_px4fmu-v2_lpe/px4io-v2/NuttX/nuttx-export/libs/libnuttx.a(arch-stm32_gpio.o)
 .ARM.attributes
                0x0000000000000b62       0x2f /home/tuofeichen/SLAM/MAV-Project/Firmware/build_px4fmu-v2_lpe/px4io-v2/NuttX/nuttx-export/libs/libnuttx.a(arch-stm32_irq.o)
 .ARM.attributes
                0x0000000000000b91       0x2f /home/tuofeichen/SLAM/MAV-Project/Firmware/build_px4fmu-v2_lpe/px4io-v2/NuttX/nuttx-export/libs/libnuttx.a(arch-stm32_serial.o)
 .ARM.attributes
                0x0000000000000bc0       0x2f /home/tuofeichen/SLAM/MAV-Project/Firmware/build_px4fmu-v2_lpe/px4io-v2/NuttX/nuttx-export/libs/libnuttx.a(arch-stm32_start.o)
 .ARM.attributes
                0x0000000000000bef       0x2f /home/tuofeichen/SLAM/MAV-Project/Firmware/build_px4fmu-v2_lpe/px4io-v2/NuttX/nuttx-export/libs/libnuttx.a(arch-up_assert.o)
 .ARM.attributes
                0x0000000000000c1e       0x2f /home/tuofeichen/SLAM/MAV-Project/Firmware/build_px4fmu-v2_lpe/px4io-v2/NuttX/nuttx-export/libs/libnuttx.a(arch-up_hardfault.o)
 .ARM.attributes
                0x0000000000000c4d       0x2f /home/tuofeichen/SLAM/MAV-Project/Firmware/build_px4fmu-v2_lpe/px4io-v2/NuttX/nuttx-export/libs/libnuttx.a(arch-up_modifyreg32.o)
 .ARM.attributes
                0x0000000000000c7c       0x2f /home/tuofeichen/SLAM/MAV-Project/Firmware/build_px4fmu-v2_lpe/px4io-v2/NuttX/nuttx-export/libs/libnuttx.a(arch-up_svcall.o)
 .ARM.attributes
                0x0000000000000cab       0x2f /home/tuofeichen/SLAM/MAV-Project/Firmware/build_px4fmu-v2_lpe/px4io-v2/NuttX/nuttx-export/libs/libnuttx.a(arch-up_systemreset.o)
 .ARM.attributes
                0x0000000000000cda       0x2f /home/tuofeichen/SLAM/MAV-Project/Firmware/build_px4fmu-v2_lpe/px4io-v2/NuttX/nuttx-export/libs/libnuttx.a(arch-up_udelay.o)
 .ARM.attributes
                0x0000000000000d09       0x2f /home/tuofeichen/SLAM/MAV-Project/Firmware/build_px4fmu-v2_lpe/px4io-v2/NuttX/nuttx-export/libs/libnuttx.a(arch-up_vectors.o)
 .ARM.attributes
                0x0000000000000d38       0x2f /home/tuofeichen/SLAM/MAV-Project/Firmware/build_px4fmu-v2_lpe/px4io-v2/NuttX/nuttx-export/libs/libnuttx.a(cxx-libxx_cxa_atexit.o)
 .ARM.attributes
                0x0000000000000d67       0x2f /home/tuofeichen/SLAM/MAV-Project/Firmware/build_px4fmu-v2_lpe/px4io-v2/NuttX/nuttx-export/libs/libnuttx.a(cxx-libxx_cxapurevirtual.o)
 .ARM.attributes
                0x0000000000000d96       0x2f /home/tuofeichen/SLAM/MAV-Project/Firmware/build_px4fmu-v2_lpe/px4io-v2/NuttX/nuttx-export/libs/libnuttx.a(cxx-libxx_delete.o)
 .ARM.attributes
                0x0000000000000dc5       0x2f /home/tuofeichen/SLAM/MAV-Project/Firmware/build_px4fmu-v2_lpe/px4io-v2/NuttX/nuttx-export/libs/libnuttx.a(cxx-libxx_eabi_atexit.o)
 .ARM.attributes
                0x0000000000000df4       0x2f /home/tuofeichen/SLAM/MAV-Project/Firmware/build_px4fmu-v2_lpe/px4io-v2/NuttX/nuttx-export/libs/libnuttx.a(cxx-libxx_new.o)
 .ARM.attributes
                0x0000000000000e23       0x2f /home/tuofeichen/SLAM/MAV-Project/Firmware/build_px4fmu-v2_lpe/px4io-v2/NuttX/nuttx-export/libs/libnuttx.a(fs-fs_ioctl.o)
 .ARM.attributes
                0x0000000000000e52       0x2f /home/tuofeichen/SLAM/MAV-Project/Firmware/build_px4fmu-v2_lpe/px4io-v2/NuttX/nuttx-export/libs/libnuttx.a(fs-fs_open.o)
 .ARM.attributes
                0x0000000000000e81       0x2f /home/tuofeichen/SLAM/MAV-Project/Firmware/build_px4fmu-v2_lpe/px4io-v2/NuttX/nuttx-export/libs/libnuttx.a(fs-fs_read.o)
 .ARM.attributes
                0x0000000000000eb0       0x2f /home/tuofeichen/SLAM/MAV-Project/Firmware/build_px4fmu-v2_lpe/px4io-v2/NuttX/nuttx-export/libs/libnuttx.a(fs-fs_write.o)
 .ARM.attributes
                0x0000000000000edf       0x2f /home/tuofeichen/SLAM/MAV-Project/Firmware/build_px4fmu-v2_lpe/px4io-v2/NuttX/nuttx-export/libs/libnuttx.a(drivers-serialirq.o)
 .ARM.attributes
                0x0000000000000f0e       0x2f /home/tuofeichen/SLAM/MAV-Project/Firmware/build_px4fmu-v2_lpe/px4io-v2/NuttX/nuttx-export/libs/libnuttx.a(drivers-serial.o)
 .ARM.attributes
                0x0000000000000f3d       0x2f /home/tuofeichen/SLAM/MAV-Project/Firmware/build_px4fmu-v2_lpe/px4io-v2/NuttX/nuttx-export/libs/libnuttx.a(sched-errno_getptr.o)
 .ARM.attributes
                0x0000000000000f6c       0x2f /home/tuofeichen/SLAM/MAV-Project/Firmware/build_px4fmu-v2_lpe/px4io-v2/NuttX/nuttx-export/libs/libnuttx.a(sched-exit.o)
 .ARM.attributes
                0x0000000000000f9b       0x2f /home/tuofeichen/SLAM/MAV-Project/Firmware/build_px4fmu-v2_lpe/px4io-v2/NuttX/nuttx-export/libs/libnuttx.a(sched-getpid.o)
 .ARM.attributes
                0x0000000000000fca       0x2f /home/tuofeichen/SLAM/MAV-Project/Firmware/build_px4fmu-v2_lpe/px4io-v2/NuttX/nuttx-export/libs/libnuttx.a(sched-os_start.o)
 .ARM.attributes
                0x0000000000000ff9       0x2f /home/tuofeichen/SLAM/MAV-Project/Firmware/build_px4fmu-v2_lpe/px4io-v2/NuttX/nuttx-export/libs/libnuttx.a(sched-sched_garbage.o)
 .ARM.attributes
                0x0000000000001028       0x2f /home/tuofeichen/SLAM/MAV-Project/Firmware/build_px4fmu-v2_lpe/px4io-v2/NuttX/nuttx-export/libs/libnuttx.a(sched-sched_getfiles.o)
 .ARM.attributes
                0x0000000000001057       0x2f /home/tuofeichen/SLAM/MAV-Project/Firmware/build_px4fmu-v2_lpe/px4io-v2/NuttX/nuttx-export/libs/libnuttx.a(sched-sem_post.o)
 .ARM.attributes
                0x0000000000001086       0x2f /home/tuofeichen/SLAM/MAV-Project/Firmware/build_px4fmu-v2_lpe/px4io-v2/NuttX/nuttx-export/libs/libnuttx.a(sched-sem_trywait.o)
 .ARM.attributes
                0x00000000000010b5       0x2f /home/tuofeichen/SLAM/MAV-Project/Firmware/build_px4fmu-v2_lpe/px4io-v2/NuttX/nuttx-export/libs/libnuttx.a(sched-sem_wait.o)
 .ARM.attributes
                0x00000000000010e4       0x2f /home/tuofeichen/SLAM/MAV-Project/Firmware/build_px4fmu-v2_lpe/px4io-v2/NuttX/nuttx-export/libs/libnuttx.a(sched-task_exithook.o)
 .ARM.attributes
                0x0000000000001113       0x2f /home/tuofeichen/SLAM/MAV-Project/Firmware/build_px4fmu-v2_lpe/px4io-v2/NuttX/nuttx-export/libs/libnuttx.a(sched-task_recover.o)
 .ARM.attributes
                0x0000000000001142       0x2f /home/tuofeichen/SLAM/MAV-Project/Firmware/build_px4fmu-v2_lpe/px4io-v2/NuttX/nuttx-export/libs/libnuttx.a(sched-wd_cancel.o)
 .ARM.attributes
                0x0000000000001171       0x2f /home/tuofeichen/SLAM/MAV-Project/Firmware/build_px4fmu-v2_lpe/px4io-v2/NuttX/nuttx-export/libs/libnuttx.a(sched-wd_delete.o)
 .ARM.attributes
                0x00000000000011a0       0x2f /home/tuofeichen/SLAM/MAV-Project/Firmware/build_px4fmu-v2_lpe/px4io-v2/NuttX/nuttx-export/libs/libnuttx.a(sched-wd_initialize.o)
 .ARM.attributes
                0x00000000000011cf       0x2f /home/tuofeichen/SLAM/MAV-Project/Firmware/build_px4fmu-v2_lpe/px4io-v2/NuttX/nuttx-export/libs/libnuttx.a(c-dq_addfirst.o)
 .ARM.attributes
                0x00000000000011fe       0x2f /home/tuofeichen/SLAM/MAV-Project/Firmware/build_px4fmu-v2_lpe/px4io-v2/NuttX/nuttx-export/libs/libnuttx.a(c-lib_cfgetspeed.o)
 .ARM.attributes
                0x000000000000122d       0x2f /home/tuofeichen/SLAM/MAV-Project/Firmware/build_px4fmu-v2_lpe/px4io-v2/NuttX/nuttx-export/libs/libnuttx.a(c-lib_checkbase.o)
 .ARM.attributes
                0x000000000000125c       0x2f /home/tuofeichen/SLAM/MAV-Project/Firmware/build_px4fmu-v2_lpe/px4io-v2/NuttX/nuttx-export/libs/libnuttx.a(c-lib_isbasedigit.o)
 .ARM.attributes
                0x000000000000128b       0x2f /home/tuofeichen/SLAM/MAV-Project/Firmware/build_px4fmu-v2_lpe/px4io-v2/NuttX/nuttx-export/libs/libnuttx.a(c-lib_libvsprintf.o)
 .ARM.attributes
                0x00000000000012ba       0x2f /home/tuofeichen/SLAM/MAV-Project/Firmware/build_px4fmu-v2_lpe/px4io-v2/NuttX/nuttx-export/libs/libnuttx.a(c-lib_lowoutstream.o)
 .ARM.attributes
                0x00000000000012e9       0x2f /home/tuofeichen/SLAM/MAV-Project/Firmware/build_px4fmu-v2_lpe/px4io-v2/NuttX/nuttx-export/libs/libnuttx.a(c-lib_memoutstream.o)
 .ARM.attributes
                0x0000000000001318       0x2f /home/tuofeichen/SLAM/MAV-Project/Firmware/build_px4fmu-v2_lpe/px4io-v2/NuttX/nuttx-export/libs/libnuttx.a(c-lib_nulloutstream.o)
 .ARM.attributes
                0x0000000000001347       0x2f /home/tuofeichen/SLAM/MAV-Project/Firmware/build_px4fmu-v2_lpe/px4io-v2/NuttX/nuttx-export/libs/libnuttx.a(c-lib_rawoutstream.o)
 .ARM.attributes
                0x0000000000001376       0x2f /home/tuofeichen/SLAM/MAV-Project/Firmware/build_px4fmu-v2_lpe/px4io-v2/NuttX/nuttx-export/libs/libnuttx.a(c-lib_skipspace.o)
 .ARM.attributes
                0x00000000000013a5       0x2f /home/tuofeichen/SLAM/MAV-Project/Firmware/build_px4fmu-v2_lpe/px4io-v2/NuttX/nuttx-export/libs/libnuttx.a(c-lib_strcpy.o)
 .ARM.attributes
                0x00000000000013d4       0x2f /home/tuofeichen/SLAM/MAV-Project/Firmware/build_px4fmu-v2_lpe/px4io-v2/NuttX/nuttx-export/libs/libnuttx.a(c-lib_strlen.o)
 .ARM.attributes
                0x0000000000001403       0x2f /home/tuofeichen/SLAM/MAV-Project/Firmware/build_px4fmu-v2_lpe/px4io-v2/NuttX/nuttx-export/libs/libnuttx.a(c-sem_init.o)
 .ARM.attributes
                0x0000000000001432       0x2f /home/tuofeichen/SLAM/MAV-Project/Firmware/build_px4fmu-v2_lpe/px4io-v2/NuttX/nuttx-export/libs/libnuttx.a(c-sq_remafter.o)
 .ARM.attributes
                0x0000000000001461       0x2f /home/tuofeichen/SLAM/MAV-Project/Firmware/build_px4fmu-v2_lpe/px4io-v2/NuttX/nuttx-export/libs/libnuttx.a(c-sq_remfirst.o)
 .ARM.attributes
                0x0000000000001490       0x2f /home/tuofeichen/SLAM/MAV-Project/Firmware/build_px4fmu-v2_lpe/px4io-v2/NuttX/nuttx-export/libs/libnuttx.a(mm-mm_addfreechunk.o)
 .ARM.attributes
                0x00000000000014bf       0x2f /home/tuofeichen/SLAM/MAV-Project/Firmware/build_px4fmu-v2_lpe/px4io-v2/NuttX/nuttx-export/libs/libnuttx.a(mm-mm_initialize.o)
 .ARM.attributes
                0x00000000000014ee       0x2f /home/tuofeichen/SLAM/MAV-Project/Firmware/build_px4fmu-v2_lpe/px4io-v2/NuttX/nuttx-export/libs/libnuttx.a(arch-stm32_allocateheap.o)
 .ARM.attributes
                0x000000000000151d       0x2f /home/tuofeichen/SLAM/MAV-Project/Firmware/build_px4fmu-v2_lpe/px4io-v2/NuttX/nuttx-export/libs/libnuttx.a(arch-stm32_idle.o)
 .ARM.attributes
                0x000000000000154c       0x2f /home/tuofeichen/SLAM/MAV-Project/Firmware/build_px4fmu-v2_lpe/px4io-v2/NuttX/nuttx-export/libs/libnuttx.a(arch-stm32_lowputc.o)
 .ARM.attributes
                0x000000000000157b       0x2f /home/tuofeichen/SLAM/MAV-Project/Firmware/build_px4fmu-v2_lpe/px4io-v2/NuttX/nuttx-export/libs/libnuttx.a(arch-stm32_rcc.o)
 .ARM.attributes
                0x00000000000015aa       0x21 /home/tuofeichen/SLAM/MAV-Project/Firmware/build_px4fmu-v2_lpe/px4io-v2/NuttX/nuttx-export/libs/libnuttx.a(arch-stm32_vectors.o)
 .ARM.attributes
                0x00000000000015cb       0x2f /home/tuofeichen/SLAM/MAV-Project/Firmware/build_px4fmu-v2_lpe/px4io-v2/NuttX/nuttx-export/libs/libnuttx.a(arch-up_blocktask.o)
 .ARM.attributes
                0x00000000000015fa       0x2f /home/tuofeichen/SLAM/MAV-Project/Firmware/build_px4fmu-v2_lpe/px4io-v2/NuttX/nuttx-export/libs/libnuttx.a(arch-up_copystate.o)
 .ARM.attributes
                0x0000000000001629       0x21 /home/tuofeichen/SLAM/MAV-Project/Firmware/build_px4fmu-v2_lpe/px4io-v2/NuttX/nuttx-export/libs/libnuttx.a(arch-up_exception.o)
 .ARM.attributes
                0x000000000000164a       0x2f /home/tuofeichen/SLAM/MAV-Project/Firmware/build_px4fmu-v2_lpe/px4io-v2/NuttX/nuttx-export/libs/libnuttx.a(arch-up_exit.o)
 .ARM.attributes
                0x0000000000001679       0x21 /home/tuofeichen/SLAM/MAV-Project/Firmware/build_px4fmu-v2_lpe/px4io-v2/NuttX/nuttx-export/libs/libnuttx.a(arch-up_fullcontextrestore.o)
 .ARM.attributes
                0x000000000000169a       0x2f /home/tuofeichen/SLAM/MAV-Project/Firmware/build_px4fmu-v2_lpe/px4io-v2/NuttX/nuttx-export/libs/libnuttx.a(arch-up_initialize.o)
 .ARM.attributes
                0x00000000000016c9       0x2f /home/tuofeichen/SLAM/MAV-Project/Firmware/build_px4fmu-v2_lpe/px4io-v2/NuttX/nuttx-export/libs/libnuttx.a(arch-up_initialstate.o)
 .ARM.attributes
                0x00000000000016f8       0x2f /home/tuofeichen/SLAM/MAV-Project/Firmware/build_px4fmu-v2_lpe/px4io-v2/NuttX/nuttx-export/libs/libnuttx.a(arch-up_interruptcontext.o)
 .ARM.attributes
                0x0000000000001727       0x2f /home/tuofeichen/SLAM/MAV-Project/Firmware/build_px4fmu-v2_lpe/px4io-v2/NuttX/nuttx-export/libs/libnuttx.a(arch-up_mdelay.o)
 .ARM.attributes
                0x0000000000001756       0x21 /home/tuofeichen/SLAM/MAV-Project/Firmware/build_px4fmu-v2_lpe/px4io-v2/NuttX/nuttx-export/libs/libnuttx.a(arch-up_switchcontext.o)
 .ARM.attributes
                0x0000000000001777       0x2f /home/tuofeichen/SLAM/MAV-Project/Firmware/build_px4fmu-v2_lpe/px4io-v2/NuttX/nuttx-export/libs/libnuttx.a(arch-up_unblocktask.o)
 .ARM.attributes
                0x00000000000017a6       0x2f /home/tuofeichen/SLAM/MAV-Project/Firmware/build_px4fmu-v2_lpe/px4io-v2/NuttX/nuttx-export/libs/libnuttx.a(fs-fs_files.o)
 .ARM.attributes
                0x00000000000017d5       0x2f /home/tuofeichen/SLAM/MAV-Project/Firmware/build_px4fmu-v2_lpe/px4io-v2/NuttX/nuttx-export/libs/libnuttx.a(fs-fs_inodeaddref.o)
 .ARM.attributes
                0x0000000000001804       0x2f /home/tuofeichen/SLAM/MAV-Project/Firmware/build_px4fmu-v2_lpe/px4io-v2/NuttX/nuttx-export/libs/libnuttx.a(fs-fs_inodefind.o)
 .ARM.attributes
                0x0000000000001833       0x2f /home/tuofeichen/SLAM/MAV-Project/Firmware/build_px4fmu-v2_lpe/px4io-v2/NuttX/nuttx-export/libs/libnuttx.a(fs-fs_inode.o)
 .ARM.attributes
                0x0000000000001862       0x2f /home/tuofeichen/SLAM/MAV-Project/Firmware/build_px4fmu-v2_lpe/px4io-v2/NuttX/nuttx-export/libs/libnuttx.a(fs-fs_inoderelease.o)
 .ARM.attributes
                0x0000000000001891       0x2f /home/tuofeichen/SLAM/MAV-Project/Firmware/build_px4fmu-v2_lpe/px4io-v2/NuttX/nuttx-export/libs/libnuttx.a(fs-fs_registerdriver.o)
 .ARM.attributes
                0x00000000000018c0       0x2f /home/tuofeichen/SLAM/MAV-Project/Firmware/build_px4fmu-v2_lpe/px4io-v2/NuttX/nuttx-export/libs/libnuttx.a(sched-group_create.o)
 .ARM.attributes
                0x00000000000018ef       0x2f /home/tuofeichen/SLAM/MAV-Project/Firmware/build_px4fmu-v2_lpe/px4io-v2/NuttX/nuttx-export/libs/libnuttx.a(sched-group_leave.o)
 .ARM.attributes
                0x000000000000191e       0x2f /home/tuofeichen/SLAM/MAV-Project/Firmware/build_px4fmu-v2_lpe/px4io-v2/NuttX/nuttx-export/libs/libnuttx.a(sched-group_setupidlefiles.o)
 .ARM.attributes
                0x000000000000194d       0x2f /home/tuofeichen/SLAM/MAV-Project/Firmware/build_px4fmu-v2_lpe/px4io-v2/NuttX/nuttx-export/libs/libnuttx.a(sched-os_bringup.o)
 .ARM.attributes
                0x000000000000197c       0x2f /home/tuofeichen/SLAM/MAV-Project/Firmware/build_px4fmu-v2_lpe/px4io-v2/NuttX/nuttx-export/libs/libnuttx.a(sched-sched_addblocked.o)
 .ARM.attributes
                0x00000000000019ab       0x2f /home/tuofeichen/SLAM/MAV-Project/Firmware/build_px4fmu-v2_lpe/px4io-v2/NuttX/nuttx-export/libs/libnuttx.a(sched-sched_addprioritized.o)
 .ARM.attributes
                0x00000000000019da       0x2f /home/tuofeichen/SLAM/MAV-Project/Firmware/build_px4fmu-v2_lpe/px4io-v2/NuttX/nuttx-export/libs/libnuttx.a(sched-sched_addreadytorun.o)
 .ARM.attributes
                0x0000000000001a09       0x2f /home/tuofeichen/SLAM/MAV-Project/Firmware/build_px4fmu-v2_lpe/px4io-v2/NuttX/nuttx-export/libs/libnuttx.a(sched-sched_free.o)
 .ARM.attributes
                0x0000000000001a38       0x2f /home/tuofeichen/SLAM/MAV-Project/Firmware/build_px4fmu-v2_lpe/px4io-v2/NuttX/nuttx-export/libs/libnuttx.a(sched-sched_mergepending.o)
 .ARM.attributes
                0x0000000000001a67       0x2f /home/tuofeichen/SLAM/MAV-Project/Firmware/build_px4fmu-v2_lpe/px4io-v2/NuttX/nuttx-export/libs/libnuttx.a(sched-sched_removeblocked.o)
 .ARM.attributes
                0x0000000000001a96       0x2f /home/tuofeichen/SLAM/MAV-Project/Firmware/build_px4fmu-v2_lpe/px4io-v2/NuttX/nuttx-export/libs/libnuttx.a(sched-sched_removereadytorun.o)
 .ARM.attributes
                0x0000000000001ac5       0x2f /home/tuofeichen/SLAM/MAV-Project/Firmware/build_px4fmu-v2_lpe/px4io-v2/NuttX/nuttx-export/libs/libnuttx.a(sched-sem_destroy.o)
 .ARM.attributes
                0x0000000000001af4       0x2f /home/tuofeichen/SLAM/MAV-Project/Firmware/build_px4fmu-v2_lpe/px4io-v2/NuttX/nuttx-export/libs/libnuttx.a(sched-task_create.o)
 .ARM.attributes
                0x0000000000001b23       0x2f /home/tuofeichen/SLAM/MAV-Project/Firmware/build_px4fmu-v2_lpe/px4io-v2/NuttX/nuttx-export/libs/libnuttx.a(sched-task_exit.o)
 .ARM.attributes
                0x0000000000001b52       0x2f /home/tuofeichen/SLAM/MAV-Project/Firmware/build_px4fmu-v2_lpe/px4io-v2/NuttX/nuttx-export/libs/libnuttx.a(sched-task_setup.o)
 .ARM.attributes
                0x0000000000001b81       0x2f /home/tuofeichen/SLAM/MAV-Project/Firmware/build_px4fmu-v2_lpe/px4io-v2/NuttX/nuttx-export/libs/libnuttx.a(sched-task_start.o)
 .ARM.attributes
                0x0000000000001bb0       0x2f /home/tuofeichen/SLAM/MAV-Project/Firmware/build_px4fmu-v2_lpe/px4io-v2/NuttX/nuttx-export/libs/libnuttx.a(sched-task_terminate.o)
 .ARM.attributes
                0x0000000000001bdf       0x2f /home/tuofeichen/SLAM/MAV-Project/Firmware/build_px4fmu-v2_lpe/px4io-v2/NuttX/nuttx-export/libs/libnuttx.a(c-dq_addlast.o)
 .ARM.attributes
                0x0000000000001c0e       0x2f /home/tuofeichen/SLAM/MAV-Project/Firmware/build_px4fmu-v2_lpe/px4io-v2/NuttX/nuttx-export/libs/libnuttx.a(c-dq_rem.o)
 .ARM.attributes
                0x0000000000001c3d       0x2f /home/tuofeichen/SLAM/MAV-Project/Firmware/build_px4fmu-v2_lpe/px4io-v2/NuttX/nuttx-export/libs/libnuttx.a(c-lib_strdup.o)
 .ARM.attributes
                0x0000000000001c6c       0x2f /home/tuofeichen/SLAM/MAV-Project/Firmware/build_px4fmu-v2_lpe/px4io-v2/NuttX/nuttx-export/libs/libnuttx.a(arch-stm32_timerisr.o)
 .ARM.attributes
                0x0000000000001c9b       0x2f /home/tuofeichen/SLAM/MAV-Project/Firmware/build_px4fmu-v2_lpe/px4io-v2/NuttX/nuttx-export/libs/libnuttx.a(arch-up_createstack.o)
 .ARM.attributes
                0x0000000000001cca       0x2f /home/tuofeichen/SLAM/MAV-Project/Firmware/build_px4fmu-v2_lpe/px4io-v2/NuttX/nuttx-export/libs/libnuttx.a(arch-up_doirq.o)
 .ARM.attributes
                0x0000000000001cf9       0x2f /home/tuofeichen/SLAM/MAV-Project/Firmware/build_px4fmu-v2_lpe/px4io-v2/NuttX/nuttx-export/libs/libnuttx.a(arch-up_releasestack.o)
 .ARM.attributes
                0x0000000000001d28       0x2f /home/tuofeichen/SLAM/MAV-Project/Firmware/build_px4fmu-v2_lpe/px4io-v2/NuttX/nuttx-export/libs/libnuttx.a(fs-fs_close.o)
 .ARM.attributes
                0x0000000000001d57       0x2f /home/tuofeichen/SLAM/MAV-Project/Firmware/build_px4fmu-v2_lpe/px4io-v2/NuttX/nuttx-export/libs/libnuttx.a(fs-fs_filedup2.o)
 .ARM.attributes
                0x0000000000001d86       0x2f /home/tuofeichen/SLAM/MAV-Project/Firmware/build_px4fmu-v2_lpe/px4io-v2/NuttX/nuttx-export/libs/libnuttx.a(fs-fs_inodereserve.o)
 .ARM.attributes
                0x0000000000001db5       0x2f /home/tuofeichen/SLAM/MAV-Project/Firmware/build_px4fmu-v2_lpe/px4io-v2/NuttX/nuttx-export/libs/libnuttx.a(sched-group_setuptaskfiles.o)
 .ARM.attributes
                0x0000000000001de4       0x2f /home/tuofeichen/SLAM/MAV-Project/Firmware/build_px4fmu-v2_lpe/px4io-v2/NuttX/nuttx-export/libs/libnuttx.a(sched-irq_dispatch.o)
 .ARM.attributes
                0x0000000000001e13       0x2f /home/tuofeichen/SLAM/MAV-Project/Firmware/build_px4fmu-v2_lpe/px4io-v2/NuttX/nuttx-export/libs/libnuttx.a(sched-sched_gettcb.o)
 .ARM.attributes
                0x0000000000001e42       0x2f /home/tuofeichen/SLAM/MAV-Project/Firmware/build_px4fmu-v2_lpe/px4io-v2/NuttX/nuttx-export/libs/libnuttx.a(sched-sched_lock.o)
 .ARM.attributes
                0x0000000000001e71       0x2f /home/tuofeichen/SLAM/MAV-Project/Firmware/build_px4fmu-v2_lpe/px4io-v2/NuttX/nuttx-export/libs/libnuttx.a(sched-sched_processtimer.o)
 .ARM.attributes
                0x0000000000001ea0       0x2f /home/tuofeichen/SLAM/MAV-Project/Firmware/build_px4fmu-v2_lpe/px4io-v2/NuttX/nuttx-export/libs/libnuttx.a(sched-sched_releasetcb.o)
 .ARM.attributes
                0x0000000000001ecf       0x2f /home/tuofeichen/SLAM/MAV-Project/Firmware/build_px4fmu-v2_lpe/px4io-v2/NuttX/nuttx-export/libs/libnuttx.a(sched-sched_unlock.o)
 .ARM.attributes
                0x0000000000001efe       0x2f /home/tuofeichen/SLAM/MAV-Project/Firmware/build_px4fmu-v2_lpe/px4io-v2/NuttX/nuttx-export/libs/libnuttx.a(sched-task_activate.o)
 .ARM.attributes
                0x0000000000001f2d       0x2f /home/tuofeichen/SLAM/MAV-Project/Firmware/build_px4fmu-v2_lpe/px4io-v2/NuttX/nuttx-export/libs/libnuttx.a(arch-up_releasepending.o)
 .ARM.attributes
                0x0000000000001f5c       0x2d /usr/bin/../lib/gcc/arm-none-eabi/4.9.3/../../../../arm-none-eabi/lib/armv7-m/libm.a(lib_a-sf_fmin.o)
 .ARM.attributes
                0x0000000000001f89       0x2d /usr/bin/../lib/gcc/arm-none-eabi/4.9.3/../../../../arm-none-eabi/lib/armv7-m/libm.a(lib_a-sf_fpclassify.o)
 .ARM.attributes
                0x0000000000001fb6       0x2d /usr/bin/../lib/gcc/arm-none-eabi/4.9.3/../../../../arm-none-eabi/lib/armv7-m/libm.a(lib_a-wf_sqrt.o)
 .ARM.attributes
                0x0000000000001fe3       0x2d /usr/bin/../lib/gcc/arm-none-eabi/4.9.3/../../../../arm-none-eabi/lib/armv7-m/libm.a(lib_a-ef_sqrt.o)
 .ARM.attributes
                0x0000000000002010       0x2d /usr/bin/../lib/gcc/arm-none-eabi/4.9.3/../../../../arm-none-eabi/lib/armv7-m/libm.a(lib_a-s_lib_ver.o)
 .ARM.attributes
                0x000000000000203d       0x2d /usr/bin/../lib/gcc/arm-none-eabi/4.9.3/../../../../arm-none-eabi/lib/armv7-m/libm.a(lib_a-s_matherr.o)
 .ARM.attributes
                0x000000000000206a       0x1d /usr/bin/../lib/gcc/arm-none-eabi/4.9.3/armv7-m/libgcc.a(_lshrdi3.o)
 .ARM.attributes
                0x0000000000002087       0x1d /usr/bin/../lib/gcc/arm-none-eabi/4.9.3/armv7-m/libgcc.a(_arm_addsubdf3.o)
 .ARM.attributes
                0x00000000000020a4       0x1d /usr/bin/../lib/gcc/arm-none-eabi/4.9.3/armv7-m/libgcc.a(_arm_muldivdf3.o)
 .ARM.attributes
                0x00000000000020c1       0x1d /usr/bin/../lib/gcc/arm-none-eabi/4.9.3/armv7-m/libgcc.a(_arm_truncdfsf2.o)
 .ARM.attributes
                0x00000000000020de       0x1d /usr/bin/../lib/gcc/arm-none-eabi/4.9.3/armv7-m/libgcc.a(_arm_addsubsf3.o)
 .ARM.attributes
                0x00000000000020fb       0x1d /usr/bin/../lib/gcc/arm-none-eabi/4.9.3/armv7-m/libgcc.a(_arm_muldivsf3.o)
 .ARM.attributes
                0x0000000000002118       0x1d /usr/bin/../lib/gcc/arm-none-eabi/4.9.3/armv7-m/libgcc.a(_arm_cmpsf2.o)
 .ARM.attributes
                0x0000000000002135       0x1d /usr/bin/../lib/gcc/arm-none-eabi/4.9.3/armv7-m/libgcc.a(_arm_unordsf2.o)
 .ARM.attributes
                0x0000000000002152       0x1d /usr/bin/../lib/gcc/arm-none-eabi/4.9.3/armv7-m/libgcc.a(_arm_fixsfsi.o)
 .ARM.attributes
                0x000000000000216f       0x1d /usr/bin/../lib/gcc/arm-none-eabi/4.9.3/armv7-m/libgcc.a(_arm_fixunssfsi.o)
 .ARM.attributes
                0x000000000000218c       0x1d /usr/bin/../lib/gcc/arm-none-eabi/4.9.3/armv7-m/libgcc.a(_aeabi_uldivmod.o)
 .ARM.attributes
                0x00000000000021a9       0x2d /usr/bin/../lib/gcc/arm-none-eabi/4.9.3/armv7-m/libgcc.a(bpabi.o)
 .ARM.attributes
                0x00000000000021d6       0x1d /usr/bin/../lib/gcc/arm-none-eabi/4.9.3/armv7-m/libgcc.a(_dvmd_tls.o)
 .ARM.attributes
                0x00000000000021f3       0x2d /usr/bin/../lib/gcc/arm-none-eabi/4.9.3/armv7-m/libgcc.a(_divdi3.o)
 .ARM.attributes
                0x0000000000002220       0x2d /usr/bin/../lib/gcc/arm-none-eabi/4.9.3/armv7-m/libgcc.a(_udivdi3.o)

.debug_abbrev   0x0000000000000000     0xf7c7
 *(.debug_abbrev)
 .debug_abbrev  0x0000000000000000      0x167 src/modules/px4iofirmware/CMakeFiles/px4io-v2.dir/adc.c.obj
 .debug_abbrev  0x0000000000000167      0x2e2 src/modules/px4iofirmware/CMakeFiles/px4io-v2.dir/controls.c.obj
 .debug_abbrev  0x0000000000000449      0x30d src/modules/px4iofirmware/CMakeFiles/px4io-v2.dir/px4io.c.obj
 .debug_abbrev  0x0000000000000756      0x298 src/modules/px4iofirmware/CMakeFiles/px4io-v2.dir/registers.c.obj
 .debug_abbrev  0x00000000000009ee      0x1f2 src/modules/px4iofirmware/CMakeFiles/px4io-v2.dir/safety.c.obj
 .debug_abbrev  0x0000000000000be0       0x88 src/modules/px4iofirmware/CMakeFiles/px4io-v2.dir/__/systemlib/up_cxxinitialize.c.obj
 .debug_abbrev  0x0000000000000c68      0x318 src/modules/px4iofirmware/CMakeFiles/px4io-v2.dir/__/systemlib/perf_counter.c.obj
 .debug_abbrev  0x0000000000000f80      0x3a0 src/modules/px4iofirmware/CMakeFiles/px4io-v2.dir/mixer.cpp.obj
 .debug_abbrev  0x0000000000001320      0x3fb src/modules/px4iofirmware/CMakeFiles/px4io-v2.dir/__/systemlib/mixer/mixer.cpp.obj
 .debug_abbrev  0x000000000000171b      0x3e7 src/modules/px4iofirmware/CMakeFiles/px4io-v2.dir/__/systemlib/mixer/mixer_group.cpp.obj
 .debug_abbrev  0x0000000000001b02      0x540 src/modules/px4iofirmware/CMakeFiles/px4io-v2.dir/__/systemlib/mixer/mixer_multirotor.cpp.obj
 .debug_abbrev  0x0000000000002042      0x539 src/modules/px4iofirmware/CMakeFiles/px4io-v2.dir/__/systemlib/mixer/mixer_simple.cpp.obj
 .debug_abbrev  0x000000000000257b      0x174 src/modules/px4iofirmware/CMakeFiles/px4io-v2.dir/__/systemlib/pwm_limit/pwm_limit.c.obj
 .debug_abbrev  0x00000000000026ef      0x168 src/modules/px4iofirmware/CMakeFiles/px4io-v2.dir/__/__/lib/rc/st24.c.obj
 .debug_abbrev  0x0000000000002857      0x1d4 src/modules/px4iofirmware/CMakeFiles/px4io-v2.dir/__/__/lib/rc/sumd.c.obj
 .debug_abbrev  0x0000000000002a2b      0x2f9 src/modules/px4iofirmware/CMakeFiles/px4io-v2.dir/__/__/lib/rc/sbus.c.obj
 .debug_abbrev  0x0000000000002d24      0x356 src/modules/px4iofirmware/CMakeFiles/px4io-v2.dir/__/__/lib/rc/dsm.c.obj
 .debug_abbrev  0x000000000000307a      0x3e2 src/modules/px4iofirmware/CMakeFiles/px4io-v2.dir/__/__/drivers/stm32/drv_hrt.c.obj
 .debug_abbrev  0x000000000000345c      0x3de src/modules/px4iofirmware/CMakeFiles/px4io-v2.dir/__/__/drivers/stm32/drv_io_timer.c.obj
 .debug_abbrev  0x000000000000383a      0x1ef src/modules/px4iofirmware/CMakeFiles/px4io-v2.dir/__/__/drivers/stm32/drv_pwm_servo.c.obj
 .debug_abbrev  0x0000000000003a29       0xa5 src/modules/px4iofirmware/CMakeFiles/px4io-v2.dir/__/__/drivers/boards/px4io-v2/px4io_init.c.obj
 .debug_abbrev  0x0000000000003ace       0xb5 src/modules/px4iofirmware/CMakeFiles/px4io-v2.dir/__/__/drivers/boards/px4io-v2/px4io_timer_config.c.obj
 .debug_abbrev  0x0000000000003b83      0x2d6 src/modules/px4iofirmware/CMakeFiles/px4io-v2.dir/serial.c.obj
 .debug_abbrev  0x0000000000003e59      0x34d src/modules/px4iofirmware/CMakeFiles/px4io-v2.dir/__/systemlib/hx_stream.c.obj
 .debug_abbrev  0x00000000000041a6      0x155 /home/tuofeichen/SLAM/MAV-Project/Firmware/build_px4fmu-v2_lpe/px4io-v2/NuttX/nuttx-export/libs/libnuttx.a(sched-irq_attach.o)
 .debug_abbrev  0x00000000000042fb       0xa5 /home/tuofeichen/SLAM/MAV-Project/Firmware/build_px4fmu-v2_lpe/px4io-v2/NuttX/nuttx-export/libs/libnuttx.a(sched-irq_initialize.o)
 .debug_abbrev  0x00000000000043a0       0xfa /home/tuofeichen/SLAM/MAV-Project/Firmware/build_px4fmu-v2_lpe/px4io-v2/NuttX/nuttx-export/libs/libnuttx.a(sched-irq_unexpectedisr.o)
 .debug_abbrev  0x000000000000449a       0x73 /home/tuofeichen/SLAM/MAV-Project/Firmware/build_px4fmu-v2_lpe/px4io-v2/NuttX/nuttx-export/libs/libnuttx.a(c-lib_abort.o)
 .debug_abbrev  0x000000000000450d       0xaa /home/tuofeichen/SLAM/MAV-Project/Firmware/build_px4fmu-v2_lpe/px4io-v2/NuttX/nuttx-export/libs/libnuttx.a(c-lib_cfsetspeed.o)
 .debug_abbrev  0x00000000000045b7       0xcb /home/tuofeichen/SLAM/MAV-Project/Firmware/build_px4fmu-v2_lpe/px4io-v2/NuttX/nuttx-export/libs/libnuttx.a(c-lib_crc32.o)
 .debug_abbrev  0x0000000000004682       0xe9 /home/tuofeichen/SLAM/MAV-Project/Firmware/build_px4fmu-v2_lpe/px4io-v2/NuttX/nuttx-export/libs/libnuttx.a(c-lib_dprintf.o)
 .debug_abbrev  0x000000000000476b      0x13f /home/tuofeichen/SLAM/MAV-Project/Firmware/build_px4fmu-v2_lpe/px4io-v2/NuttX/nuttx-export/libs/libnuttx.a(c-lib_lowsyslog.o)
 .debug_abbrev  0x00000000000048aa       0x9c /home/tuofeichen/SLAM/MAV-Project/Firmware/build_px4fmu-v2_lpe/px4io-v2/NuttX/nuttx-export/libs/libnuttx.a(c-lib_memchr.o)
 .debug_abbrev  0x0000000000004946       0xa4 /home/tuofeichen/SLAM/MAV-Project/Firmware/build_px4fmu-v2_lpe/px4io-v2/NuttX/nuttx-export/libs/libnuttx.a(c-lib_memcpy.o)
 .debug_abbrev  0x00000000000049ea       0x90 /home/tuofeichen/SLAM/MAV-Project/Firmware/build_px4fmu-v2_lpe/px4io-v2/NuttX/nuttx-export/libs/libnuttx.a(c-lib_memset.o)
 .debug_abbrev  0x0000000000004a7a       0xe4 /home/tuofeichen/SLAM/MAV-Project/Firmware/build_px4fmu-v2_lpe/px4io-v2/NuttX/nuttx-export/libs/libnuttx.a(c-lib_printf.o)
 .debug_abbrev  0x0000000000004b5e      0x201 /home/tuofeichen/SLAM/MAV-Project/Firmware/build_px4fmu-v2_lpe/px4io-v2/NuttX/nuttx-export/libs/libnuttx.a(c-lib_sscanf.o)
 .debug_abbrev  0x0000000000004d5f       0x74 /home/tuofeichen/SLAM/MAV-Project/Firmware/build_px4fmu-v2_lpe/px4io-v2/NuttX/nuttx-export/libs/libnuttx.a(c-lib_strchr.o)
 .debug_abbrev  0x0000000000004dd3       0x74 /home/tuofeichen/SLAM/MAV-Project/Firmware/build_px4fmu-v2_lpe/px4io-v2/NuttX/nuttx-export/libs/libnuttx.a(c-lib_strcmp.o)
 .debug_abbrev  0x0000000000004e47       0xc1 /home/tuofeichen/SLAM/MAV-Project/Firmware/build_px4fmu-v2_lpe/px4io-v2/NuttX/nuttx-export/libs/libnuttx.a(c-lib_strcspn.o)
 .debug_abbrev  0x0000000000004f08       0x90 /home/tuofeichen/SLAM/MAV-Project/Firmware/build_px4fmu-v2_lpe/px4io-v2/NuttX/nuttx-export/libs/libnuttx.a(c-lib_strncpy.o)
 .debug_abbrev  0x0000000000004f98       0xd2 /home/tuofeichen/SLAM/MAV-Project/Firmware/build_px4fmu-v2_lpe/px4io-v2/NuttX/nuttx-export/libs/libnuttx.a(c-lib_strtol.o)
 .debug_abbrev  0x000000000000506a       0xe3 /home/tuofeichen/SLAM/MAV-Project/Firmware/build_px4fmu-v2_lpe/px4io-v2/NuttX/nuttx-export/libs/libnuttx.a(c-lib_strtoul.o)
 .debug_abbrev  0x000000000000514d      0x13f /home/tuofeichen/SLAM/MAV-Project/Firmware/build_px4fmu-v2_lpe/px4io-v2/NuttX/nuttx-export/libs/libnuttx.a(c-lib_syslog.o)
 .debug_abbrev  0x000000000000528c       0xe0 /home/tuofeichen/SLAM/MAV-Project/Firmware/build_px4fmu-v2_lpe/px4io-v2/NuttX/nuttx-export/libs/libnuttx.a(c-lib_tcgetattr.o)
 .debug_abbrev  0x000000000000536c       0xe7 /home/tuofeichen/SLAM/MAV-Project/Firmware/build_px4fmu-v2_lpe/px4io-v2/NuttX/nuttx-export/libs/libnuttx.a(c-lib_tcsetattr.o)
 .debug_abbrev  0x0000000000005453      0x11c /home/tuofeichen/SLAM/MAV-Project/Firmware/build_px4fmu-v2_lpe/px4io-v2/NuttX/nuttx-export/libs/libnuttx.a(c-lib_vdprintf.o)
 .debug_abbrev  0x000000000000556f      0x13a /home/tuofeichen/SLAM/MAV-Project/Firmware/build_px4fmu-v2_lpe/px4io-v2/NuttX/nuttx-export/libs/libnuttx.a(c-lib_vsnprintf.o)
 .debug_abbrev  0x00000000000056a9       0xb9 /home/tuofeichen/SLAM/MAV-Project/Firmware/build_px4fmu-v2_lpe/px4io-v2/NuttX/nuttx-export/libs/libnuttx.a(c-sq_addafter.o)
 .debug_abbrev  0x0000000000005762       0x87 /home/tuofeichen/SLAM/MAV-Project/Firmware/build_px4fmu-v2_lpe/px4io-v2/NuttX/nuttx-export/libs/libnuttx.a(c-sq_addfirst.o)
 .debug_abbrev  0x00000000000057e9       0x87 /home/tuofeichen/SLAM/MAV-Project/Firmware/build_px4fmu-v2_lpe/px4io-v2/NuttX/nuttx-export/libs/libnuttx.a(c-sq_addlast.o)
 .debug_abbrev  0x0000000000005870       0xc7 /home/tuofeichen/SLAM/MAV-Project/Firmware/build_px4fmu-v2_lpe/px4io-v2/NuttX/nuttx-export/libs/libnuttx.a(c-sq_rem.o)
 .debug_abbrev  0x0000000000005937       0xbb /home/tuofeichen/SLAM/MAV-Project/Firmware/build_px4fmu-v2_lpe/px4io-v2/NuttX/nuttx-export/libs/libnuttx.a(mm-mm_calloc.o)
 .debug_abbrev  0x00000000000059f2      0x16c /home/tuofeichen/SLAM/MAV-Project/Firmware/build_px4fmu-v2_lpe/px4io-v2/NuttX/nuttx-export/libs/libnuttx.a(mm-mm_free.o)
 .debug_abbrev  0x0000000000005b5e      0x157 /home/tuofeichen/SLAM/MAV-Project/Firmware/build_px4fmu-v2_lpe/px4io-v2/NuttX/nuttx-export/libs/libnuttx.a(mm-mm_mallinfo.o)
 .debug_abbrev  0x0000000000005cb5      0x19d /home/tuofeichen/SLAM/MAV-Project/Firmware/build_px4fmu-v2_lpe/px4io-v2/NuttX/nuttx-export/libs/libnuttx.a(mm-mm_malloc.o)
 .debug_abbrev  0x0000000000005e52      0x17c /home/tuofeichen/SLAM/MAV-Project/Firmware/build_px4fmu-v2_lpe/px4io-v2/NuttX/nuttx-export/libs/libnuttx.a(mm-mm_sem.o)
 .debug_abbrev  0x0000000000005fce       0x6f /home/tuofeichen/SLAM/MAV-Project/Firmware/build_px4fmu-v2_lpe/px4io-v2/NuttX/nuttx-export/libs/libnuttx.a(mm-mm_size2ndx.o)
 .debug_abbrev  0x000000000000603d      0x141 /home/tuofeichen/SLAM/MAV-Project/Firmware/build_px4fmu-v2_lpe/px4io-v2/NuttX/nuttx-export/libs/libnuttx.a(mm-mm_user.o)
 .debug_abbrev  0x000000000000617e       0xc9 /home/tuofeichen/SLAM/MAV-Project/Firmware/build_px4fmu-v2_lpe/px4io-v2/NuttX/nuttx-export/libs/libnuttx.a(mm-mm_zalloc.o)
 .debug_abbrev  0x0000000000006247      0x339 /home/tuofeichen/SLAM/MAV-Project/Firmware/build_px4fmu-v2_lpe/px4io-v2/NuttX/nuttx-export/libs/libnuttx.a(arch-stm32_dma.o)
 .debug_abbrev  0x0000000000006580      0x1ec /home/tuofeichen/SLAM/MAV-Project/Firmware/build_px4fmu-v2_lpe/px4io-v2/NuttX/nuttx-export/libs/libnuttx.a(arch-stm32_gpio.o)
 .debug_abbrev  0x000000000000676c      0x1ce /home/tuofeichen/SLAM/MAV-Project/Firmware/build_px4fmu-v2_lpe/px4io-v2/NuttX/nuttx-export/libs/libnuttx.a(arch-stm32_irq.o)
 .debug_abbrev  0x000000000000693a      0x3ae /home/tuofeichen/SLAM/MAV-Project/Firmware/build_px4fmu-v2_lpe/px4io-v2/NuttX/nuttx-export/libs/libnuttx.a(arch-stm32_serial.o)
 .debug_abbrev  0x0000000000006ce8       0xbb /home/tuofeichen/SLAM/MAV-Project/Firmware/build_px4fmu-v2_lpe/px4io-v2/NuttX/nuttx-export/libs/libnuttx.a(arch-stm32_start.o)
 .debug_abbrev  0x0000000000006da3      0x2b4 /home/tuofeichen/SLAM/MAV-Project/Firmware/build_px4fmu-v2_lpe/px4io-v2/NuttX/nuttx-export/libs/libnuttx.a(arch-up_assert.o)
 .debug_abbrev  0x0000000000007057      0x162 /home/tuofeichen/SLAM/MAV-Project/Firmware/build_px4fmu-v2_lpe/px4io-v2/NuttX/nuttx-export/libs/libnuttx.a(arch-up_hardfault.o)
 .debug_abbrev  0x00000000000071b9      0x102 /home/tuofeichen/SLAM/MAV-Project/Firmware/build_px4fmu-v2_lpe/px4io-v2/NuttX/nuttx-export/libs/libnuttx.a(arch-up_modifyreg32.o)
 .debug_abbrev  0x00000000000072bb       0xf8 /home/tuofeichen/SLAM/MAV-Project/Firmware/build_px4fmu-v2_lpe/px4io-v2/NuttX/nuttx-export/libs/libnuttx.a(arch-up_svcall.o)
 .debug_abbrev  0x00000000000073b3       0x5e /home/tuofeichen/SLAM/MAV-Project/Firmware/build_px4fmu-v2_lpe/px4io-v2/NuttX/nuttx-export/libs/libnuttx.a(arch-up_systemreset.o)
 .debug_abbrev  0x0000000000007411       0x76 /home/tuofeichen/SLAM/MAV-Project/Firmware/build_px4fmu-v2_lpe/px4io-v2/NuttX/nuttx-export/libs/libnuttx.a(arch-up_udelay.o)
 .debug_abbrev  0x0000000000007487       0x4f /home/tuofeichen/SLAM/MAV-Project/Firmware/build_px4fmu-v2_lpe/px4io-v2/NuttX/nuttx-export/libs/libnuttx.a(arch-up_vectors.o)
 .debug_abbrev  0x00000000000074d6      0x11f /home/tuofeichen/SLAM/MAV-Project/Firmware/build_px4fmu-v2_lpe/px4io-v2/NuttX/nuttx-export/libs/libnuttx.a(cxx-libxx_cxa_atexit.o)
 .debug_abbrev  0x00000000000075f5       0x8e /home/tuofeichen/SLAM/MAV-Project/Firmware/build_px4fmu-v2_lpe/px4io-v2/NuttX/nuttx-export/libs/libnuttx.a(cxx-libxx_cxapurevirtual.o)
 .debug_abbrev  0x0000000000007683      0x112 /home/tuofeichen/SLAM/MAV-Project/Firmware/build_px4fmu-v2_lpe/px4io-v2/NuttX/nuttx-export/libs/libnuttx.a(cxx-libxx_delete.o)
 .debug_abbrev  0x0000000000007795      0x11b /home/tuofeichen/SLAM/MAV-Project/Firmware/build_px4fmu-v2_lpe/px4io-v2/NuttX/nuttx-export/libs/libnuttx.a(cxx-libxx_eabi_atexit.o)
 .debug_abbrev  0x00000000000078b0      0x12c /home/tuofeichen/SLAM/MAV-Project/Firmware/build_px4fmu-v2_lpe/px4io-v2/NuttX/nuttx-export/libs/libnuttx.a(cxx-libxx_new.o)
 .debug_abbrev  0x00000000000079dc      0x154 /home/tuofeichen/SLAM/MAV-Project/Firmware/build_px4fmu-v2_lpe/px4io-v2/NuttX/nuttx-export/libs/libnuttx.a(fs-fs_ioctl.o)
 .debug_abbrev  0x0000000000007b30      0x1f0 /home/tuofeichen/SLAM/MAV-Project/Firmware/build_px4fmu-v2_lpe/px4io-v2/NuttX/nuttx-export/libs/libnuttx.a(fs-fs_open.o)
 .debug_abbrev  0x0000000000007d20      0x1b7 /home/tuofeichen/SLAM/MAV-Project/Firmware/build_px4fmu-v2_lpe/px4io-v2/NuttX/nuttx-export/libs/libnuttx.a(fs-fs_read.o)
 .debug_abbrev  0x0000000000007ed7      0x1bf /home/tuofeichen/SLAM/MAV-Project/Firmware/build_px4fmu-v2_lpe/px4io-v2/NuttX/nuttx-export/libs/libnuttx.a(fs-fs_write.o)
 .debug_abbrev  0x0000000000008096      0x195 /home/tuofeichen/SLAM/MAV-Project/Firmware/build_px4fmu-v2_lpe/px4io-v2/NuttX/nuttx-export/libs/libnuttx.a(drivers-serialirq.o)
 .debug_abbrev  0x000000000000822b      0x3c9 /home/tuofeichen/SLAM/MAV-Project/Firmware/build_px4fmu-v2_lpe/px4io-v2/NuttX/nuttx-export/libs/libnuttx.a(drivers-serial.o)
 .debug_abbrev  0x00000000000085f4      0x190 /home/tuofeichen/SLAM/MAV-Project/Firmware/build_px4fmu-v2_lpe/px4io-v2/NuttX/nuttx-export/libs/libnuttx.a(sched-errno_getptr.o)
 .debug_abbrev  0x0000000000008784      0x195 /home/tuofeichen/SLAM/MAV-Project/Firmware/build_px4fmu-v2_lpe/px4io-v2/NuttX/nuttx-export/libs/libnuttx.a(sched-exit.o)
 .debug_abbrev  0x0000000000008919      0x12f /home/tuofeichen/SLAM/MAV-Project/Firmware/build_px4fmu-v2_lpe/px4io-v2/NuttX/nuttx-export/libs/libnuttx.a(sched-getpid.o)
 .debug_abbrev  0x0000000000008a48      0x247 /home/tuofeichen/SLAM/MAV-Project/Firmware/build_px4fmu-v2_lpe/px4io-v2/NuttX/nuttx-export/libs/libnuttx.a(sched-os_start.o)
 .debug_abbrev  0x0000000000008c8f      0x16d /home/tuofeichen/SLAM/MAV-Project/Firmware/build_px4fmu-v2_lpe/px4io-v2/NuttX/nuttx-export/libs/libnuttx.a(sched-sched_garbage.o)
 .debug_abbrev  0x0000000000008dfc      0x14f /home/tuofeichen/SLAM/MAV-Project/Firmware/build_px4fmu-v2_lpe/px4io-v2/NuttX/nuttx-export/libs/libnuttx.a(sched-sched_getfiles.o)
 .debug_abbrev  0x0000000000008f4b      0x21d /home/tuofeichen/SLAM/MAV-Project/Firmware/build_px4fmu-v2_lpe/px4io-v2/NuttX/nuttx-export/libs/libnuttx.a(sched-sem_post.o)
 .debug_abbrev  0x0000000000009168      0x1f3 /home/tuofeichen/SLAM/MAV-Project/Firmware/build_px4fmu-v2_lpe/px4io-v2/NuttX/nuttx-export/libs/libnuttx.a(sched-sem_trywait.o)
 .debug_abbrev  0x000000000000935b      0x248 /home/tuofeichen/SLAM/MAV-Project/Firmware/build_px4fmu-v2_lpe/px4io-v2/NuttX/nuttx-export/libs/libnuttx.a(sched-sem_wait.o)
 .debug_abbrev  0x00000000000095a3      0x17d /home/tuofeichen/SLAM/MAV-Project/Firmware/build_px4fmu-v2_lpe/px4io-v2/NuttX/nuttx-export/libs/libnuttx.a(sched-task_exithook.o)
 .debug_abbrev  0x0000000000009720      0x1d0 /home/tuofeichen/SLAM/MAV-Project/Firmware/build_px4fmu-v2_lpe/px4io-v2/NuttX/nuttx-export/libs/libnuttx.a(sched-task_recover.o)
 .debug_abbrev  0x00000000000098f0      0x1cb /home/tuofeichen/SLAM/MAV-Project/Firmware/build_px4fmu-v2_lpe/px4io-v2/NuttX/nuttx-export/libs/libnuttx.a(sched-wd_cancel.o)
 .debug_abbrev  0x0000000000009abb      0x1b1 /home/tuofeichen/SLAM/MAV-Project/Firmware/build_px4fmu-v2_lpe/px4io-v2/NuttX/nuttx-export/libs/libnuttx.a(sched-wd_delete.o)
 .debug_abbrev  0x0000000000009c6c      0x142 /home/tuofeichen/SLAM/MAV-Project/Firmware/build_px4fmu-v2_lpe/px4io-v2/NuttX/nuttx-export/libs/libnuttx.a(sched-wd_initialize.o)
 .debug_abbrev  0x0000000000009dae       0x87 /home/tuofeichen/SLAM/MAV-Project/Firmware/build_px4fmu-v2_lpe/px4io-v2/NuttX/nuttx-export/libs/libnuttx.a(c-dq_addfirst.o)
 .debug_abbrev  0x0000000000009e35       0xa2 /home/tuofeichen/SLAM/MAV-Project/Firmware/build_px4fmu-v2_lpe/px4io-v2/NuttX/nuttx-export/libs/libnuttx.a(c-lib_cfgetspeed.o)
 .debug_abbrev  0x0000000000009ed7       0xb4 /home/tuofeichen/SLAM/MAV-Project/Firmware/build_px4fmu-v2_lpe/px4io-v2/NuttX/nuttx-export/libs/libnuttx.a(c-lib_checkbase.o)
 .debug_abbrev  0x0000000000009f8b       0x98 /home/tuofeichen/SLAM/MAV-Project/Firmware/build_px4fmu-v2_lpe/px4io-v2/NuttX/nuttx-export/libs/libnuttx.a(c-lib_isbasedigit.o)
 .debug_abbrev  0x000000000000a023      0x309 /home/tuofeichen/SLAM/MAV-Project/Firmware/build_px4fmu-v2_lpe/px4io-v2/NuttX/nuttx-export/libs/libnuttx.a(c-lib_libvsprintf.o)
 .debug_abbrev  0x000000000000a32c      0x106 /home/tuofeichen/SLAM/MAV-Project/Firmware/build_px4fmu-v2_lpe/px4io-v2/NuttX/nuttx-export/libs/libnuttx.a(c-lib_lowoutstream.o)
 .debug_abbrev  0x000000000000a432       0xe9 /home/tuofeichen/SLAM/MAV-Project/Firmware/build_px4fmu-v2_lpe/px4io-v2/NuttX/nuttx-export/libs/libnuttx.a(c-lib_memoutstream.o)
 .debug_abbrev  0x000000000000a51b       0xcb /home/tuofeichen/SLAM/MAV-Project/Firmware/build_px4fmu-v2_lpe/px4io-v2/NuttX/nuttx-export/libs/libnuttx.a(c-lib_nulloutstream.o)
 .debug_abbrev  0x000000000000a5e6      0x15a /home/tuofeichen/SLAM/MAV-Project/Firmware/build_px4fmu-v2_lpe/px4io-v2/NuttX/nuttx-export/libs/libnuttx.a(c-lib_rawoutstream.o)
 .debug_abbrev  0x000000000000a740       0x72 /home/tuofeichen/SLAM/MAV-Project/Firmware/build_px4fmu-v2_lpe/px4io-v2/NuttX/nuttx-export/libs/libnuttx.a(c-lib_skipspace.o)
 .debug_abbrev  0x000000000000a7b2       0x83 /home/tuofeichen/SLAM/MAV-Project/Firmware/build_px4fmu-v2_lpe/px4io-v2/NuttX/nuttx-export/libs/libnuttx.a(c-lib_strcpy.o)
 .debug_abbrev  0x000000000000a835       0x81 /home/tuofeichen/SLAM/MAV-Project/Firmware/build_px4fmu-v2_lpe/px4io-v2/NuttX/nuttx-export/libs/libnuttx.a(c-lib_strlen.o)
 .debug_abbrev  0x000000000000a8b6       0xb6 /home/tuofeichen/SLAM/MAV-Project/Firmware/build_px4fmu-v2_lpe/px4io-v2/NuttX/nuttx-export/libs/libnuttx.a(c-sem_init.o)
 .debug_abbrev  0x000000000000a96c       0x98 /home/tuofeichen/SLAM/MAV-Project/Firmware/build_px4fmu-v2_lpe/px4io-v2/NuttX/nuttx-export/libs/libnuttx.a(c-sq_remafter.o)
 .debug_abbrev  0x000000000000aa04       0x98 /home/tuofeichen/SLAM/MAV-Project/Firmware/build_px4fmu-v2_lpe/px4io-v2/NuttX/nuttx-export/libs/libnuttx.a(c-sq_remfirst.o)
 .debug_abbrev  0x000000000000aa9c       0xdc /home/tuofeichen/SLAM/MAV-Project/Firmware/build_px4fmu-v2_lpe/px4io-v2/NuttX/nuttx-export/libs/libnuttx.a(mm-mm_addfreechunk.o)
 .debug_abbrev  0x000000000000ab78      0x130 /home/tuofeichen/SLAM/MAV-Project/Firmware/build_px4fmu-v2_lpe/px4io-v2/NuttX/nuttx-export/libs/libnuttx.a(mm-mm_initialize.o)
 .debug_abbrev  0x000000000000aca8       0x88 /home/tuofeichen/SLAM/MAV-Project/Firmware/build_px4fmu-v2_lpe/px4io-v2/NuttX/nuttx-export/libs/libnuttx.a(arch-stm32_allocateheap.o)
 .debug_abbrev  0x000000000000ad30       0x42 /home/tuofeichen/SLAM/MAV-Project/Firmware/build_px4fmu-v2_lpe/px4io-v2/NuttX/nuttx-export/libs/libnuttx.a(arch-stm32_idle.o)
 .debug_abbrev  0x000000000000ad72       0xd6 /home/tuofeichen/SLAM/MAV-Project/Firmware/build_px4fmu-v2_lpe/px4io-v2/NuttX/nuttx-export/libs/libnuttx.a(arch-stm32_lowputc.o)
 .debug_abbrev  0x000000000000ae48      0x119 /home/tuofeichen/SLAM/MAV-Project/Firmware/build_px4fmu-v2_lpe/px4io-v2/NuttX/nuttx-export/libs/libnuttx.a(arch-stm32_rcc.o)
 .debug_abbrev  0x000000000000af61      0x206 /home/tuofeichen/SLAM/MAV-Project/Firmware/build_px4fmu-v2_lpe/px4io-v2/NuttX/nuttx-export/libs/libnuttx.a(arch-up_blocktask.o)
 .debug_abbrev  0x000000000000b167       0x87 /home/tuofeichen/SLAM/MAV-Project/Firmware/build_px4fmu-v2_lpe/px4io-v2/NuttX/nuttx-export/libs/libnuttx.a(arch-up_copystate.o)
 .debug_abbrev  0x000000000000b1ee       0x14 /home/tuofeichen/SLAM/MAV-Project/Firmware/build_px4fmu-v2_lpe/px4io-v2/NuttX/nuttx-export/libs/libnuttx.a(arch-up_exception.o)
 .debug_abbrev  0x000000000000b202      0x1bf /home/tuofeichen/SLAM/MAV-Project/Firmware/build_px4fmu-v2_lpe/px4io-v2/NuttX/nuttx-export/libs/libnuttx.a(arch-up_exit.o)
 .debug_abbrev  0x000000000000b3c1       0x14 /home/tuofeichen/SLAM/MAV-Project/Firmware/build_px4fmu-v2_lpe/px4io-v2/NuttX/nuttx-export/libs/libnuttx.a(arch-up_fullcontextrestore.o)
 .debug_abbrev  0x000000000000b3d5       0x9c /home/tuofeichen/SLAM/MAV-Project/Firmware/build_px4fmu-v2_lpe/px4io-v2/NuttX/nuttx-export/libs/libnuttx.a(arch-up_initialize.o)
 .debug_abbrev  0x000000000000b471      0x17f /home/tuofeichen/SLAM/MAV-Project/Firmware/build_px4fmu-v2_lpe/px4io-v2/NuttX/nuttx-export/libs/libnuttx.a(arch-up_initialstate.o)
 .debug_abbrev  0x000000000000b5f0       0x72 /home/tuofeichen/SLAM/MAV-Project/Firmware/build_px4fmu-v2_lpe/px4io-v2/NuttX/nuttx-export/libs/libnuttx.a(arch-up_interruptcontext.o)
 .debug_abbrev  0x000000000000b662       0x69 /home/tuofeichen/SLAM/MAV-Project/Firmware/build_px4fmu-v2_lpe/px4io-v2/NuttX/nuttx-export/libs/libnuttx.a(arch-up_mdelay.o)
 .debug_abbrev  0x000000000000b6cb       0x14 /home/tuofeichen/SLAM/MAV-Project/Firmware/build_px4fmu-v2_lpe/px4io-v2/NuttX/nuttx-export/libs/libnuttx.a(arch-up_switchcontext.o)
 .debug_abbrev  0x000000000000b6df      0x1e4 /home/tuofeichen/SLAM/MAV-Project/Firmware/build_px4fmu-v2_lpe/px4io-v2/NuttX/nuttx-export/libs/libnuttx.a(arch-up_unblocktask.o)
 .debug_abbrev  0x000000000000b8c3      0x2ac /home/tuofeichen/SLAM/MAV-Project/Firmware/build_px4fmu-v2_lpe/px4io-v2/NuttX/nuttx-export/libs/libnuttx.a(fs-fs_files.o)
 .debug_abbrev  0x000000000000bb6f      0x11c /home/tuofeichen/SLAM/MAV-Project/Firmware/build_px4fmu-v2_lpe/px4io-v2/NuttX/nuttx-export/libs/libnuttx.a(fs-fs_inodeaddref.o)
 .debug_abbrev  0x000000000000bc8b      0x14d /home/tuofeichen/SLAM/MAV-Project/Firmware/build_px4fmu-v2_lpe/px4io-v2/NuttX/nuttx-export/libs/libnuttx.a(fs-fs_inodefind.o)
 .debug_abbrev  0x000000000000bdd8      0x27c /home/tuofeichen/SLAM/MAV-Project/Firmware/build_px4fmu-v2_lpe/px4io-v2/NuttX/nuttx-export/libs/libnuttx.a(fs-fs_inode.o)
 .debug_abbrev  0x000000000000c054      0x15c /home/tuofeichen/SLAM/MAV-Project/Firmware/build_px4fmu-v2_lpe/px4io-v2/NuttX/nuttx-export/libs/libnuttx.a(fs-fs_inoderelease.o)
 .debug_abbrev  0x000000000000c1b0      0x15c /home/tuofeichen/SLAM/MAV-Project/Firmware/build_px4fmu-v2_lpe/px4io-v2/NuttX/nuttx-export/libs/libnuttx.a(fs-fs_registerdriver.o)
 .debug_abbrev  0x000000000000c30c      0x1aa /home/tuofeichen/SLAM/MAV-Project/Firmware/build_px4fmu-v2_lpe/px4io-v2/NuttX/nuttx-export/libs/libnuttx.a(sched-group_create.o)
 .debug_abbrev  0x000000000000c4b6      0x1b3 /home/tuofeichen/SLAM/MAV-Project/Firmware/build_px4fmu-v2_lpe/px4io-v2/NuttX/nuttx-export/libs/libnuttx.a(sched-group_leave.o)
 .debug_abbrev  0x000000000000c669      0x1aa /home/tuofeichen/SLAM/MAV-Project/Firmware/build_px4fmu-v2_lpe/px4io-v2/NuttX/nuttx-export/libs/libnuttx.a(sched-group_setupidlefiles.o)
 .debug_abbrev  0x000000000000c813       0xd0 /home/tuofeichen/SLAM/MAV-Project/Firmware/build_px4fmu-v2_lpe/px4io-v2/NuttX/nuttx-export/libs/libnuttx.a(sched-os_bringup.o)
 .debug_abbrev  0x000000000000c8e3      0x1b3 /home/tuofeichen/SLAM/MAV-Project/Firmware/build_px4fmu-v2_lpe/px4io-v2/NuttX/nuttx-export/libs/libnuttx.a(sched-sched_addblocked.o)
 .debug_abbrev  0x000000000000ca96      0x18e /home/tuofeichen/SLAM/MAV-Project/Firmware/build_px4fmu-v2_lpe/px4io-v2/NuttX/nuttx-export/libs/libnuttx.a(sched-sched_addprioritized.o)
 .debug_abbrev  0x000000000000cc24      0x1c2 /home/tuofeichen/SLAM/MAV-Project/Firmware/build_px4fmu-v2_lpe/px4io-v2/NuttX/nuttx-export/libs/libnuttx.a(sched-sched_addreadytorun.o)
 .debug_abbrev  0x000000000000cde6      0x18d /home/tuofeichen/SLAM/MAV-Project/Firmware/build_px4fmu-v2_lpe/px4io-v2/NuttX/nuttx-export/libs/libnuttx.a(sched-sched_free.o)
 .debug_abbrev  0x000000000000cf73      0x191 /home/tuofeichen/SLAM/MAV-Project/Firmware/build_px4fmu-v2_lpe/px4io-v2/NuttX/nuttx-export/libs/libnuttx.a(sched-sched_mergepending.o)
 .debug_abbrev  0x000000000000d104      0x19c /home/tuofeichen/SLAM/MAV-Project/Firmware/build_px4fmu-v2_lpe/px4io-v2/NuttX/nuttx-export/libs/libnuttx.a(sched-sched_removeblocked.o)
 .debug_abbrev  0x000000000000d2a0      0x19e /home/tuofeichen/SLAM/MAV-Project/Firmware/build_px4fmu-v2_lpe/px4io-v2/NuttX/nuttx-export/libs/libnuttx.a(sched-sched_removereadytorun.o)
 .debug_abbrev  0x000000000000d43e       0xa7 /home/tuofeichen/SLAM/MAV-Project/Firmware/build_px4fmu-v2_lpe/px4io-v2/NuttX/nuttx-export/libs/libnuttx.a(sched-sem_destroy.o)
 .debug_abbrev  0x000000000000d4e5      0x24b /home/tuofeichen/SLAM/MAV-Project/Firmware/build_px4fmu-v2_lpe/px4io-v2/NuttX/nuttx-export/libs/libnuttx.a(sched-task_create.o)
 .debug_abbrev  0x000000000000d730      0x1b7 /home/tuofeichen/SLAM/MAV-Project/Firmware/build_px4fmu-v2_lpe/px4io-v2/NuttX/nuttx-export/libs/libnuttx.a(sched-task_exit.o)
 .debug_abbrev  0x000000000000d8e7      0x2d4 /home/tuofeichen/SLAM/MAV-Project/Firmware/build_px4fmu-v2_lpe/px4io-v2/NuttX/nuttx-export/libs/libnuttx.a(sched-task_setup.o)
 .debug_abbrev  0x000000000000dbbb      0x169 /home/tuofeichen/SLAM/MAV-Project/Firmware/build_px4fmu-v2_lpe/px4io-v2/NuttX/nuttx-export/libs/libnuttx.a(sched-task_start.o)
 .debug_abbrev  0x000000000000dd24      0x279 /home/tuofeichen/SLAM/MAV-Project/Firmware/build_px4fmu-v2_lpe/px4io-v2/NuttX/nuttx-export/libs/libnuttx.a(sched-task_terminate.o)
 .debug_abbrev  0x000000000000df9d       0x87 /home/tuofeichen/SLAM/MAV-Project/Firmware/build_px4fmu-v2_lpe/px4io-v2/NuttX/nuttx-export/libs/libnuttx.a(c-dq_addlast.o)
 .debug_abbrev  0x000000000000e024       0xa5 /home/tuofeichen/SLAM/MAV-Project/Firmware/build_px4fmu-v2_lpe/px4io-v2/NuttX/nuttx-export/libs/libnuttx.a(c-dq_rem.o)
 .debug_abbrev  0x000000000000e0c9       0xe6 /home/tuofeichen/SLAM/MAV-Project/Firmware/build_px4fmu-v2_lpe/px4io-v2/NuttX/nuttx-export/libs/libnuttx.a(c-lib_strdup.o)
 .debug_abbrev  0x000000000000e1af      0x125 /home/tuofeichen/SLAM/MAV-Project/Firmware/build_px4fmu-v2_lpe/px4io-v2/NuttX/nuttx-export/libs/libnuttx.a(arch-stm32_timerisr.o)
 .debug_abbrev  0x000000000000e2d4      0x19b /home/tuofeichen/SLAM/MAV-Project/Firmware/build_px4fmu-v2_lpe/px4io-v2/NuttX/nuttx-export/libs/libnuttx.a(arch-up_createstack.o)
 .debug_abbrev  0x000000000000e46f       0xf7 /home/tuofeichen/SLAM/MAV-Project/Firmware/build_px4fmu-v2_lpe/px4io-v2/NuttX/nuttx-export/libs/libnuttx.a(arch-up_doirq.o)
 .debug_abbrev  0x000000000000e566      0x142 /home/tuofeichen/SLAM/MAV-Project/Firmware/build_px4fmu-v2_lpe/px4io-v2/NuttX/nuttx-export/libs/libnuttx.a(arch-up_releasestack.o)
 .debug_abbrev  0x000000000000e6a8       0xcd /home/tuofeichen/SLAM/MAV-Project/Firmware/build_px4fmu-v2_lpe/px4io-v2/NuttX/nuttx-export/libs/libnuttx.a(fs-fs_close.o)
 .debug_abbrev  0x000000000000e775      0x142 /home/tuofeichen/SLAM/MAV-Project/Firmware/build_px4fmu-v2_lpe/px4io-v2/NuttX/nuttx-export/libs/libnuttx.a(fs-fs_filedup2.o)
 .debug_abbrev  0x000000000000e8b7      0x219 /home/tuofeichen/SLAM/MAV-Project/Firmware/build_px4fmu-v2_lpe/px4io-v2/NuttX/nuttx-export/libs/libnuttx.a(fs-fs_inodereserve.o)
 .debug_abbrev  0x000000000000ead0      0x155 /home/tuofeichen/SLAM/MAV-Project/Firmware/build_px4fmu-v2_lpe/px4io-v2/NuttX/nuttx-export/libs/libnuttx.a(sched-group_setuptaskfiles.o)
 .debug_abbrev  0x000000000000ec25       0xc0 /home/tuofeichen/SLAM/MAV-Project/Firmware/build_px4fmu-v2_lpe/px4io-v2/NuttX/nuttx-export/libs/libnuttx.a(sched-irq_dispatch.o)
 .debug_abbrev  0x000000000000ece5      0x157 /home/tuofeichen/SLAM/MAV-Project/Firmware/build_px4fmu-v2_lpe/px4io-v2/NuttX/nuttx-export/libs/libnuttx.a(sched-sched_gettcb.o)
 .debug_abbrev  0x000000000000ee3c      0x188 /home/tuofeichen/SLAM/MAV-Project/Firmware/build_px4fmu-v2_lpe/px4io-v2/NuttX/nuttx-export/libs/libnuttx.a(sched-sched_lock.o)
 .debug_abbrev  0x000000000000efc4       0x6f /home/tuofeichen/SLAM/MAV-Project/Firmware/build_px4fmu-v2_lpe/px4io-v2/NuttX/nuttx-export/libs/libnuttx.a(sched-sched_processtimer.o)
 .debug_abbrev  0x000000000000f033      0x22e /home/tuofeichen/SLAM/MAV-Project/Firmware/build_px4fmu-v2_lpe/px4io-v2/NuttX/nuttx-export/libs/libnuttx.a(sched-sched_releasetcb.o)
 .debug_abbrev  0x000000000000f261      0x1f1 /home/tuofeichen/SLAM/MAV-Project/Firmware/build_px4fmu-v2_lpe/px4io-v2/NuttX/nuttx-export/libs/libnuttx.a(sched-sched_unlock.o)
 .debug_abbrev  0x000000000000f452      0x1c7 /home/tuofeichen/SLAM/MAV-Project/Firmware/build_px4fmu-v2_lpe/px4io-v2/NuttX/nuttx-export/libs/libnuttx.a(sched-task_activate.o)
 .debug_abbrev  0x000000000000f619      0x1ae /home/tuofeichen/SLAM/MAV-Project/Firmware/build_px4fmu-v2_lpe/px4io-v2/NuttX/nuttx-export/libs/libnuttx.a(arch-up_releasepending.o)

.debug_info     0x0000000000000000    0x3e965
 *(.debug_info)
 .debug_info    0x0000000000000000      0x381 src/modules/px4iofirmware/CMakeFiles/px4io-v2.dir/adc.c.obj
 .debug_info    0x0000000000000381      0xaaf src/modules/px4iofirmware/CMakeFiles/px4io-v2.dir/controls.c.obj
 .debug_info    0x0000000000000e30      0xc9f src/modules/px4iofirmware/CMakeFiles/px4io-v2.dir/px4io.c.obj
 .debug_info    0x0000000000001acf      0xa4a src/modules/px4iofirmware/CMakeFiles/px4io-v2.dir/registers.c.obj
 .debug_info    0x0000000000002519      0x4b0 src/modules/px4iofirmware/CMakeFiles/px4io-v2.dir/safety.c.obj
 .debug_info    0x00000000000029c9      0x115 src/modules/px4iofirmware/CMakeFiles/px4io-v2.dir/__/systemlib/up_cxxinitialize.c.obj
 .debug_info    0x0000000000002ade      0xadc src/modules/px4iofirmware/CMakeFiles/px4io-v2.dir/__/systemlib/perf_counter.c.obj
 .debug_info    0x00000000000035ba      0xd12 src/modules/px4iofirmware/CMakeFiles/px4io-v2.dir/mixer.cpp.obj
 .debug_info    0x00000000000042cc      0xa63 src/modules/px4iofirmware/CMakeFiles/px4io-v2.dir/__/systemlib/mixer/mixer.cpp.obj
 .debug_info    0x0000000000004d2f      0xc1d src/modules/px4iofirmware/CMakeFiles/px4io-v2.dir/__/systemlib/mixer/mixer_group.cpp.obj
 .debug_info    0x000000000000594c     0x1a35 src/modules/px4iofirmware/CMakeFiles/px4io-v2.dir/__/systemlib/mixer/mixer_multirotor.cpp.obj
 .debug_info    0x0000000000007381     0x1028 src/modules/px4iofirmware/CMakeFiles/px4io-v2.dir/__/systemlib/mixer/mixer_simple.cpp.obj
 .debug_info    0x00000000000083a9      0x3f8 src/modules/px4iofirmware/CMakeFiles/px4io-v2.dir/__/systemlib/pwm_limit/pwm_limit.c.obj
 .debug_info    0x00000000000087a1      0x40d src/modules/px4iofirmware/CMakeFiles/px4io-v2.dir/__/__/lib/rc/st24.c.obj
 .debug_info    0x0000000000008bae      0x6ab src/modules/px4iofirmware/CMakeFiles/px4io-v2.dir/__/__/lib/rc/sumd.c.obj
 .debug_info    0x0000000000009259      0xa3c src/modules/px4iofirmware/CMakeFiles/px4io-v2.dir/__/__/lib/rc/sbus.c.obj
 .debug_info    0x0000000000009c95      0xd26 src/modules/px4iofirmware/CMakeFiles/px4io-v2.dir/__/__/lib/rc/dsm.c.obj
 .debug_info    0x000000000000a9bb      0xeb0 src/modules/px4iofirmware/CMakeFiles/px4io-v2.dir/__/__/drivers/stm32/drv_hrt.c.obj
 .debug_info    0x000000000000b86b     0x12a0 src/modules/px4iofirmware/CMakeFiles/px4io-v2.dir/__/__/drivers/stm32/drv_io_timer.c.obj
 .debug_info    0x000000000000cb0b      0x64d src/modules/px4iofirmware/CMakeFiles/px4io-v2.dir/__/__/drivers/stm32/drv_pwm_servo.c.obj
 .debug_info    0x000000000000d158      0x3b2 src/modules/px4iofirmware/CMakeFiles/px4io-v2.dir/__/__/drivers/boards/px4io-v2/px4io_init.c.obj
 .debug_info    0x000000000000d50a      0x25d src/modules/px4iofirmware/CMakeFiles/px4io-v2.dir/__/__/drivers/boards/px4io-v2/px4io_timer_config.c.obj
 .debug_info    0x000000000000d767      0x8de src/modules/px4iofirmware/CMakeFiles/px4io-v2.dir/serial.c.obj
 .debug_info    0x000000000000e045      0x714 src/modules/px4iofirmware/CMakeFiles/px4io-v2.dir/__/systemlib/hx_stream.c.obj
 .debug_info    0x000000000000e759      0x1ca /home/tuofeichen/SLAM/MAV-Project/Firmware/build_px4fmu-v2_lpe/px4io-v2/NuttX/nuttx-export/libs/libnuttx.a(sched-irq_attach.o)
 .debug_info    0x000000000000e923       0xf3 /home/tuofeichen/SLAM/MAV-Project/Firmware/build_px4fmu-v2_lpe/px4io-v2/NuttX/nuttx-export/libs/libnuttx.a(sched-irq_initialize.o)
 .debug_info    0x000000000000ea16      0x15d /home/tuofeichen/SLAM/MAV-Project/Firmware/build_px4fmu-v2_lpe/px4io-v2/NuttX/nuttx-export/libs/libnuttx.a(sched-irq_unexpectedisr.o)
 .debug_info    0x000000000000eb73       0xac /home/tuofeichen/SLAM/MAV-Project/Firmware/build_px4fmu-v2_lpe/px4io-v2/NuttX/nuttx-export/libs/libnuttx.a(c-lib_abort.o)
 .debug_info    0x000000000000ec1f      0x169 /home/tuofeichen/SLAM/MAV-Project/Firmware/build_px4fmu-v2_lpe/px4io-v2/NuttX/nuttx-export/libs/libnuttx.a(c-lib_cfsetspeed.o)
 .debug_info    0x000000000000ed88      0x18b /home/tuofeichen/SLAM/MAV-Project/Firmware/build_px4fmu-v2_lpe/px4io-v2/NuttX/nuttx-export/libs/libnuttx.a(c-lib_crc32.o)
 .debug_info    0x000000000000ef13      0x14c /home/tuofeichen/SLAM/MAV-Project/Firmware/build_px4fmu-v2_lpe/px4io-v2/NuttX/nuttx-export/libs/libnuttx.a(c-lib_dprintf.o)
 .debug_info    0x000000000000f05f      0x209 /home/tuofeichen/SLAM/MAV-Project/Firmware/build_px4fmu-v2_lpe/px4io-v2/NuttX/nuttx-export/libs/libnuttx.a(c-lib_lowsyslog.o)
 .debug_info    0x000000000000f268       0xf4 /home/tuofeichen/SLAM/MAV-Project/Firmware/build_px4fmu-v2_lpe/px4io-v2/NuttX/nuttx-export/libs/libnuttx.a(c-lib_memchr.o)
 .debug_info    0x000000000000f35c      0x104 /home/tuofeichen/SLAM/MAV-Project/Firmware/build_px4fmu-v2_lpe/px4io-v2/NuttX/nuttx-export/libs/libnuttx.a(c-lib_memcpy.o)
 .debug_info    0x000000000000f460       0xe6 /home/tuofeichen/SLAM/MAV-Project/Firmware/build_px4fmu-v2_lpe/px4io-v2/NuttX/nuttx-export/libs/libnuttx.a(c-lib_memset.o)
 .debug_info    0x000000000000f546      0x13a /home/tuofeichen/SLAM/MAV-Project/Firmware/build_px4fmu-v2_lpe/px4io-v2/NuttX/nuttx-export/libs/libnuttx.a(c-lib_printf.o)
 .debug_info    0x000000000000f680      0x5a1 /home/tuofeichen/SLAM/MAV-Project/Firmware/build_px4fmu-v2_lpe/px4io-v2/NuttX/nuttx-export/libs/libnuttx.a(c-lib_sscanf.o)
 .debug_info    0x000000000000fc21       0xb6 /home/tuofeichen/SLAM/MAV-Project/Firmware/build_px4fmu-v2_lpe/px4io-v2/NuttX/nuttx-export/libs/libnuttx.a(c-lib_strchr.o)
 .debug_info    0x000000000000fcd7       0xc3 /home/tuofeichen/SLAM/MAV-Project/Firmware/build_px4fmu-v2_lpe/px4io-v2/NuttX/nuttx-export/libs/libnuttx.a(c-lib_strcmp.o)
 .debug_info    0x000000000000fd9a      0x10e /home/tuofeichen/SLAM/MAV-Project/Firmware/build_px4fmu-v2_lpe/px4io-v2/NuttX/nuttx-export/libs/libnuttx.a(c-lib_strcspn.o)
 .debug_info    0x000000000000fea8      0x104 /home/tuofeichen/SLAM/MAV-Project/Firmware/build_px4fmu-v2_lpe/px4io-v2/NuttX/nuttx-export/libs/libnuttx.a(c-lib_strncpy.o)
 .debug_info    0x000000000000ffac      0x181 /home/tuofeichen/SLAM/MAV-Project/Firmware/build_px4fmu-v2_lpe/px4io-v2/NuttX/nuttx-export/libs/libnuttx.a(c-lib_strtol.o)
 .debug_info    0x000000000001012d      0x1be /home/tuofeichen/SLAM/MAV-Project/Firmware/build_px4fmu-v2_lpe/px4io-v2/NuttX/nuttx-export/libs/libnuttx.a(c-lib_strtoul.o)
 .debug_info    0x00000000000102eb      0x23d /home/tuofeichen/SLAM/MAV-Project/Firmware/build_px4fmu-v2_lpe/px4io-v2/NuttX/nuttx-export/libs/libnuttx.a(c-lib_syslog.o)
 .debug_info    0x0000000000010528      0x1af /home/tuofeichen/SLAM/MAV-Project/Firmware/build_px4fmu-v2_lpe/px4io-v2/NuttX/nuttx-export/libs/libnuttx.a(c-lib_tcgetattr.o)
 .debug_info    0x00000000000106d7      0x1c3 /home/tuofeichen/SLAM/MAV-Project/Firmware/build_px4fmu-v2_lpe/px4io-v2/NuttX/nuttx-export/libs/libnuttx.a(c-lib_tcsetattr.o)
 .debug_info    0x000000000001089a      0x1f3 /home/tuofeichen/SLAM/MAV-Project/Firmware/build_px4fmu-v2_lpe/px4io-v2/NuttX/nuttx-export/libs/libnuttx.a(c-lib_vdprintf.o)
 .debug_info    0x0000000000010a8d      0x24c /home/tuofeichen/SLAM/MAV-Project/Firmware/build_px4fmu-v2_lpe/px4io-v2/NuttX/nuttx-export/libs/libnuttx.a(c-lib_vsnprintf.o)
 .debug_info    0x0000000000010cd9      0x13f /home/tuofeichen/SLAM/MAV-Project/Firmware/build_px4fmu-v2_lpe/px4io-v2/NuttX/nuttx-export/libs/libnuttx.a(c-sq_addafter.o)
 .debug_info    0x0000000000010e18      0x109 /home/tuofeichen/SLAM/MAV-Project/Firmware/build_px4fmu-v2_lpe/px4io-v2/NuttX/nuttx-export/libs/libnuttx.a(c-sq_addfirst.o)
 .debug_info    0x0000000000010f21      0x109 /home/tuofeichen/SLAM/MAV-Project/Firmware/build_px4fmu-v2_lpe/px4io-v2/NuttX/nuttx-export/libs/libnuttx.a(c-sq_addlast.o)
 .debug_info    0x000000000001102a      0x145 /home/tuofeichen/SLAM/MAV-Project/Firmware/build_px4fmu-v2_lpe/px4io-v2/NuttX/nuttx-export/libs/libnuttx.a(c-sq_rem.o)
 .debug_info    0x000000000001116f      0x108 /home/tuofeichen/SLAM/MAV-Project/Firmware/build_px4fmu-v2_lpe/px4io-v2/NuttX/nuttx-export/libs/libnuttx.a(mm-mm_calloc.o)
 .debug_info    0x0000000000011277      0x321 /home/tuofeichen/SLAM/MAV-Project/Firmware/build_px4fmu-v2_lpe/px4io-v2/NuttX/nuttx-export/libs/libnuttx.a(mm-mm_free.o)
 .debug_info    0x0000000000011598      0x36f /home/tuofeichen/SLAM/MAV-Project/Firmware/build_px4fmu-v2_lpe/px4io-v2/NuttX/nuttx-export/libs/libnuttx.a(mm-mm_mallinfo.o)
 .debug_info    0x0000000000011907      0x38f /home/tuofeichen/SLAM/MAV-Project/Firmware/build_px4fmu-v2_lpe/px4io-v2/NuttX/nuttx-export/libs/libnuttx.a(mm-mm_malloc.o)
 .debug_info    0x0000000000011c96      0x403 /home/tuofeichen/SLAM/MAV-Project/Firmware/build_px4fmu-v2_lpe/px4io-v2/NuttX/nuttx-export/libs/libnuttx.a(mm-mm_sem.o)
 .debug_info    0x0000000000012099       0xd0 /home/tuofeichen/SLAM/MAV-Project/Firmware/build_px4fmu-v2_lpe/px4io-v2/NuttX/nuttx-export/libs/libnuttx.a(mm-mm_size2ndx.o)
 .debug_info    0x0000000000012169      0x365 /home/tuofeichen/SLAM/MAV-Project/Firmware/build_px4fmu-v2_lpe/px4io-v2/NuttX/nuttx-export/libs/libnuttx.a(mm-mm_user.o)
 .debug_info    0x00000000000124ce      0x132 /home/tuofeichen/SLAM/MAV-Project/Firmware/build_px4fmu-v2_lpe/px4io-v2/NuttX/nuttx-export/libs/libnuttx.a(mm-mm_zalloc.o)
 .debug_info    0x0000000000012600      0x9ad /home/tuofeichen/SLAM/MAV-Project/Firmware/build_px4fmu-v2_lpe/px4io-v2/NuttX/nuttx-export/libs/libnuttx.a(arch-stm32_dma.o)
 .debug_info    0x0000000000012fad      0x3c0 /home/tuofeichen/SLAM/MAV-Project/Firmware/build_px4fmu-v2_lpe/px4io-v2/NuttX/nuttx-export/libs/libnuttx.a(arch-stm32_gpio.o)
 .debug_info    0x000000000001336d      0x36c /home/tuofeichen/SLAM/MAV-Project/Firmware/build_px4fmu-v2_lpe/px4io-v2/NuttX/nuttx-export/libs/libnuttx.a(arch-stm32_irq.o)
 .debug_info    0x00000000000136d9     0x2170 /home/tuofeichen/SLAM/MAV-Project/Firmware/build_px4fmu-v2_lpe/px4io-v2/NuttX/nuttx-export/libs/libnuttx.a(arch-stm32_serial.o)
 .debug_info    0x0000000000015849      0x171 /home/tuofeichen/SLAM/MAV-Project/Firmware/build_px4fmu-v2_lpe/px4io-v2/NuttX/nuttx-export/libs/libnuttx.a(arch-stm32_start.o)
 .debug_info    0x00000000000159ba      0xdd6 /home/tuofeichen/SLAM/MAV-Project/Firmware/build_px4fmu-v2_lpe/px4io-v2/NuttX/nuttx-export/libs/libnuttx.a(arch-up_assert.o)
 .debug_info    0x0000000000016790      0x22b /home/tuofeichen/SLAM/MAV-Project/Firmware/build_px4fmu-v2_lpe/px4io-v2/NuttX/nuttx-export/libs/libnuttx.a(arch-up_hardfault.o)
 .debug_info    0x00000000000169bb      0x173 /home/tuofeichen/SLAM/MAV-Project/Firmware/build_px4fmu-v2_lpe/px4io-v2/NuttX/nuttx-export/libs/libnuttx.a(arch-up_modifyreg32.o)
 .debug_info    0x0000000000016b2e      0x162 /home/tuofeichen/SLAM/MAV-Project/Firmware/build_px4fmu-v2_lpe/px4io-v2/NuttX/nuttx-export/libs/libnuttx.a(arch-up_svcall.o)
 .debug_info    0x0000000000016c90       0x95 /home/tuofeichen/SLAM/MAV-Project/Firmware/build_px4fmu-v2_lpe/px4io-v2/NuttX/nuttx-export/libs/libnuttx.a(arch-up_systemreset.o)
 .debug_info    0x0000000000016d25       0xe0 /home/tuofeichen/SLAM/MAV-Project/Firmware/build_px4fmu-v2_lpe/px4io-v2/NuttX/nuttx-export/libs/libnuttx.a(arch-up_udelay.o)
 .debug_info    0x0000000000016e05       0x5f /home/tuofeichen/SLAM/MAV-Project/Firmware/build_px4fmu-v2_lpe/px4io-v2/NuttX/nuttx-export/libs/libnuttx.a(arch-up_vectors.o)
 .debug_info    0x0000000000016e64      0x349 /home/tuofeichen/SLAM/MAV-Project/Firmware/build_px4fmu-v2_lpe/px4io-v2/NuttX/nuttx-export/libs/libnuttx.a(cxx-libxx_cxa_atexit.o)
 .debug_info    0x00000000000171ad       0xc4 /home/tuofeichen/SLAM/MAV-Project/Firmware/build_px4fmu-v2_lpe/px4io-v2/NuttX/nuttx-export/libs/libnuttx.a(cxx-libxx_cxapurevirtual.o)
 .debug_info    0x0000000000017271      0x320 /home/tuofeichen/SLAM/MAV-Project/Firmware/build_px4fmu-v2_lpe/px4io-v2/NuttX/nuttx-export/libs/libnuttx.a(cxx-libxx_delete.o)
 .debug_info    0x0000000000017591      0x376 /home/tuofeichen/SLAM/MAV-Project/Firmware/build_px4fmu-v2_lpe/px4io-v2/NuttX/nuttx-export/libs/libnuttx.a(cxx-libxx_eabi_atexit.o)
 .debug_info    0x0000000000017907      0x4a6 /home/tuofeichen/SLAM/MAV-Project/Firmware/build_px4fmu-v2_lpe/px4io-v2/NuttX/nuttx-export/libs/libnuttx.a(cxx-libxx_new.o)
 .debug_info    0x0000000000017dad      0x83c /home/tuofeichen/SLAM/MAV-Project/Firmware/build_px4fmu-v2_lpe/px4io-v2/NuttX/nuttx-export/libs/libnuttx.a(fs-fs_ioctl.o)
 .debug_info    0x00000000000185e9      0x962 /home/tuofeichen/SLAM/MAV-Project/Firmware/build_px4fmu-v2_lpe/px4io-v2/NuttX/nuttx-export/libs/libnuttx.a(fs-fs_open.o)
 .debug_info    0x0000000000018f4b      0x8ab /home/tuofeichen/SLAM/MAV-Project/Firmware/build_px4fmu-v2_lpe/px4io-v2/NuttX/nuttx-export/libs/libnuttx.a(fs-fs_read.o)
 .debug_info    0x00000000000197f6      0x8c7 /home/tuofeichen/SLAM/MAV-Project/Firmware/build_px4fmu-v2_lpe/px4io-v2/NuttX/nuttx-export/libs/libnuttx.a(fs-fs_write.o)
 .debug_info    0x000000000001a0bd      0xaae /home/tuofeichen/SLAM/MAV-Project/Firmware/build_px4fmu-v2_lpe/px4io-v2/NuttX/nuttx-export/libs/libnuttx.a(drivers-serialirq.o)
 .debug_info    0x000000000001ab6b     0x16a1 /home/tuofeichen/SLAM/MAV-Project/Firmware/build_px4fmu-v2_lpe/px4io-v2/NuttX/nuttx-export/libs/libnuttx.a(drivers-serial.o)
 .debug_info    0x000000000001c20c      0xa89 /home/tuofeichen/SLAM/MAV-Project/Firmware/build_px4fmu-v2_lpe/px4io-v2/NuttX/nuttx-export/libs/libnuttx.a(sched-errno_getptr.o)
 .debug_info    0x000000000001cc95      0xa73 /home/tuofeichen/SLAM/MAV-Project/Firmware/build_px4fmu-v2_lpe/px4io-v2/NuttX/nuttx-export/libs/libnuttx.a(sched-exit.o)
 .debug_info    0x000000000001d708      0xa03 /home/tuofeichen/SLAM/MAV-Project/Firmware/build_px4fmu-v2_lpe/px4io-v2/NuttX/nuttx-export/libs/libnuttx.a(sched-getpid.o)
 .debug_info    0x000000000001e10b      0xf1d /home/tuofeichen/SLAM/MAV-Project/Firmware/build_px4fmu-v2_lpe/px4io-v2/NuttX/nuttx-export/libs/libnuttx.a(sched-os_start.o)
 .debug_info    0x000000000001f028      0x21b /home/tuofeichen/SLAM/MAV-Project/Firmware/build_px4fmu-v2_lpe/px4io-v2/NuttX/nuttx-export/libs/libnuttx.a(sched-sched_garbage.o)
 .debug_info    0x000000000001f243      0xa2b /home/tuofeichen/SLAM/MAV-Project/Firmware/build_px4fmu-v2_lpe/px4io-v2/NuttX/nuttx-export/libs/libnuttx.a(sched-sched_getfiles.o)
 .debug_info    0x000000000001fc6e      0xb1b /home/tuofeichen/SLAM/MAV-Project/Firmware/build_px4fmu-v2_lpe/px4io-v2/NuttX/nuttx-export/libs/libnuttx.a(sched-sem_post.o)
 .debug_info    0x0000000000020789      0xaea /home/tuofeichen/SLAM/MAV-Project/Firmware/build_px4fmu-v2_lpe/px4io-v2/NuttX/nuttx-export/libs/libnuttx.a(sched-sem_trywait.o)
 .debug_info    0x0000000000021273      0xba8 /home/tuofeichen/SLAM/MAV-Project/Firmware/build_px4fmu-v2_lpe/px4io-v2/NuttX/nuttx-export/libs/libnuttx.a(sched-sem_wait.o)
 .debug_info    0x0000000000021e1b      0x9fb /home/tuofeichen/SLAM/MAV-Project/Firmware/build_px4fmu-v2_lpe/px4io-v2/NuttX/nuttx-export/libs/libnuttx.a(sched-task_exithook.o)
 .debug_info    0x0000000000022816      0xa67 /home/tuofeichen/SLAM/MAV-Project/Firmware/build_px4fmu-v2_lpe/px4io-v2/NuttX/nuttx-export/libs/libnuttx.a(sched-task_recover.o)
 .debug_info    0x000000000002327d      0x33b /home/tuofeichen/SLAM/MAV-Project/Firmware/build_px4fmu-v2_lpe/px4io-v2/NuttX/nuttx-export/libs/libnuttx.a(sched-wd_cancel.o)
 .debug_info    0x00000000000235b8      0x2ec /home/tuofeichen/SLAM/MAV-Project/Firmware/build_px4fmu-v2_lpe/px4io-v2/NuttX/nuttx-export/libs/libnuttx.a(sched-wd_delete.o)
 .debug_info    0x00000000000238a4      0x2c6 /home/tuofeichen/SLAM/MAV-Project/Firmware/build_px4fmu-v2_lpe/px4io-v2/NuttX/nuttx-export/libs/libnuttx.a(sched-wd_initialize.o)
 .debug_info    0x0000000000023b6a      0x115 /home/tuofeichen/SLAM/MAV-Project/Firmware/build_px4fmu-v2_lpe/px4io-v2/NuttX/nuttx-export/libs/libnuttx.a(c-dq_addfirst.o)
 .debug_info    0x0000000000023c7f      0x161 /home/tuofeichen/SLAM/MAV-Project/Firmware/build_px4fmu-v2_lpe/px4io-v2/NuttX/nuttx-export/libs/libnuttx.a(c-lib_cfgetspeed.o)
 .debug_info    0x0000000000023de0      0x13c /home/tuofeichen/SLAM/MAV-Project/Firmware/build_px4fmu-v2_lpe/px4io-v2/NuttX/nuttx-export/libs/libnuttx.a(c-lib_checkbase.o)
 .debug_info    0x0000000000023f1c      0x111 /home/tuofeichen/SLAM/MAV-Project/Firmware/build_px4fmu-v2_lpe/px4io-v2/NuttX/nuttx-export/libs/libnuttx.a(c-lib_isbasedigit.o)
 .debug_info    0x000000000002402d      0xefa /home/tuofeichen/SLAM/MAV-Project/Firmware/build_px4fmu-v2_lpe/px4io-v2/NuttX/nuttx-export/libs/libnuttx.a(c-lib_libvsprintf.o)
 .debug_info    0x0000000000024f27      0x14d /home/tuofeichen/SLAM/MAV-Project/Firmware/build_px4fmu-v2_lpe/px4io-v2/NuttX/nuttx-export/libs/libnuttx.a(c-lib_lowoutstream.o)
 .debug_info    0x0000000000025074      0x18a /home/tuofeichen/SLAM/MAV-Project/Firmware/build_px4fmu-v2_lpe/px4io-v2/NuttX/nuttx-export/libs/libnuttx.a(c-lib_memoutstream.o)
 .debug_info    0x00000000000251fe      0x123 /home/tuofeichen/SLAM/MAV-Project/Firmware/build_px4fmu-v2_lpe/px4io-v2/NuttX/nuttx-export/libs/libnuttx.a(c-lib_nulloutstream.o)
 .debug_info    0x0000000000025321      0x228 /home/tuofeichen/SLAM/MAV-Project/Firmware/build_px4fmu-v2_lpe/px4io-v2/NuttX/nuttx-export/libs/libnuttx.a(c-lib_rawoutstream.o)
 .debug_info    0x0000000000025549       0xcb /home/tuofeichen/SLAM/MAV-Project/Firmware/build_px4fmu-v2_lpe/px4io-v2/NuttX/nuttx-export/libs/libnuttx.a(c-lib_skipspace.o)
 .debug_info    0x0000000000025614       0xc9 /home/tuofeichen/SLAM/MAV-Project/Firmware/build_px4fmu-v2_lpe/px4io-v2/NuttX/nuttx-export/libs/libnuttx.a(c-lib_strcpy.o)
 .debug_info    0x00000000000256dd       0xd4 /home/tuofeichen/SLAM/MAV-Project/Firmware/build_px4fmu-v2_lpe/px4io-v2/NuttX/nuttx-export/libs/libnuttx.a(c-lib_strlen.o)
 .debug_info    0x00000000000257b1      0x115 /home/tuofeichen/SLAM/MAV-Project/Firmware/build_px4fmu-v2_lpe/px4io-v2/NuttX/nuttx-export/libs/libnuttx.a(c-sem_init.o)
 .debug_info    0x00000000000258c6      0x11e /home/tuofeichen/SLAM/MAV-Project/Firmware/build_px4fmu-v2_lpe/px4io-v2/NuttX/nuttx-export/libs/libnuttx.a(c-sq_remafter.o)
 .debug_info    0x00000000000259e4      0x10f /home/tuofeichen/SLAM/MAV-Project/Firmware/build_px4fmu-v2_lpe/px4io-v2/NuttX/nuttx-export/libs/libnuttx.a(c-sq_remfirst.o)
 .debug_info    0x0000000000025af3      0x273 /home/tuofeichen/SLAM/MAV-Project/Firmware/build_px4fmu-v2_lpe/px4io-v2/NuttX/nuttx-export/libs/libnuttx.a(mm-mm_addfreechunk.o)
 .debug_info    0x0000000000025d66      0x381 /home/tuofeichen/SLAM/MAV-Project/Firmware/build_px4fmu-v2_lpe/px4io-v2/NuttX/nuttx-export/libs/libnuttx.a(mm-mm_initialize.o)
 .debug_info    0x00000000000260e7       0xfa /home/tuofeichen/SLAM/MAV-Project/Firmware/build_px4fmu-v2_lpe/px4io-v2/NuttX/nuttx-export/libs/libnuttx.a(arch-stm32_allocateheap.o)
 .debug_info    0x00000000000261e1       0x99 /home/tuofeichen/SLAM/MAV-Project/Firmware/build_px4fmu-v2_lpe/px4io-v2/NuttX/nuttx-export/libs/libnuttx.a(arch-stm32_idle.o)
 .debug_info    0x000000000002627a      0x128 /home/tuofeichen/SLAM/MAV-Project/Firmware/build_px4fmu-v2_lpe/px4io-v2/NuttX/nuttx-export/libs/libnuttx.a(arch-stm32_lowputc.o)
 .debug_info    0x00000000000263a2      0x23e /home/tuofeichen/SLAM/MAV-Project/Firmware/build_px4fmu-v2_lpe/px4io-v2/NuttX/nuttx-export/libs/libnuttx.a(arch-stm32_rcc.o)
 .debug_info    0x00000000000265e0      0xba4 /home/tuofeichen/SLAM/MAV-Project/Firmware/build_px4fmu-v2_lpe/px4io-v2/NuttX/nuttx-export/libs/libnuttx.a(arch-up_blocktask.o)
 .debug_info    0x0000000000027184       0xe5 /home/tuofeichen/SLAM/MAV-Project/Firmware/build_px4fmu-v2_lpe/px4io-v2/NuttX/nuttx-export/libs/libnuttx.a(arch-up_copystate.o)
 .debug_info    0x0000000000027269       0xa0 /home/tuofeichen/SLAM/MAV-Project/Firmware/build_px4fmu-v2_lpe/px4io-v2/NuttX/nuttx-export/libs/libnuttx.a(arch-up_exception.o)
 .debug_info    0x0000000000027309      0xaa1 /home/tuofeichen/SLAM/MAV-Project/Firmware/build_px4fmu-v2_lpe/px4io-v2/NuttX/nuttx-export/libs/libnuttx.a(arch-up_exit.o)
 .debug_info    0x0000000000027daa       0xa9 /home/tuofeichen/SLAM/MAV-Project/Firmware/build_px4fmu-v2_lpe/px4io-v2/NuttX/nuttx-export/libs/libnuttx.a(arch-up_fullcontextrestore.o)
 .debug_info    0x0000000000027e53      0x10e /home/tuofeichen/SLAM/MAV-Project/Firmware/build_px4fmu-v2_lpe/px4io-v2/NuttX/nuttx-export/libs/libnuttx.a(arch-up_initialize.o)
 .debug_info    0x0000000000027f61      0xa13 /home/tuofeichen/SLAM/MAV-Project/Firmware/build_px4fmu-v2_lpe/px4io-v2/NuttX/nuttx-export/libs/libnuttx.a(arch-up_initialstate.o)
 .debug_info    0x0000000000028974       0xeb /home/tuofeichen/SLAM/MAV-Project/Firmware/build_px4fmu-v2_lpe/px4io-v2/NuttX/nuttx-export/libs/libnuttx.a(arch-up_interruptcontext.o)
 .debug_info    0x0000000000028a5f       0xc9 /home/tuofeichen/SLAM/MAV-Project/Firmware/build_px4fmu-v2_lpe/px4io-v2/NuttX/nuttx-export/libs/libnuttx.a(arch-up_mdelay.o)
 .debug_info    0x0000000000028b28       0xa4 /home/tuofeichen/SLAM/MAV-Project/Firmware/build_px4fmu-v2_lpe/px4io-v2/NuttX/nuttx-export/libs/libnuttx.a(arch-up_switchcontext.o)
 .debug_info    0x0000000000028bcc      0xb51 /home/tuofeichen/SLAM/MAV-Project/Firmware/build_px4fmu-v2_lpe/px4io-v2/NuttX/nuttx-export/libs/libnuttx.a(arch-up_unblocktask.o)
 .debug_info    0x000000000002971d      0xc74 /home/tuofeichen/SLAM/MAV-Project/Firmware/build_px4fmu-v2_lpe/px4io-v2/NuttX/nuttx-export/libs/libnuttx.a(fs-fs_files.o)
 .debug_info    0x000000000002a391      0x733 /home/tuofeichen/SLAM/MAV-Project/Firmware/build_px4fmu-v2_lpe/px4io-v2/NuttX/nuttx-export/libs/libnuttx.a(fs-fs_inodeaddref.o)
 .debug_info    0x000000000002aac4      0x7a3 /home/tuofeichen/SLAM/MAV-Project/Firmware/build_px4fmu-v2_lpe/px4io-v2/NuttX/nuttx-export/libs/libnuttx.a(fs-fs_inodefind.o)
 .debug_info    0x000000000002b267      0xa1d /home/tuofeichen/SLAM/MAV-Project/Firmware/build_px4fmu-v2_lpe/px4io-v2/NuttX/nuttx-export/libs/libnuttx.a(fs-fs_inode.o)
 .debug_info    0x000000000002bc84      0x77f /home/tuofeichen/SLAM/MAV-Project/Firmware/build_px4fmu-v2_lpe/px4io-v2/NuttX/nuttx-export/libs/libnuttx.a(fs-fs_inoderelease.o)
 .debug_info    0x000000000002c403      0x7b6 /home/tuofeichen/SLAM/MAV-Project/Firmware/build_px4fmu-v2_lpe/px4io-v2/NuttX/nuttx-export/libs/libnuttx.a(fs-fs_registerdriver.o)
 .debug_info    0x000000000002cbb9      0xa5e /home/tuofeichen/SLAM/MAV-Project/Firmware/build_px4fmu-v2_lpe/px4io-v2/NuttX/nuttx-export/libs/libnuttx.a(sched-group_create.o)
 .debug_info    0x000000000002d617      0xa22 /home/tuofeichen/SLAM/MAV-Project/Firmware/build_px4fmu-v2_lpe/px4io-v2/NuttX/nuttx-export/libs/libnuttx.a(sched-group_leave.o)
 .debug_info    0x000000000002e039      0xac1 /home/tuofeichen/SLAM/MAV-Project/Firmware/build_px4fmu-v2_lpe/px4io-v2/NuttX/nuttx-export/libs/libnuttx.a(sched-group_setupidlefiles.o)
 .debug_info    0x000000000002eafa      0x19c /home/tuofeichen/SLAM/MAV-Project/Firmware/build_px4fmu-v2_lpe/px4io-v2/NuttX/nuttx-export/libs/libnuttx.a(sched-os_bringup.o)
 .debug_info    0x000000000002ec96      0xb31 /home/tuofeichen/SLAM/MAV-Project/Firmware/build_px4fmu-v2_lpe/px4io-v2/NuttX/nuttx-export/libs/libnuttx.a(sched-sched_addblocked.o)
 .debug_info    0x000000000002f7c7      0xa90 /home/tuofeichen/SLAM/MAV-Project/Firmware/build_px4fmu-v2_lpe/px4io-v2/NuttX/nuttx-export/libs/libnuttx.a(sched-sched_addprioritized.o)
 .debug_info    0x0000000000030257      0xaf9 /home/tuofeichen/SLAM/MAV-Project/Firmware/build_px4fmu-v2_lpe/px4io-v2/NuttX/nuttx-export/libs/libnuttx.a(sched-sched_addreadytorun.o)
 .debug_info    0x0000000000030d50      0x261 /home/tuofeichen/SLAM/MAV-Project/Firmware/build_px4fmu-v2_lpe/px4io-v2/NuttX/nuttx-export/libs/libnuttx.a(sched-sched_free.o)
 .debug_info    0x0000000000030fb1      0xacf /home/tuofeichen/SLAM/MAV-Project/Firmware/build_px4fmu-v2_lpe/px4io-v2/NuttX/nuttx-export/libs/libnuttx.a(sched-sched_mergepending.o)
 .debug_info    0x0000000000031a80      0xb12 /home/tuofeichen/SLAM/MAV-Project/Firmware/build_px4fmu-v2_lpe/px4io-v2/NuttX/nuttx-export/libs/libnuttx.a(sched-sched_removeblocked.o)
 .debug_info    0x0000000000032592      0xac7 /home/tuofeichen/SLAM/MAV-Project/Firmware/build_px4fmu-v2_lpe/px4io-v2/NuttX/nuttx-export/libs/libnuttx.a(sched-sched_removereadytorun.o)
 .debug_info    0x0000000000033059      0x10c /home/tuofeichen/SLAM/MAV-Project/Firmware/build_px4fmu-v2_lpe/px4io-v2/NuttX/nuttx-export/libs/libnuttx.a(sched-sem_destroy.o)
 .debug_info    0x0000000000033165      0xe5e /home/tuofeichen/SLAM/MAV-Project/Firmware/build_px4fmu-v2_lpe/px4io-v2/NuttX/nuttx-export/libs/libnuttx.a(sched-task_create.o)
 .debug_info    0x0000000000033fc3      0xb0c /home/tuofeichen/SLAM/MAV-Project/Firmware/build_px4fmu-v2_lpe/px4io-v2/NuttX/nuttx-export/libs/libnuttx.a(sched-task_exit.o)
 .debug_info    0x0000000000034acf      0xe9c /home/tuofeichen/SLAM/MAV-Project/Firmware/build_px4fmu-v2_lpe/px4io-v2/NuttX/nuttx-export/libs/libnuttx.a(sched-task_setup.o)
 .debug_info    0x000000000003596b      0xa92 /home/tuofeichen/SLAM/MAV-Project/Firmware/build_px4fmu-v2_lpe/px4io-v2/NuttX/nuttx-export/libs/libnuttx.a(sched-task_start.o)
 .debug_info    0x00000000000363fd      0xc81 /home/tuofeichen/SLAM/MAV-Project/Firmware/build_px4fmu-v2_lpe/px4io-v2/NuttX/nuttx-export/libs/libnuttx.a(sched-task_terminate.o)
 .debug_info    0x000000000003707e      0x115 /home/tuofeichen/SLAM/MAV-Project/Firmware/build_px4fmu-v2_lpe/px4io-v2/NuttX/nuttx-export/libs/libnuttx.a(c-dq_addlast.o)
 .debug_info    0x0000000000037193      0x131 /home/tuofeichen/SLAM/MAV-Project/Firmware/build_px4fmu-v2_lpe/px4io-v2/NuttX/nuttx-export/libs/libnuttx.a(c-dq_rem.o)
 .debug_info    0x00000000000372c4      0x165 /home/tuofeichen/SLAM/MAV-Project/Firmware/build_px4fmu-v2_lpe/px4io-v2/NuttX/nuttx-export/libs/libnuttx.a(c-lib_strdup.o)
 .debug_info    0x0000000000037429      0x18e /home/tuofeichen/SLAM/MAV-Project/Firmware/build_px4fmu-v2_lpe/px4io-v2/NuttX/nuttx-export/libs/libnuttx.a(arch-stm32_timerisr.o)
 .debug_info    0x00000000000375b7      0xa31 /home/tuofeichen/SLAM/MAV-Project/Firmware/build_px4fmu-v2_lpe/px4io-v2/NuttX/nuttx-export/libs/libnuttx.a(arch-up_createstack.o)
 .debug_info    0x0000000000037fe8      0x179 /home/tuofeichen/SLAM/MAV-Project/Firmware/build_px4fmu-v2_lpe/px4io-v2/NuttX/nuttx-export/libs/libnuttx.a(arch-up_doirq.o)
 .debug_info    0x0000000000038161      0x9bd /home/tuofeichen/SLAM/MAV-Project/Firmware/build_px4fmu-v2_lpe/px4io-v2/NuttX/nuttx-export/libs/libnuttx.a(arch-up_releasestack.o)
 .debug_info    0x0000000000038b1e      0x11f /home/tuofeichen/SLAM/MAV-Project/Firmware/build_px4fmu-v2_lpe/px4io-v2/NuttX/nuttx-export/libs/libnuttx.a(fs-fs_close.o)
 .debug_info    0x0000000000038c3d      0x7f4 /home/tuofeichen/SLAM/MAV-Project/Firmware/build_px4fmu-v2_lpe/px4io-v2/NuttX/nuttx-export/libs/libnuttx.a(fs-fs_filedup2.o)
 .debug_info    0x0000000000039431      0x9d8 /home/tuofeichen/SLAM/MAV-Project/Firmware/build_px4fmu-v2_lpe/px4io-v2/NuttX/nuttx-export/libs/libnuttx.a(fs-fs_inodereserve.o)
 .debug_info    0x0000000000039e09      0xa16 /home/tuofeichen/SLAM/MAV-Project/Firmware/build_px4fmu-v2_lpe/px4io-v2/NuttX/nuttx-export/libs/libnuttx.a(sched-group_setuptaskfiles.o)
 .debug_info    0x000000000003a81f      0x10e /home/tuofeichen/SLAM/MAV-Project/Firmware/build_px4fmu-v2_lpe/px4io-v2/NuttX/nuttx-export/libs/libnuttx.a(sched-irq_dispatch.o)
 .debug_info    0x000000000003a92d      0xa04 /home/tuofeichen/SLAM/MAV-Project/Firmware/build_px4fmu-v2_lpe/px4io-v2/NuttX/nuttx-export/libs/libnuttx.a(sched-sched_gettcb.o)
 .debug_info    0x000000000003b331      0xa66 /home/tuofeichen/SLAM/MAV-Project/Firmware/build_px4fmu-v2_lpe/px4io-v2/NuttX/nuttx-export/libs/libnuttx.a(sched-sched_lock.o)
 .debug_info    0x000000000003bd97       0xc7 /home/tuofeichen/SLAM/MAV-Project/Firmware/build_px4fmu-v2_lpe/px4io-v2/NuttX/nuttx-export/libs/libnuttx.a(sched-sched_processtimer.o)
 .debug_info    0x000000000003be5e      0xb3b /home/tuofeichen/SLAM/MAV-Project/Firmware/build_px4fmu-v2_lpe/px4io-v2/NuttX/nuttx-export/libs/libnuttx.a(sched-sched_releasetcb.o)
 .debug_info    0x000000000003c999      0xae7 /home/tuofeichen/SLAM/MAV-Project/Firmware/build_px4fmu-v2_lpe/px4io-v2/NuttX/nuttx-export/libs/libnuttx.a(sched-sched_unlock.o)
 .debug_info    0x000000000003d480      0xa47 /home/tuofeichen/SLAM/MAV-Project/Firmware/build_px4fmu-v2_lpe/px4io-v2/NuttX/nuttx-export/libs/libnuttx.a(sched-task_activate.o)
 .debug_info    0x000000000003dec7      0xa9e /home/tuofeichen/SLAM/MAV-Project/Firmware/build_px4fmu-v2_lpe/px4io-v2/NuttX/nuttx-export/libs/libnuttx.a(arch-up_releasepending.o)

.debug_line     0x0000000000000000    0x196a5
 *(.debug_line)
 .debug_line    0x0000000000000000      0x1ec src/modules/px4iofirmware/CMakeFiles/px4io-v2.dir/adc.c.obj
 .debug_line    0x00000000000001ec      0x442 src/modules/px4iofirmware/CMakeFiles/px4io-v2.dir/controls.c.obj
 .debug_line    0x000000000000062e      0x3a3 src/modules/px4iofirmware/CMakeFiles/px4io-v2.dir/px4io.c.obj
 .debug_line    0x00000000000009d1      0x48b src/modules/px4iofirmware/CMakeFiles/px4io-v2.dir/registers.c.obj
 .debug_line    0x0000000000000e5c      0x1b5 src/modules/px4iofirmware/CMakeFiles/px4io-v2.dir/safety.c.obj
 .debug_line    0x0000000000001011       0xd8 src/modules/px4iofirmware/CMakeFiles/px4io-v2.dir/__/systemlib/up_cxxinitialize.c.obj
 .debug_line    0x00000000000010e9      0x3ca src/modules/px4iofirmware/CMakeFiles/px4io-v2.dir/__/systemlib/perf_counter.c.obj
 .debug_line    0x00000000000014b3      0x78d src/modules/px4iofirmware/CMakeFiles/px4io-v2.dir/mixer.cpp.obj
 .debug_line    0x0000000000001c40      0x53b src/modules/px4iofirmware/CMakeFiles/px4io-v2.dir/__/systemlib/mixer/mixer.cpp.obj
 .debug_line    0x000000000000217b      0x501 src/modules/px4iofirmware/CMakeFiles/px4io-v2.dir/__/systemlib/mixer/mixer_group.cpp.obj
 .debug_line    0x000000000000267c      0x783 src/modules/px4iofirmware/CMakeFiles/px4io-v2.dir/__/systemlib/mixer/mixer_multirotor.cpp.obj
 .debug_line    0x0000000000002dff      0x5b1 src/modules/px4iofirmware/CMakeFiles/px4io-v2.dir/__/systemlib/mixer/mixer_simple.cpp.obj
 .debug_line    0x00000000000033b0      0x1af src/modules/px4iofirmware/CMakeFiles/px4io-v2.dir/__/systemlib/pwm_limit/pwm_limit.c.obj
 .debug_line    0x000000000000355f      0x1ec src/modules/px4iofirmware/CMakeFiles/px4io-v2.dir/__/__/lib/rc/st24.c.obj
 .debug_line    0x000000000000374b      0x25b src/modules/px4iofirmware/CMakeFiles/px4io-v2.dir/__/__/lib/rc/sumd.c.obj
 .debug_line    0x00000000000039a6      0x374 src/modules/px4iofirmware/CMakeFiles/px4io-v2.dir/__/__/lib/rc/sbus.c.obj
 .debug_line    0x0000000000003d1a      0x39c src/modules/px4iofirmware/CMakeFiles/px4io-v2.dir/__/__/lib/rc/dsm.c.obj
 .debug_line    0x00000000000040b6      0x494 src/modules/px4iofirmware/CMakeFiles/px4io-v2.dir/__/__/drivers/stm32/drv_hrt.c.obj
 .debug_line    0x000000000000454a      0x59f src/modules/px4iofirmware/CMakeFiles/px4io-v2.dir/__/__/drivers/stm32/drv_io_timer.c.obj
 .debug_line    0x0000000000004ae9      0x208 src/modules/px4iofirmware/CMakeFiles/px4io-v2.dir/__/__/drivers/stm32/drv_pwm_servo.c.obj
 .debug_line    0x0000000000004cf1      0x123 src/modules/px4iofirmware/CMakeFiles/px4io-v2.dir/__/__/drivers/boards/px4io-v2/px4io_init.c.obj
 .debug_line    0x0000000000004e14      0x13a src/modules/px4iofirmware/CMakeFiles/px4io-v2.dir/__/__/drivers/boards/px4io-v2/px4io_timer_config.c.obj
 .debug_line    0x0000000000004f4e      0x331 src/modules/px4iofirmware/CMakeFiles/px4io-v2.dir/serial.c.obj
 .debug_line    0x000000000000527f      0x278 src/modules/px4iofirmware/CMakeFiles/px4io-v2.dir/__/systemlib/hx_stream.c.obj
 .debug_line    0x00000000000054f7      0x1c9 /home/tuofeichen/SLAM/MAV-Project/Firmware/build_px4fmu-v2_lpe/px4io-v2/NuttX/nuttx-export/libs/libnuttx.a(sched-irq_attach.o)
 .debug_line    0x00000000000056c0       0xb8 /home/tuofeichen/SLAM/MAV-Project/Firmware/build_px4fmu-v2_lpe/px4io-v2/NuttX/nuttx-export/libs/libnuttx.a(sched-irq_initialize.o)
 .debug_line    0x0000000000005778      0x1a2 /home/tuofeichen/SLAM/MAV-Project/Firmware/build_px4fmu-v2_lpe/px4io-v2/NuttX/nuttx-export/libs/libnuttx.a(sched-irq_unexpectedisr.o)
 .debug_line    0x000000000000591a       0xae /home/tuofeichen/SLAM/MAV-Project/Firmware/build_px4fmu-v2_lpe/px4io-v2/NuttX/nuttx-export/libs/libnuttx.a(c-lib_abort.o)
 .debug_line    0x00000000000059c8      0x12c /home/tuofeichen/SLAM/MAV-Project/Firmware/build_px4fmu-v2_lpe/px4io-v2/NuttX/nuttx-export/libs/libnuttx.a(c-lib_cfsetspeed.o)
 .debug_line    0x0000000000005af4      0x1a7 /home/tuofeichen/SLAM/MAV-Project/Firmware/build_px4fmu-v2_lpe/px4io-v2/NuttX/nuttx-export/libs/libnuttx.a(c-lib_crc32.o)
 .debug_line    0x0000000000005c9b       0xf1 /home/tuofeichen/SLAM/MAV-Project/Firmware/build_px4fmu-v2_lpe/px4io-v2/NuttX/nuttx-export/libs/libnuttx.a(c-lib_dprintf.o)
 .debug_line    0x0000000000005d8c      0x18e /home/tuofeichen/SLAM/MAV-Project/Firmware/build_px4fmu-v2_lpe/px4io-v2/NuttX/nuttx-export/libs/libnuttx.a(c-lib_lowsyslog.o)
 .debug_line    0x0000000000005f1a      0x194 /home/tuofeichen/SLAM/MAV-Project/Firmware/build_px4fmu-v2_lpe/px4io-v2/NuttX/nuttx-export/libs/libnuttx.a(c-lib_memchr.o)
 .debug_line    0x00000000000060ae      0x19b /home/tuofeichen/SLAM/MAV-Project/Firmware/build_px4fmu-v2_lpe/px4io-v2/NuttX/nuttx-export/libs/libnuttx.a(c-lib_memcpy.o)
 .debug_line    0x0000000000006249      0x1a0 /home/tuofeichen/SLAM/MAV-Project/Firmware/build_px4fmu-v2_lpe/px4io-v2/NuttX/nuttx-export/libs/libnuttx.a(c-lib_memset.o)
 .debug_line    0x00000000000063e9       0xf3 /home/tuofeichen/SLAM/MAV-Project/Firmware/build_px4fmu-v2_lpe/px4io-v2/NuttX/nuttx-export/libs/libnuttx.a(c-lib_printf.o)
 .debug_line    0x00000000000064dc      0x360 /home/tuofeichen/SLAM/MAV-Project/Firmware/build_px4fmu-v2_lpe/px4io-v2/NuttX/nuttx-export/libs/libnuttx.a(c-lib_sscanf.o)
 .debug_line    0x000000000000683c       0xaf /home/tuofeichen/SLAM/MAV-Project/Firmware/build_px4fmu-v2_lpe/px4io-v2/NuttX/nuttx-export/libs/libnuttx.a(c-lib_strchr.o)
 .debug_line    0x00000000000068eb       0xb4 /home/tuofeichen/SLAM/MAV-Project/Firmware/build_px4fmu-v2_lpe/px4io-v2/NuttX/nuttx-export/libs/libnuttx.a(c-lib_strcmp.o)
 .debug_line    0x000000000000699f      0x19e /home/tuofeichen/SLAM/MAV-Project/Firmware/build_px4fmu-v2_lpe/px4io-v2/NuttX/nuttx-export/libs/libnuttx.a(c-lib_strcspn.o)
 .debug_line    0x0000000000006b3d      0x1ab /home/tuofeichen/SLAM/MAV-Project/Firmware/build_px4fmu-v2_lpe/px4io-v2/NuttX/nuttx-export/libs/libnuttx.a(c-lib_strncpy.o)
 .debug_line    0x0000000000006ce8      0x156 /home/tuofeichen/SLAM/MAV-Project/Firmware/build_px4fmu-v2_lpe/px4io-v2/NuttX/nuttx-export/libs/libnuttx.a(c-lib_strtol.o)
 .debug_line    0x0000000000006e3e      0x15a /home/tuofeichen/SLAM/MAV-Project/Firmware/build_px4fmu-v2_lpe/px4io-v2/NuttX/nuttx-export/libs/libnuttx.a(c-lib_strtoul.o)
 .debug_line    0x0000000000006f98      0x18e /home/tuofeichen/SLAM/MAV-Project/Firmware/build_px4fmu-v2_lpe/px4io-v2/NuttX/nuttx-export/libs/libnuttx.a(c-lib_syslog.o)
 .debug_line    0x0000000000007126      0x196 /home/tuofeichen/SLAM/MAV-Project/Firmware/build_px4fmu-v2_lpe/px4io-v2/NuttX/nuttx-export/libs/libnuttx.a(c-lib_tcgetattr.o)
 .debug_line    0x00000000000072bc      0x197 /home/tuofeichen/SLAM/MAV-Project/Firmware/build_px4fmu-v2_lpe/px4io-v2/NuttX/nuttx-export/libs/libnuttx.a(c-lib_tcsetattr.o)
 .debug_line    0x0000000000007453      0x174 /home/tuofeichen/SLAM/MAV-Project/Firmware/build_px4fmu-v2_lpe/px4io-v2/NuttX/nuttx-export/libs/libnuttx.a(c-lib_vdprintf.o)
 .debug_line    0x00000000000075c7      0x259 /home/tuofeichen/SLAM/MAV-Project/Firmware/build_px4fmu-v2_lpe/px4io-v2/NuttX/nuttx-export/libs/libnuttx.a(c-lib_vsnprintf.o)
 .debug_line    0x0000000000007820       0xb6 /home/tuofeichen/SLAM/MAV-Project/Firmware/build_px4fmu-v2_lpe/px4io-v2/NuttX/nuttx-export/libs/libnuttx.a(c-sq_addafter.o)
 .debug_line    0x00000000000078d6       0xae /home/tuofeichen/SLAM/MAV-Project/Firmware/build_px4fmu-v2_lpe/px4io-v2/NuttX/nuttx-export/libs/libnuttx.a(c-sq_addfirst.o)
 .debug_line    0x0000000000007984       0xae /home/tuofeichen/SLAM/MAV-Project/Firmware/build_px4fmu-v2_lpe/px4io-v2/NuttX/nuttx-export/libs/libnuttx.a(c-sq_addlast.o)
 .debug_line    0x0000000000007a32       0xb8 /home/tuofeichen/SLAM/MAV-Project/Firmware/build_px4fmu-v2_lpe/px4io-v2/NuttX/nuttx-export/libs/libnuttx.a(c-sq_rem.o)
 .debug_line    0x0000000000007aea      0x191 /home/tuofeichen/SLAM/MAV-Project/Firmware/build_px4fmu-v2_lpe/px4io-v2/NuttX/nuttx-export/libs/libnuttx.a(mm-mm_calloc.o)
 .debug_line    0x0000000000007c7b      0x224 /home/tuofeichen/SLAM/MAV-Project/Firmware/build_px4fmu-v2_lpe/px4io-v2/NuttX/nuttx-export/libs/libnuttx.a(mm-mm_free.o)
 .debug_line    0x0000000000007e9f      0x229 /home/tuofeichen/SLAM/MAV-Project/Firmware/build_px4fmu-v2_lpe/px4io-v2/NuttX/nuttx-export/libs/libnuttx.a(mm-mm_mallinfo.o)
 .debug_line    0x00000000000080c8      0x23a /home/tuofeichen/SLAM/MAV-Project/Firmware/build_px4fmu-v2_lpe/px4io-v2/NuttX/nuttx-export/libs/libnuttx.a(mm-mm_malloc.o)
 .debug_line    0x0000000000008302      0x27b /home/tuofeichen/SLAM/MAV-Project/Firmware/build_px4fmu-v2_lpe/px4io-v2/NuttX/nuttx-export/libs/libnuttx.a(mm-mm_sem.o)
 .debug_line    0x000000000000857d      0x1f4 /home/tuofeichen/SLAM/MAV-Project/Firmware/build_px4fmu-v2_lpe/px4io-v2/NuttX/nuttx-export/libs/libnuttx.a(mm-mm_size2ndx.o)
 .debug_line    0x0000000000008771      0x228 /home/tuofeichen/SLAM/MAV-Project/Firmware/build_px4fmu-v2_lpe/px4io-v2/NuttX/nuttx-export/libs/libnuttx.a(mm-mm_user.o)
 .debug_line    0x0000000000008999      0x18c /home/tuofeichen/SLAM/MAV-Project/Firmware/build_px4fmu-v2_lpe/px4io-v2/NuttX/nuttx-export/libs/libnuttx.a(mm-mm_zalloc.o)
 .debug_line    0x0000000000008b25      0x367 /home/tuofeichen/SLAM/MAV-Project/Firmware/build_px4fmu-v2_lpe/px4io-v2/NuttX/nuttx-export/libs/libnuttx.a(arch-stm32_dma.o)
 .debug_line    0x0000000000008e8c      0x24f /home/tuofeichen/SLAM/MAV-Project/Firmware/build_px4fmu-v2_lpe/px4io-v2/NuttX/nuttx-export/libs/libnuttx.a(arch-stm32_gpio.o)
 .debug_line    0x00000000000090db      0x293 /home/tuofeichen/SLAM/MAV-Project/Firmware/build_px4fmu-v2_lpe/px4io-v2/NuttX/nuttx-export/libs/libnuttx.a(arch-stm32_irq.o)
 .debug_line    0x000000000000936e      0x8d4 /home/tuofeichen/SLAM/MAV-Project/Firmware/build_px4fmu-v2_lpe/px4io-v2/NuttX/nuttx-export/libs/libnuttx.a(arch-stm32_serial.o)
 .debug_line    0x0000000000009c42      0x326 /home/tuofeichen/SLAM/MAV-Project/Firmware/build_px4fmu-v2_lpe/px4io-v2/NuttX/nuttx-export/libs/libnuttx.a(arch-stm32_start.o)
 .debug_line    0x0000000000009f68      0x459 /home/tuofeichen/SLAM/MAV-Project/Firmware/build_px4fmu-v2_lpe/px4io-v2/NuttX/nuttx-export/libs/libnuttx.a(arch-up_assert.o)
 .debug_line    0x000000000000a3c1      0x238 /home/tuofeichen/SLAM/MAV-Project/Firmware/build_px4fmu-v2_lpe/px4io-v2/NuttX/nuttx-export/libs/libnuttx.a(arch-up_hardfault.o)
 .debug_line    0x000000000000a5f9      0x1a3 /home/tuofeichen/SLAM/MAV-Project/Firmware/build_px4fmu-v2_lpe/px4io-v2/NuttX/nuttx-export/libs/libnuttx.a(arch-up_modifyreg32.o)
 .debug_line    0x000000000000a79c      0x1b3 /home/tuofeichen/SLAM/MAV-Project/Firmware/build_px4fmu-v2_lpe/px4io-v2/NuttX/nuttx-export/libs/libnuttx.a(arch-up_svcall.o)
 .debug_line    0x000000000000a94f      0x127 /home/tuofeichen/SLAM/MAV-Project/Firmware/build_px4fmu-v2_lpe/px4io-v2/NuttX/nuttx-export/libs/libnuttx.a(arch-up_systemreset.o)
 .debug_line    0x000000000000aa76      0x21d /home/tuofeichen/SLAM/MAV-Project/Firmware/build_px4fmu-v2_lpe/px4io-v2/NuttX/nuttx-export/libs/libnuttx.a(arch-up_udelay.o)
 .debug_line    0x000000000000ac93       0x35 /home/tuofeichen/SLAM/MAV-Project/Firmware/build_px4fmu-v2_lpe/px4io-v2/NuttX/nuttx-export/libs/libnuttx.a(arch-up_vectors.o)
 .debug_line    0x000000000000acc8      0x222 /home/tuofeichen/SLAM/MAV-Project/Firmware/build_px4fmu-v2_lpe/px4io-v2/NuttX/nuttx-export/libs/libnuttx.a(cxx-libxx_cxa_atexit.o)
 .debug_line    0x000000000000aeea      0x12a /home/tuofeichen/SLAM/MAV-Project/Firmware/build_px4fmu-v2_lpe/px4io-v2/NuttX/nuttx-export/libs/libnuttx.a(cxx-libxx_cxapurevirtual.o)
 .debug_line    0x000000000000b014      0x205 /home/tuofeichen/SLAM/MAV-Project/Firmware/build_px4fmu-v2_lpe/px4io-v2/NuttX/nuttx-export/libs/libnuttx.a(cxx-libxx_delete.o)
 .debug_line    0x000000000000b219      0x222 /home/tuofeichen/SLAM/MAV-Project/Firmware/build_px4fmu-v2_lpe/px4io-v2/NuttX/nuttx-export/libs/libnuttx.a(cxx-libxx_eabi_atexit.o)
 .debug_line    0x000000000000b43b      0x210 /home/tuofeichen/SLAM/MAV-Project/Firmware/build_px4fmu-v2_lpe/px4io-v2/NuttX/nuttx-export/libs/libnuttx.a(cxx-libxx_new.o)
 .debug_line    0x000000000000b64b      0x2b8 /home/tuofeichen/SLAM/MAV-Project/Firmware/build_px4fmu-v2_lpe/px4io-v2/NuttX/nuttx-export/libs/libnuttx.a(fs-fs_ioctl.o)
 .debug_line    0x000000000000b903      0x2f2 /home/tuofeichen/SLAM/MAV-Project/Firmware/build_px4fmu-v2_lpe/px4io-v2/NuttX/nuttx-export/libs/libnuttx.a(fs-fs_open.o)
 .debug_line    0x000000000000bbf5      0x2a9 /home/tuofeichen/SLAM/MAV-Project/Firmware/build_px4fmu-v2_lpe/px4io-v2/NuttX/nuttx-export/libs/libnuttx.a(fs-fs_read.o)
 .debug_line    0x000000000000be9e      0x2a8 /home/tuofeichen/SLAM/MAV-Project/Firmware/build_px4fmu-v2_lpe/px4io-v2/NuttX/nuttx-export/libs/libnuttx.a(fs-fs_write.o)
 .debug_line    0x000000000000c146      0x2d0 /home/tuofeichen/SLAM/MAV-Project/Firmware/build_px4fmu-v2_lpe/px4io-v2/NuttX/nuttx-export/libs/libnuttx.a(drivers-serialirq.o)
 .debug_line    0x000000000000c416      0x61b /home/tuofeichen/SLAM/MAV-Project/Firmware/build_px4fmu-v2_lpe/px4io-v2/NuttX/nuttx-export/libs/libnuttx.a(drivers-serial.o)
 .debug_line    0x000000000000ca31      0x32c /home/tuofeichen/SLAM/MAV-Project/Firmware/build_px4fmu-v2_lpe/px4io-v2/NuttX/nuttx-export/libs/libnuttx.a(sched-errno_getptr.o)
 .debug_line    0x000000000000cd5d      0x326 /home/tuofeichen/SLAM/MAV-Project/Firmware/build_px4fmu-v2_lpe/px4io-v2/NuttX/nuttx-export/libs/libnuttx.a(sched-exit.o)
 .debug_line    0x000000000000d083      0x317 /home/tuofeichen/SLAM/MAV-Project/Firmware/build_px4fmu-v2_lpe/px4io-v2/NuttX/nuttx-export/libs/libnuttx.a(sched-getpid.o)
 .debug_line    0x000000000000d39a      0x408 /home/tuofeichen/SLAM/MAV-Project/Firmware/build_px4fmu-v2_lpe/px4io-v2/NuttX/nuttx-export/libs/libnuttx.a(sched-os_start.o)
 .debug_line    0x000000000000d7a2      0x232 /home/tuofeichen/SLAM/MAV-Project/Firmware/build_px4fmu-v2_lpe/px4io-v2/NuttX/nuttx-export/libs/libnuttx.a(sched-sched_garbage.o)
 .debug_line    0x000000000000d9d4      0x316 /home/tuofeichen/SLAM/MAV-Project/Firmware/build_px4fmu-v2_lpe/px4io-v2/NuttX/nuttx-export/libs/libnuttx.a(sched-sched_getfiles.o)
 .debug_line    0x000000000000dcea      0x34f /home/tuofeichen/SLAM/MAV-Project/Firmware/build_px4fmu-v2_lpe/px4io-v2/NuttX/nuttx-export/libs/libnuttx.a(sched-sem_post.o)
 .debug_line    0x000000000000e039      0x345 /home/tuofeichen/SLAM/MAV-Project/Firmware/build_px4fmu-v2_lpe/px4io-v2/NuttX/nuttx-export/libs/libnuttx.a(sched-sem_trywait.o)
 .debug_line    0x000000000000e37e      0x372 /home/tuofeichen/SLAM/MAV-Project/Firmware/build_px4fmu-v2_lpe/px4io-v2/NuttX/nuttx-export/libs/libnuttx.a(sched-sem_wait.o)
 .debug_line    0x000000000000e6f0      0x327 /home/tuofeichen/SLAM/MAV-Project/Firmware/build_px4fmu-v2_lpe/px4io-v2/NuttX/nuttx-export/libs/libnuttx.a(sched-task_exithook.o)
 .debug_line    0x000000000000ea17      0x313 /home/tuofeichen/SLAM/MAV-Project/Firmware/build_px4fmu-v2_lpe/px4io-v2/NuttX/nuttx-export/libs/libnuttx.a(sched-task_recover.o)
 .debug_line    0x000000000000ed2a      0x1fa /home/tuofeichen/SLAM/MAV-Project/Firmware/build_px4fmu-v2_lpe/px4io-v2/NuttX/nuttx-export/libs/libnuttx.a(sched-wd_cancel.o)
 .debug_line    0x000000000000ef24      0x1de /home/tuofeichen/SLAM/MAV-Project/Firmware/build_px4fmu-v2_lpe/px4io-v2/NuttX/nuttx-export/libs/libnuttx.a(sched-wd_delete.o)
 .debug_line    0x000000000000f102      0x241 /home/tuofeichen/SLAM/MAV-Project/Firmware/build_px4fmu-v2_lpe/px4io-v2/NuttX/nuttx-export/libs/libnuttx.a(sched-wd_initialize.o)
 .debug_line    0x000000000000f343       0xb1 /home/tuofeichen/SLAM/MAV-Project/Firmware/build_px4fmu-v2_lpe/px4io-v2/NuttX/nuttx-export/libs/libnuttx.a(c-dq_addfirst.o)
 .debug_line    0x000000000000f3f4      0x12b /home/tuofeichen/SLAM/MAV-Project/Firmware/build_px4fmu-v2_lpe/px4io-v2/NuttX/nuttx-export/libs/libnuttx.a(c-lib_cfgetspeed.o)
 .debug_line    0x000000000000f51f      0x167 /home/tuofeichen/SLAM/MAV-Project/Firmware/build_px4fmu-v2_lpe/px4io-v2/NuttX/nuttx-export/libs/libnuttx.a(c-lib_checkbase.o)
 .debug_line    0x000000000000f686      0x152 /home/tuofeichen/SLAM/MAV-Project/Firmware/build_px4fmu-v2_lpe/px4io-v2/NuttX/nuttx-export/libs/libnuttx.a(c-lib_isbasedigit.o)
 .debug_line    0x000000000000f7d8      0x4dd /home/tuofeichen/SLAM/MAV-Project/Firmware/build_px4fmu-v2_lpe/px4io-v2/NuttX/nuttx-export/libs/libnuttx.a(c-lib_libvsprintf.o)
 .debug_line    0x000000000000fcb5       0xd6 /home/tuofeichen/SLAM/MAV-Project/Firmware/build_px4fmu-v2_lpe/px4io-v2/NuttX/nuttx-export/libs/libnuttx.a(c-lib_lowoutstream.o)
 .debug_line    0x000000000000fd8b       0xda /home/tuofeichen/SLAM/MAV-Project/Firmware/build_px4fmu-v2_lpe/px4io-v2/NuttX/nuttx-export/libs/libnuttx.a(c-lib_memoutstream.o)
 .debug_line    0x000000000000fe65       0xcb /home/tuofeichen/SLAM/MAV-Project/Firmware/build_px4fmu-v2_lpe/px4io-v2/NuttX/nuttx-export/libs/libnuttx.a(c-lib_nulloutstream.o)
 .debug_line    0x000000000000ff30      0x22d /home/tuofeichen/SLAM/MAV-Project/Firmware/build_px4fmu-v2_lpe/px4io-v2/NuttX/nuttx-export/libs/libnuttx.a(c-lib_rawoutstream.o)
 .debug_line    0x000000000001015d       0x53 /home/tuofeichen/SLAM/MAV-Project/Firmware/build_px4fmu-v2_lpe/px4io-v2/NuttX/nuttx-export/libs/libnuttx.a(c-lib_skipspace.o)
 .debug_line    0x00000000000101b0       0xb1 /home/tuofeichen/SLAM/MAV-Project/Firmware/build_px4fmu-v2_lpe/px4io-v2/NuttX/nuttx-export/libs/libnuttx.a(c-lib_strcpy.o)
 .debug_line    0x0000000000010261      0x194 /home/tuofeichen/SLAM/MAV-Project/Firmware/build_px4fmu-v2_lpe/px4io-v2/NuttX/nuttx-export/libs/libnuttx.a(c-lib_strlen.o)
 .debug_line    0x00000000000103f5      0x142 /home/tuofeichen/SLAM/MAV-Project/Firmware/build_px4fmu-v2_lpe/px4io-v2/NuttX/nuttx-export/libs/libnuttx.a(c-sem_init.o)
 .debug_line    0x0000000000010537       0xbb /home/tuofeichen/SLAM/MAV-Project/Firmware/build_px4fmu-v2_lpe/px4io-v2/NuttX/nuttx-export/libs/libnuttx.a(c-sq_remafter.o)
 .debug_line    0x00000000000105f2       0xb1 /home/tuofeichen/SLAM/MAV-Project/Firmware/build_px4fmu-v2_lpe/px4io-v2/NuttX/nuttx-export/libs/libnuttx.a(c-sq_remfirst.o)
 .debug_line    0x00000000000106a3      0x216 /home/tuofeichen/SLAM/MAV-Project/Firmware/build_px4fmu-v2_lpe/px4io-v2/NuttX/nuttx-export/libs/libnuttx.a(mm-mm_addfreechunk.o)
 .debug_line    0x00000000000108b9      0x249 /home/tuofeichen/SLAM/MAV-Project/Firmware/build_px4fmu-v2_lpe/px4io-v2/NuttX/nuttx-export/libs/libnuttx.a(mm-mm_initialize.o)
 .debug_line    0x0000000000010b02      0x272 /home/tuofeichen/SLAM/MAV-Project/Firmware/build_px4fmu-v2_lpe/px4io-v2/NuttX/nuttx-export/libs/libnuttx.a(arch-stm32_allocateheap.o)
 .debug_line    0x0000000000010d74       0xb1 /home/tuofeichen/SLAM/MAV-Project/Firmware/build_px4fmu-v2_lpe/px4io-v2/NuttX/nuttx-export/libs/libnuttx.a(arch-stm32_idle.o)
 .debug_line    0x0000000000010e25      0x25c /home/tuofeichen/SLAM/MAV-Project/Firmware/build_px4fmu-v2_lpe/px4io-v2/NuttX/nuttx-export/libs/libnuttx.a(arch-stm32_lowputc.o)
 .debug_line    0x0000000000011081      0x200 /home/tuofeichen/SLAM/MAV-Project/Firmware/build_px4fmu-v2_lpe/px4io-v2/NuttX/nuttx-export/libs/libnuttx.a(arch-stm32_rcc.o)
 .debug_line    0x0000000000011281      0x425 /home/tuofeichen/SLAM/MAV-Project/Firmware/build_px4fmu-v2_lpe/px4io-v2/NuttX/nuttx-export/libs/libnuttx.a(arch-up_blocktask.o)
 .debug_line    0x00000000000116a6      0x126 /home/tuofeichen/SLAM/MAV-Project/Firmware/build_px4fmu-v2_lpe/px4io-v2/NuttX/nuttx-export/libs/libnuttx.a(arch-up_copystate.o)
 .debug_line    0x00000000000117cc       0x6c /home/tuofeichen/SLAM/MAV-Project/Firmware/build_px4fmu-v2_lpe/px4io-v2/NuttX/nuttx-export/libs/libnuttx.a(arch-up_exception.o)
 .debug_line    0x0000000000011838      0x396 /home/tuofeichen/SLAM/MAV-Project/Firmware/build_px4fmu-v2_lpe/px4io-v2/NuttX/nuttx-export/libs/libnuttx.a(arch-up_exit.o)
 .debug_line    0x0000000000011bce       0x53 /home/tuofeichen/SLAM/MAV-Project/Firmware/build_px4fmu-v2_lpe/px4io-v2/NuttX/nuttx-export/libs/libnuttx.a(arch-up_fullcontextrestore.o)
 .debug_line    0x0000000000011c21      0x20f /home/tuofeichen/SLAM/MAV-Project/Firmware/build_px4fmu-v2_lpe/px4io-v2/NuttX/nuttx-export/libs/libnuttx.a(arch-up_initialize.o)
 .debug_line    0x0000000000011e30      0x325 /home/tuofeichen/SLAM/MAV-Project/Firmware/build_px4fmu-v2_lpe/px4io-v2/NuttX/nuttx-export/libs/libnuttx.a(arch-up_initialstate.o)
 .debug_line    0x0000000000012155      0x1ad /home/tuofeichen/SLAM/MAV-Project/Firmware/build_px4fmu-v2_lpe/px4io-v2/NuttX/nuttx-export/libs/libnuttx.a(arch-up_interruptcontext.o)
 .debug_line    0x0000000000012302       0xc5 /home/tuofeichen/SLAM/MAV-Project/Firmware/build_px4fmu-v2_lpe/px4io-v2/NuttX/nuttx-export/libs/libnuttx.a(arch-up_mdelay.o)
 .debug_line    0x00000000000123c7       0x4f /home/tuofeichen/SLAM/MAV-Project/Firmware/build_px4fmu-v2_lpe/px4io-v2/NuttX/nuttx-export/libs/libnuttx.a(arch-up_switchcontext.o)
 .debug_line    0x0000000000012416      0x420 /home/tuofeichen/SLAM/MAV-Project/Firmware/build_px4fmu-v2_lpe/px4io-v2/NuttX/nuttx-export/libs/libnuttx.a(arch-up_unblocktask.o)
 .debug_line    0x0000000000012836      0x3be /home/tuofeichen/SLAM/MAV-Project/Firmware/build_px4fmu-v2_lpe/px4io-v2/NuttX/nuttx-export/libs/libnuttx.a(fs-fs_files.o)
 .debug_line    0x0000000000012bf4      0x210 /home/tuofeichen/SLAM/MAV-Project/Firmware/build_px4fmu-v2_lpe/px4io-v2/NuttX/nuttx-export/libs/libnuttx.a(fs-fs_inodeaddref.o)
 .debug_line    0x0000000000012e04      0x21e /home/tuofeichen/SLAM/MAV-Project/Firmware/build_px4fmu-v2_lpe/px4io-v2/NuttX/nuttx-export/libs/libnuttx.a(fs-fs_inodefind.o)
 .debug_line    0x0000000000013022      0x2e8 /home/tuofeichen/SLAM/MAV-Project/Firmware/build_px4fmu-v2_lpe/px4io-v2/NuttX/nuttx-export/libs/libnuttx.a(fs-fs_inode.o)
 .debug_line    0x000000000001330a      0x22d /home/tuofeichen/SLAM/MAV-Project/Firmware/build_px4fmu-v2_lpe/px4io-v2/NuttX/nuttx-export/libs/libnuttx.a(fs-fs_inoderelease.o)
 .debug_line    0x0000000000013537      0x21c /home/tuofeichen/SLAM/MAV-Project/Firmware/build_px4fmu-v2_lpe/px4io-v2/NuttX/nuttx-export/libs/libnuttx.a(fs-fs_registerdriver.o)
 .debug_line    0x0000000000013753      0x323 /home/tuofeichen/SLAM/MAV-Project/Firmware/build_px4fmu-v2_lpe/px4io-v2/NuttX/nuttx-export/libs/libnuttx.a(sched-group_create.o)
 .debug_line    0x0000000000013a76      0x311 /home/tuofeichen/SLAM/MAV-Project/Firmware/build_px4fmu-v2_lpe/px4io-v2/NuttX/nuttx-export/libs/libnuttx.a(sched-group_leave.o)
 .debug_line    0x0000000000013d87      0x326 /home/tuofeichen/SLAM/MAV-Project/Firmware/build_px4fmu-v2_lpe/px4io-v2/NuttX/nuttx-export/libs/libnuttx.a(sched-group_setupidlefiles.o)
 .debug_line    0x00000000000140ad      0x1a2 /home/tuofeichen/SLAM/MAV-Project/Firmware/build_px4fmu-v2_lpe/px4io-v2/NuttX/nuttx-export/libs/libnuttx.a(sched-os_bringup.o)
 .debug_line    0x000000000001424f      0x32f /home/tuofeichen/SLAM/MAV-Project/Firmware/build_px4fmu-v2_lpe/px4io-v2/NuttX/nuttx-export/libs/libnuttx.a(sched-sched_addblocked.o)
 .debug_line    0x000000000001457e      0x340 /home/tuofeichen/SLAM/MAV-Project/Firmware/build_px4fmu-v2_lpe/px4io-v2/NuttX/nuttx-export/libs/libnuttx.a(sched-sched_addprioritized.o)
 .debug_line    0x00000000000148be      0x345 /home/tuofeichen/SLAM/MAV-Project/Firmware/build_px4fmu-v2_lpe/px4io-v2/NuttX/nuttx-export/libs/libnuttx.a(sched-sched_addreadytorun.o)
 .debug_line    0x0000000000014c03      0x25c /home/tuofeichen/SLAM/MAV-Project/Firmware/build_px4fmu-v2_lpe/px4io-v2/NuttX/nuttx-export/libs/libnuttx.a(sched-sched_free.o)
 .debug_line    0x0000000000014e5f      0x350 /home/tuofeichen/SLAM/MAV-Project/Firmware/build_px4fmu-v2_lpe/px4io-v2/NuttX/nuttx-export/libs/libnuttx.a(sched-sched_mergepending.o)
 .debug_line    0x00000000000151af      0x32e /home/tuofeichen/SLAM/MAV-Project/Firmware/build_px4fmu-v2_lpe/px4io-v2/NuttX/nuttx-export/libs/libnuttx.a(sched-sched_removeblocked.o)
 .debug_line    0x00000000000154dd      0x33c /home/tuofeichen/SLAM/MAV-Project/Firmware/build_px4fmu-v2_lpe/px4io-v2/NuttX/nuttx-export/libs/libnuttx.a(sched-sched_removereadytorun.o)
 .debug_line    0x0000000000015819      0x137 /home/tuofeichen/SLAM/MAV-Project/Firmware/build_px4fmu-v2_lpe/px4io-v2/NuttX/nuttx-export/libs/libnuttx.a(sched-sem_destroy.o)
 .debug_line    0x0000000000015950      0x3a7 /home/tuofeichen/SLAM/MAV-Project/Firmware/build_px4fmu-v2_lpe/px4io-v2/NuttX/nuttx-export/libs/libnuttx.a(sched-task_create.o)
 .debug_line    0x0000000000015cf7      0x329 /home/tuofeichen/SLAM/MAV-Project/Firmware/build_px4fmu-v2_lpe/px4io-v2/NuttX/nuttx-export/libs/libnuttx.a(sched-task_exit.o)
 .debug_line    0x0000000000016020      0x39c /home/tuofeichen/SLAM/MAV-Project/Firmware/build_px4fmu-v2_lpe/px4io-v2/NuttX/nuttx-export/libs/libnuttx.a(sched-task_setup.o)
 .debug_line    0x00000000000163bc      0x32c /home/tuofeichen/SLAM/MAV-Project/Firmware/build_px4fmu-v2_lpe/px4io-v2/NuttX/nuttx-export/libs/libnuttx.a(sched-task_start.o)
 .debug_line    0x00000000000166e8      0x35a /home/tuofeichen/SLAM/MAV-Project/Firmware/build_px4fmu-v2_lpe/px4io-v2/NuttX/nuttx-export/libs/libnuttx.a(sched-task_terminate.o)
 .debug_line    0x0000000000016a42       0xaf /home/tuofeichen/SLAM/MAV-Project/Firmware/build_px4fmu-v2_lpe/px4io-v2/NuttX/nuttx-export/libs/libnuttx.a(c-dq_addlast.o)
 .debug_line    0x0000000000016af1       0xaf /home/tuofeichen/SLAM/MAV-Project/Firmware/build_px4fmu-v2_lpe/px4io-v2/NuttX/nuttx-export/libs/libnuttx.a(c-dq_rem.o)
 .debug_line    0x0000000000016ba0      0x19f /home/tuofeichen/SLAM/MAV-Project/Firmware/build_px4fmu-v2_lpe/px4io-v2/NuttX/nuttx-export/libs/libnuttx.a(c-lib_strdup.o)
 .debug_line    0x0000000000016d3f      0x231 /home/tuofeichen/SLAM/MAV-Project/Firmware/build_px4fmu-v2_lpe/px4io-v2/NuttX/nuttx-export/libs/libnuttx.a(arch-stm32_timerisr.o)
 .debug_line    0x0000000000016f70      0x334 /home/tuofeichen/SLAM/MAV-Project/Firmware/build_px4fmu-v2_lpe/px4io-v2/NuttX/nuttx-export/libs/libnuttx.a(arch-up_createstack.o)
 .debug_line    0x00000000000172a4      0x20a /home/tuofeichen/SLAM/MAV-Project/Firmware/build_px4fmu-v2_lpe/px4io-v2/NuttX/nuttx-export/libs/libnuttx.a(arch-up_doirq.o)
 .debug_line    0x00000000000174ae      0x31b /home/tuofeichen/SLAM/MAV-Project/Firmware/build_px4fmu-v2_lpe/px4io-v2/NuttX/nuttx-export/libs/libnuttx.a(arch-up_releasestack.o)
 .debug_line    0x00000000000177c9       0xd5 /home/tuofeichen/SLAM/MAV-Project/Firmware/build_px4fmu-v2_lpe/px4io-v2/NuttX/nuttx-export/libs/libnuttx.a(fs-fs_close.o)
 .debug_line    0x000000000001789e      0x29e /home/tuofeichen/SLAM/MAV-Project/Firmware/build_px4fmu-v2_lpe/px4io-v2/NuttX/nuttx-export/libs/libnuttx.a(fs-fs_filedup2.o)
 .debug_line    0x0000000000017b3c      0x28e /home/tuofeichen/SLAM/MAV-Project/Firmware/build_px4fmu-v2_lpe/px4io-v2/NuttX/nuttx-export/libs/libnuttx.a(fs-fs_inodereserve.o)
 .debug_line    0x0000000000017dca      0x301 /home/tuofeichen/SLAM/MAV-Project/Firmware/build_px4fmu-v2_lpe/px4io-v2/NuttX/nuttx-export/libs/libnuttx.a(sched-group_setuptaskfiles.o)
 .debug_line    0x00000000000180cb       0xe3 /home/tuofeichen/SLAM/MAV-Project/Firmware/build_px4fmu-v2_lpe/px4io-v2/NuttX/nuttx-export/libs/libnuttx.a(sched-irq_dispatch.o)
 .debug_line    0x00000000000181ae      0x30f /home/tuofeichen/SLAM/MAV-Project/Firmware/build_px4fmu-v2_lpe/px4io-v2/NuttX/nuttx-export/libs/libnuttx.a(sched-sched_gettcb.o)
 .debug_line    0x00000000000184bd      0x341 /home/tuofeichen/SLAM/MAV-Project/Firmware/build_px4fmu-v2_lpe/px4io-v2/NuttX/nuttx-export/libs/libnuttx.a(sched-sched_lock.o)
 .debug_line    0x00000000000187fe       0xda /home/tuofeichen/SLAM/MAV-Project/Firmware/build_px4fmu-v2_lpe/px4io-v2/NuttX/nuttx-export/libs/libnuttx.a(sched-sched_processtimer.o)
 .debug_line    0x00000000000188d8      0x35a /home/tuofeichen/SLAM/MAV-Project/Firmware/build_px4fmu-v2_lpe/px4io-v2/NuttX/nuttx-export/libs/libnuttx.a(sched-sched_releasetcb.o)
 .debug_line    0x0000000000018c32      0x34a /home/tuofeichen/SLAM/MAV-Project/Firmware/build_px4fmu-v2_lpe/px4io-v2/NuttX/nuttx-export/libs/libnuttx.a(sched-sched_unlock.o)
 .debug_line    0x0000000000018f7c      0x321 /home/tuofeichen/SLAM/MAV-Project/Firmware/build_px4fmu-v2_lpe/px4io-v2/NuttX/nuttx-export/libs/libnuttx.a(sched-task_activate.o)
 .debug_line    0x000000000001929d      0x408 /home/tuofeichen/SLAM/MAV-Project/Firmware/build_px4fmu-v2_lpe/px4io-v2/NuttX/nuttx-export/libs/libnuttx.a(arch-up_releasepending.o)

.debug_pubnames
 *(.debug_pubnames)

.debug_aranges  0x0000000000000000     0x1c58
 *(.debug_aranges)
 .debug_aranges
                0x0000000000000000       0x28 src/modules/px4iofirmware/CMakeFiles/px4io-v2.dir/adc.c.obj
 .debug_aranges
                0x0000000000000028       0x28 src/modules/px4iofirmware/CMakeFiles/px4io-v2.dir/controls.c.obj
 .debug_aranges
                0x0000000000000050       0x30 src/modules/px4iofirmware/CMakeFiles/px4io-v2.dir/px4io.c.obj
 .debug_aranges
                0x0000000000000080       0x30 src/modules/px4iofirmware/CMakeFiles/px4io-v2.dir/registers.c.obj
 .debug_aranges
                0x00000000000000b0       0x38 src/modules/px4iofirmware/CMakeFiles/px4io-v2.dir/safety.c.obj
 .debug_aranges
                0x00000000000000e8       0x20 src/modules/px4iofirmware/CMakeFiles/px4io-v2.dir/__/systemlib/up_cxxinitialize.c.obj
 .debug_aranges
                0x0000000000000108       0x90 src/modules/px4iofirmware/CMakeFiles/px4io-v2.dir/__/systemlib/perf_counter.c.obj
 .debug_aranges
                0x0000000000000198       0x40 src/modules/px4iofirmware/CMakeFiles/px4io-v2.dir/mixer.cpp.obj
 .debug_aranges
                0x00000000000001d8       0x78 src/modules/px4iofirmware/CMakeFiles/px4io-v2.dir/__/systemlib/mixer/mixer.cpp.obj
 .debug_aranges
                0x0000000000000250       0x60 src/modules/px4iofirmware/CMakeFiles/px4io-v2.dir/__/systemlib/mixer/mixer_group.cpp.obj
 .debug_aranges
                0x00000000000002b0       0x48 src/modules/px4iofirmware/CMakeFiles/px4io-v2.dir/__/systemlib/mixer/mixer_multirotor.cpp.obj
 .debug_aranges
                0x00000000000002f8       0x68 src/modules/px4iofirmware/CMakeFiles/px4io-v2.dir/__/systemlib/mixer/mixer_simple.cpp.obj
 .debug_aranges
                0x0000000000000360       0x28 src/modules/px4iofirmware/CMakeFiles/px4io-v2.dir/__/systemlib/pwm_limit/pwm_limit.c.obj
 .debug_aranges
                0x0000000000000388       0x28 src/modules/px4iofirmware/CMakeFiles/px4io-v2.dir/__/__/lib/rc/st24.c.obj
 .debug_aranges
                0x00000000000003b0       0x30 src/modules/px4iofirmware/CMakeFiles/px4io-v2.dir/__/__/lib/rc/sumd.c.obj
 .debug_aranges
                0x00000000000003e0       0x50 src/modules/px4iofirmware/CMakeFiles/px4io-v2.dir/__/__/lib/rc/sbus.c.obj
 .debug_aranges
                0x0000000000000430       0x40 src/modules/px4iofirmware/CMakeFiles/px4io-v2.dir/__/__/lib/rc/dsm.c.obj
 .debug_aranges
                0x0000000000000470       0xa0 src/modules/px4iofirmware/CMakeFiles/px4io-v2.dir/__/__/drivers/stm32/drv_hrt.c.obj
 .debug_aranges
                0x0000000000000510       0xa0 src/modules/px4iofirmware/CMakeFiles/px4io-v2.dir/__/__/drivers/stm32/drv_io_timer.c.obj
 .debug_aranges
                0x00000000000005b0       0x58 src/modules/px4iofirmware/CMakeFiles/px4io-v2.dir/__/__/drivers/stm32/drv_pwm_servo.c.obj
 .debug_aranges
                0x0000000000000608       0x20 src/modules/px4iofirmware/CMakeFiles/px4io-v2.dir/__/__/drivers/boards/px4io-v2/px4io_init.c.obj
 .debug_aranges
                0x0000000000000628       0x18 src/modules/px4iofirmware/CMakeFiles/px4io-v2.dir/__/__/drivers/boards/px4io-v2/px4io_timer_config.c.obj
 .debug_aranges
                0x0000000000000640       0x38 src/modules/px4iofirmware/CMakeFiles/px4io-v2.dir/serial.c.obj
 .debug_aranges
                0x0000000000000678       0x58 src/modules/px4iofirmware/CMakeFiles/px4io-v2.dir/__/systemlib/hx_stream.c.obj
 .debug_aranges
                0x00000000000006d0       0x20 /home/tuofeichen/SLAM/MAV-Project/Firmware/build_px4fmu-v2_lpe/px4io-v2/NuttX/nuttx-export/libs/libnuttx.a(sched-irq_attach.o)
 .debug_aranges
                0x00000000000006f0       0x20 /home/tuofeichen/SLAM/MAV-Project/Firmware/build_px4fmu-v2_lpe/px4io-v2/NuttX/nuttx-export/libs/libnuttx.a(sched-irq_initialize.o)
 .debug_aranges
                0x0000000000000710       0x20 /home/tuofeichen/SLAM/MAV-Project/Firmware/build_px4fmu-v2_lpe/px4io-v2/NuttX/nuttx-export/libs/libnuttx.a(sched-irq_unexpectedisr.o)
 .debug_aranges
                0x0000000000000730       0x20 /home/tuofeichen/SLAM/MAV-Project/Firmware/build_px4fmu-v2_lpe/px4io-v2/NuttX/nuttx-export/libs/libnuttx.a(c-lib_abort.o)
 .debug_aranges
                0x0000000000000750       0x20 /home/tuofeichen/SLAM/MAV-Project/Firmware/build_px4fmu-v2_lpe/px4io-v2/NuttX/nuttx-export/libs/libnuttx.a(c-lib_cfsetspeed.o)
 .debug_aranges
                0x0000000000000770       0x28 /home/tuofeichen/SLAM/MAV-Project/Firmware/build_px4fmu-v2_lpe/px4io-v2/NuttX/nuttx-export/libs/libnuttx.a(c-lib_crc32.o)
 .debug_aranges
                0x0000000000000798       0x20 /home/tuofeichen/SLAM/MAV-Project/Firmware/build_px4fmu-v2_lpe/px4io-v2/NuttX/nuttx-export/libs/libnuttx.a(c-lib_dprintf.o)
 .debug_aranges
                0x00000000000007b8       0x28 /home/tuofeichen/SLAM/MAV-Project/Firmware/build_px4fmu-v2_lpe/px4io-v2/NuttX/nuttx-export/libs/libnuttx.a(c-lib_lowsyslog.o)
 .debug_aranges
                0x00000000000007e0       0x20 /home/tuofeichen/SLAM/MAV-Project/Firmware/build_px4fmu-v2_lpe/px4io-v2/NuttX/nuttx-export/libs/libnuttx.a(c-lib_memchr.o)
 .debug_aranges
                0x0000000000000800       0x20 /home/tuofeichen/SLAM/MAV-Project/Firmware/build_px4fmu-v2_lpe/px4io-v2/NuttX/nuttx-export/libs/libnuttx.a(c-lib_memcpy.o)
 .debug_aranges
                0x0000000000000820       0x20 /home/tuofeichen/SLAM/MAV-Project/Firmware/build_px4fmu-v2_lpe/px4io-v2/NuttX/nuttx-export/libs/libnuttx.a(c-lib_memset.o)
 .debug_aranges
                0x0000000000000840       0x20 /home/tuofeichen/SLAM/MAV-Project/Firmware/build_px4fmu-v2_lpe/px4io-v2/NuttX/nuttx-export/libs/libnuttx.a(c-lib_printf.o)
 .debug_aranges
                0x0000000000000860       0x30 /home/tuofeichen/SLAM/MAV-Project/Firmware/build_px4fmu-v2_lpe/px4io-v2/NuttX/nuttx-export/libs/libnuttx.a(c-lib_sscanf.o)
 .debug_aranges
                0x0000000000000890       0x20 /home/tuofeichen/SLAM/MAV-Project/Firmware/build_px4fmu-v2_lpe/px4io-v2/NuttX/nuttx-export/libs/libnuttx.a(c-lib_strchr.o)
 .debug_aranges
                0x00000000000008b0       0x20 /home/tuofeichen/SLAM/MAV-Project/Firmware/build_px4fmu-v2_lpe/px4io-v2/NuttX/nuttx-export/libs/libnuttx.a(c-lib_strcmp.o)
 .debug_aranges
                0x00000000000008d0       0x20 /home/tuofeichen/SLAM/MAV-Project/Firmware/build_px4fmu-v2_lpe/px4io-v2/NuttX/nuttx-export/libs/libnuttx.a(c-lib_strcspn.o)
 .debug_aranges
                0x00000000000008f0       0x20 /home/tuofeichen/SLAM/MAV-Project/Firmware/build_px4fmu-v2_lpe/px4io-v2/NuttX/nuttx-export/libs/libnuttx.a(c-lib_strncpy.o)
 .debug_aranges
                0x0000000000000910       0x20 /home/tuofeichen/SLAM/MAV-Project/Firmware/build_px4fmu-v2_lpe/px4io-v2/NuttX/nuttx-export/libs/libnuttx.a(c-lib_strtol.o)
 .debug_aranges
                0x0000000000000930       0x20 /home/tuofeichen/SLAM/MAV-Project/Firmware/build_px4fmu-v2_lpe/px4io-v2/NuttX/nuttx-export/libs/libnuttx.a(c-lib_strtoul.o)
 .debug_aranges
                0x0000000000000950       0x28 /home/tuofeichen/SLAM/MAV-Project/Firmware/build_px4fmu-v2_lpe/px4io-v2/NuttX/nuttx-export/libs/libnuttx.a(c-lib_syslog.o)
 .debug_aranges
                0x0000000000000978       0x20 /home/tuofeichen/SLAM/MAV-Project/Firmware/build_px4fmu-v2_lpe/px4io-v2/NuttX/nuttx-export/libs/libnuttx.a(c-lib_tcgetattr.o)
 .debug_aranges
                0x0000000000000998       0x20 /home/tuofeichen/SLAM/MAV-Project/Firmware/build_px4fmu-v2_lpe/px4io-v2/NuttX/nuttx-export/libs/libnuttx.a(c-lib_tcsetattr.o)
 .debug_aranges
                0x00000000000009b8       0x20 /home/tuofeichen/SLAM/MAV-Project/Firmware/build_px4fmu-v2_lpe/px4io-v2/NuttX/nuttx-export/libs/libnuttx.a(c-lib_vdprintf.o)
 .debug_aranges
                0x00000000000009d8       0x20 /home/tuofeichen/SLAM/MAV-Project/Firmware/build_px4fmu-v2_lpe/px4io-v2/NuttX/nuttx-export/libs/libnuttx.a(c-lib_vsnprintf.o)
 .debug_aranges
                0x00000000000009f8       0x20 /home/tuofeichen/SLAM/MAV-Project/Firmware/build_px4fmu-v2_lpe/px4io-v2/NuttX/nuttx-export/libs/libnuttx.a(c-sq_addafter.o)
 .debug_aranges
                0x0000000000000a18       0x20 /home/tuofeichen/SLAM/MAV-Project/Firmware/build_px4fmu-v2_lpe/px4io-v2/NuttX/nuttx-export/libs/libnuttx.a(c-sq_addfirst.o)
 .debug_aranges
                0x0000000000000a38       0x20 /home/tuofeichen/SLAM/MAV-Project/Firmware/build_px4fmu-v2_lpe/px4io-v2/NuttX/nuttx-export/libs/libnuttx.a(c-sq_addlast.o)
 .debug_aranges
                0x0000000000000a58       0x20 /home/tuofeichen/SLAM/MAV-Project/Firmware/build_px4fmu-v2_lpe/px4io-v2/NuttX/nuttx-export/libs/libnuttx.a(c-sq_rem.o)
 .debug_aranges
                0x0000000000000a78       0x20 /home/tuofeichen/SLAM/MAV-Project/Firmware/build_px4fmu-v2_lpe/px4io-v2/NuttX/nuttx-export/libs/libnuttx.a(mm-mm_calloc.o)
 .debug_aranges
                0x0000000000000a98       0x20 /home/tuofeichen/SLAM/MAV-Project/Firmware/build_px4fmu-v2_lpe/px4io-v2/NuttX/nuttx-export/libs/libnuttx.a(mm-mm_free.o)
 .debug_aranges
                0x0000000000000ab8       0x20 /home/tuofeichen/SLAM/MAV-Project/Firmware/build_px4fmu-v2_lpe/px4io-v2/NuttX/nuttx-export/libs/libnuttx.a(mm-mm_mallinfo.o)
 .debug_aranges
                0x0000000000000ad8       0x20 /home/tuofeichen/SLAM/MAV-Project/Firmware/build_px4fmu-v2_lpe/px4io-v2/NuttX/nuttx-export/libs/libnuttx.a(mm-mm_malloc.o)
 .debug_aranges
                0x0000000000000af8       0x38 /home/tuofeichen/SLAM/MAV-Project/Firmware/build_px4fmu-v2_lpe/px4io-v2/NuttX/nuttx-export/libs/libnuttx.a(mm-mm_sem.o)
 .debug_aranges
                0x0000000000000b30       0x20 /home/tuofeichen/SLAM/MAV-Project/Firmware/build_px4fmu-v2_lpe/px4io-v2/NuttX/nuttx-export/libs/libnuttx.a(mm-mm_size2ndx.o)
 .debug_aranges
                0x0000000000000b50       0x38 /home/tuofeichen/SLAM/MAV-Project/Firmware/build_px4fmu-v2_lpe/px4io-v2/NuttX/nuttx-export/libs/libnuttx.a(mm-mm_user.o)
 .debug_aranges
                0x0000000000000b88       0x20 /home/tuofeichen/SLAM/MAV-Project/Firmware/build_px4fmu-v2_lpe/px4io-v2/NuttX/nuttx-export/libs/libnuttx.a(mm-mm_zalloc.o)
 .debug_aranges
                0x0000000000000ba8       0x60 /home/tuofeichen/SLAM/MAV-Project/Firmware/build_px4fmu-v2_lpe/px4io-v2/NuttX/nuttx-export/libs/libnuttx.a(arch-stm32_dma.o)
 .debug_aranges
                0x0000000000000c08       0x40 /home/tuofeichen/SLAM/MAV-Project/Firmware/build_px4fmu-v2_lpe/px4io-v2/NuttX/nuttx-export/libs/libnuttx.a(arch-stm32_gpio.o)
 .debug_aranges
                0x0000000000000c48       0x40 /home/tuofeichen/SLAM/MAV-Project/Firmware/build_px4fmu-v2_lpe/px4io-v2/NuttX/nuttx-export/libs/libnuttx.a(arch-stm32_irq.o)
 .debug_aranges
                0x0000000000000c88       0xf0 /home/tuofeichen/SLAM/MAV-Project/Firmware/build_px4fmu-v2_lpe/px4io-v2/NuttX/nuttx-export/libs/libnuttx.a(arch-stm32_serial.o)
 .debug_aranges
                0x0000000000000d78       0x20 /home/tuofeichen/SLAM/MAV-Project/Firmware/build_px4fmu-v2_lpe/px4io-v2/NuttX/nuttx-export/libs/libnuttx.a(arch-stm32_start.o)
 .debug_aranges
                0x0000000000000d98       0x20 /home/tuofeichen/SLAM/MAV-Project/Firmware/build_px4fmu-v2_lpe/px4io-v2/NuttX/nuttx-export/libs/libnuttx.a(arch-up_assert.o)
 .debug_aranges
                0x0000000000000db8       0x20 /home/tuofeichen/SLAM/MAV-Project/Firmware/build_px4fmu-v2_lpe/px4io-v2/NuttX/nuttx-export/libs/libnuttx.a(arch-up_hardfault.o)
 .debug_aranges
                0x0000000000000dd8       0x20 /home/tuofeichen/SLAM/MAV-Project/Firmware/build_px4fmu-v2_lpe/px4io-v2/NuttX/nuttx-export/libs/libnuttx.a(arch-up_modifyreg32.o)
 .debug_aranges
                0x0000000000000df8       0x20 /home/tuofeichen/SLAM/MAV-Project/Firmware/build_px4fmu-v2_lpe/px4io-v2/NuttX/nuttx-export/libs/libnuttx.a(arch-up_svcall.o)
 .debug_aranges
                0x0000000000000e18       0x20 /home/tuofeichen/SLAM/MAV-Project/Firmware/build_px4fmu-v2_lpe/px4io-v2/NuttX/nuttx-export/libs/libnuttx.a(arch-up_systemreset.o)
 .debug_aranges
                0x0000000000000e38       0x20 /home/tuofeichen/SLAM/MAV-Project/Firmware/build_px4fmu-v2_lpe/px4io-v2/NuttX/nuttx-export/libs/libnuttx.a(arch-up_udelay.o)
 .debug_aranges
                0x0000000000000e58       0x18 /home/tuofeichen/SLAM/MAV-Project/Firmware/build_px4fmu-v2_lpe/px4io-v2/NuttX/nuttx-export/libs/libnuttx.a(arch-up_vectors.o)
 .debug_aranges
                0x0000000000000e70       0x20 /home/tuofeichen/SLAM/MAV-Project/Firmware/build_px4fmu-v2_lpe/px4io-v2/NuttX/nuttx-export/libs/libnuttx.a(cxx-libxx_cxa_atexit.o)
 .debug_aranges
                0x0000000000000e90       0x20 /home/tuofeichen/SLAM/MAV-Project/Firmware/build_px4fmu-v2_lpe/px4io-v2/NuttX/nuttx-export/libs/libnuttx.a(cxx-libxx_cxapurevirtual.o)
 .debug_aranges
                0x0000000000000eb0       0x20 /home/tuofeichen/SLAM/MAV-Project/Firmware/build_px4fmu-v2_lpe/px4io-v2/NuttX/nuttx-export/libs/libnuttx.a(cxx-libxx_delete.o)
 .debug_aranges
                0x0000000000000ed0       0x20 /home/tuofeichen/SLAM/MAV-Project/Firmware/build_px4fmu-v2_lpe/px4io-v2/NuttX/nuttx-export/libs/libnuttx.a(cxx-libxx_eabi_atexit.o)
 .debug_aranges
                0x0000000000000ef0       0x20 /home/tuofeichen/SLAM/MAV-Project/Firmware/build_px4fmu-v2_lpe/px4io-v2/NuttX/nuttx-export/libs/libnuttx.a(cxx-libxx_new.o)
 .debug_aranges
                0x0000000000000f10       0x20 /home/tuofeichen/SLAM/MAV-Project/Firmware/build_px4fmu-v2_lpe/px4io-v2/NuttX/nuttx-export/libs/libnuttx.a(fs-fs_ioctl.o)
 .debug_aranges
                0x0000000000000f30       0x28 /home/tuofeichen/SLAM/MAV-Project/Firmware/build_px4fmu-v2_lpe/px4io-v2/NuttX/nuttx-export/libs/libnuttx.a(fs-fs_open.o)
 .debug_aranges
                0x0000000000000f58       0x20 /home/tuofeichen/SLAM/MAV-Project/Firmware/build_px4fmu-v2_lpe/px4io-v2/NuttX/nuttx-export/libs/libnuttx.a(fs-fs_read.o)
 .debug_aranges
                0x0000000000000f78       0x20 /home/tuofeichen/SLAM/MAV-Project/Firmware/build_px4fmu-v2_lpe/px4io-v2/NuttX/nuttx-export/libs/libnuttx.a(fs-fs_write.o)
 .debug_aranges
                0x0000000000000f98       0x28 /home/tuofeichen/SLAM/MAV-Project/Firmware/build_px4fmu-v2_lpe/px4io-v2/NuttX/nuttx-export/libs/libnuttx.a(drivers-serialirq.o)
 .debug_aranges
                0x0000000000000fc0       0x70 /home/tuofeichen/SLAM/MAV-Project/Firmware/build_px4fmu-v2_lpe/px4io-v2/NuttX/nuttx-export/libs/libnuttx.a(drivers-serial.o)
 .debug_aranges
                0x0000000000001030       0x20 /home/tuofeichen/SLAM/MAV-Project/Firmware/build_px4fmu-v2_lpe/px4io-v2/NuttX/nuttx-export/libs/libnuttx.a(sched-errno_getptr.o)
 .debug_aranges
                0x0000000000001050       0x20 /home/tuofeichen/SLAM/MAV-Project/Firmware/build_px4fmu-v2_lpe/px4io-v2/NuttX/nuttx-export/libs/libnuttx.a(sched-exit.o)
 .debug_aranges
                0x0000000000001070       0x20 /home/tuofeichen/SLAM/MAV-Project/Firmware/build_px4fmu-v2_lpe/px4io-v2/NuttX/nuttx-export/libs/libnuttx.a(sched-getpid.o)
 .debug_aranges
                0x0000000000001090       0x20 /home/tuofeichen/SLAM/MAV-Project/Firmware/build_px4fmu-v2_lpe/px4io-v2/NuttX/nuttx-export/libs/libnuttx.a(sched-os_start.o)
 .debug_aranges
                0x00000000000010b0       0x20 /home/tuofeichen/SLAM/MAV-Project/Firmware/build_px4fmu-v2_lpe/px4io-v2/NuttX/nuttx-export/libs/libnuttx.a(sched-sched_garbage.o)
 .debug_aranges
                0x00000000000010d0       0x20 /home/tuofeichen/SLAM/MAV-Project/Firmware/build_px4fmu-v2_lpe/px4io-v2/NuttX/nuttx-export/libs/libnuttx.a(sched-sched_getfiles.o)
 .debug_aranges
                0x00000000000010f0       0x20 /home/tuofeichen/SLAM/MAV-Project/Firmware/build_px4fmu-v2_lpe/px4io-v2/NuttX/nuttx-export/libs/libnuttx.a(sched-sem_post.o)
 .debug_aranges
                0x0000000000001110       0x20 /home/tuofeichen/SLAM/MAV-Project/Firmware/build_px4fmu-v2_lpe/px4io-v2/NuttX/nuttx-export/libs/libnuttx.a(sched-sem_trywait.o)
 .debug_aranges
                0x0000000000001130       0x20 /home/tuofeichen/SLAM/MAV-Project/Firmware/build_px4fmu-v2_lpe/px4io-v2/NuttX/nuttx-export/libs/libnuttx.a(sched-sem_wait.o)
 .debug_aranges
                0x0000000000001150       0x20 /home/tuofeichen/SLAM/MAV-Project/Firmware/build_px4fmu-v2_lpe/px4io-v2/NuttX/nuttx-export/libs/libnuttx.a(sched-task_exithook.o)
 .debug_aranges
                0x0000000000001170       0x20 /home/tuofeichen/SLAM/MAV-Project/Firmware/build_px4fmu-v2_lpe/px4io-v2/NuttX/nuttx-export/libs/libnuttx.a(sched-task_recover.o)
 .debug_aranges
                0x0000000000001190       0x20 /home/tuofeichen/SLAM/MAV-Project/Firmware/build_px4fmu-v2_lpe/px4io-v2/NuttX/nuttx-export/libs/libnuttx.a(sched-wd_cancel.o)
 .debug_aranges
                0x00000000000011b0       0x20 /home/tuofeichen/SLAM/MAV-Project/Firmware/build_px4fmu-v2_lpe/px4io-v2/NuttX/nuttx-export/libs/libnuttx.a(sched-wd_delete.o)
 .debug_aranges
                0x00000000000011d0       0x20 /home/tuofeichen/SLAM/MAV-Project/Firmware/build_px4fmu-v2_lpe/px4io-v2/NuttX/nuttx-export/libs/libnuttx.a(sched-wd_initialize.o)
 .debug_aranges
                0x00000000000011f0       0x20 /home/tuofeichen/SLAM/MAV-Project/Firmware/build_px4fmu-v2_lpe/px4io-v2/NuttX/nuttx-export/libs/libnuttx.a(c-dq_addfirst.o)
 .debug_aranges
                0x0000000000001210       0x20 /home/tuofeichen/SLAM/MAV-Project/Firmware/build_px4fmu-v2_lpe/px4io-v2/NuttX/nuttx-export/libs/libnuttx.a(c-lib_cfgetspeed.o)
 .debug_aranges
                0x0000000000001230       0x20 /home/tuofeichen/SLAM/MAV-Project/Firmware/build_px4fmu-v2_lpe/px4io-v2/NuttX/nuttx-export/libs/libnuttx.a(c-lib_checkbase.o)
 .debug_aranges
                0x0000000000001250       0x20 /home/tuofeichen/SLAM/MAV-Project/Firmware/build_px4fmu-v2_lpe/px4io-v2/NuttX/nuttx-export/libs/libnuttx.a(c-lib_isbasedigit.o)
 .debug_aranges
                0x0000000000001270       0x80 /home/tuofeichen/SLAM/MAV-Project/Firmware/build_px4fmu-v2_lpe/px4io-v2/NuttX/nuttx-export/libs/libnuttx.a(c-lib_libvsprintf.o)
 .debug_aranges
                0x00000000000012f0       0x28 /home/tuofeichen/SLAM/MAV-Project/Firmware/build_px4fmu-v2_lpe/px4io-v2/NuttX/nuttx-export/libs/libnuttx.a(c-lib_lowoutstream.o)
 .debug_aranges
                0x0000000000001318       0x28 /home/tuofeichen/SLAM/MAV-Project/Firmware/build_px4fmu-v2_lpe/px4io-v2/NuttX/nuttx-export/libs/libnuttx.a(c-lib_memoutstream.o)
 .debug_aranges
                0x0000000000001340       0x28 /home/tuofeichen/SLAM/MAV-Project/Firmware/build_px4fmu-v2_lpe/px4io-v2/NuttX/nuttx-export/libs/libnuttx.a(c-lib_nulloutstream.o)
 .debug_aranges
                0x0000000000001368       0x28 /home/tuofeichen/SLAM/MAV-Project/Firmware/build_px4fmu-v2_lpe/px4io-v2/NuttX/nuttx-export/libs/libnuttx.a(c-lib_rawoutstream.o)
 .debug_aranges
                0x0000000000001390       0x20 /home/tuofeichen/SLAM/MAV-Project/Firmware/build_px4fmu-v2_lpe/px4io-v2/NuttX/nuttx-export/libs/libnuttx.a(c-lib_skipspace.o)
 .debug_aranges
                0x00000000000013b0       0x20 /home/tuofeichen/SLAM/MAV-Project/Firmware/build_px4fmu-v2_lpe/px4io-v2/NuttX/nuttx-export/libs/libnuttx.a(c-lib_strcpy.o)
 .debug_aranges
                0x00000000000013d0       0x20 /home/tuofeichen/SLAM/MAV-Project/Firmware/build_px4fmu-v2_lpe/px4io-v2/NuttX/nuttx-export/libs/libnuttx.a(c-lib_strlen.o)
 .debug_aranges
                0x00000000000013f0       0x20 /home/tuofeichen/SLAM/MAV-Project/Firmware/build_px4fmu-v2_lpe/px4io-v2/NuttX/nuttx-export/libs/libnuttx.a(c-sem_init.o)
 .debug_aranges
                0x0000000000001410       0x20 /home/tuofeichen/SLAM/MAV-Project/Firmware/build_px4fmu-v2_lpe/px4io-v2/NuttX/nuttx-export/libs/libnuttx.a(c-sq_remafter.o)
 .debug_aranges
                0x0000000000001430       0x20 /home/tuofeichen/SLAM/MAV-Project/Firmware/build_px4fmu-v2_lpe/px4io-v2/NuttX/nuttx-export/libs/libnuttx.a(c-sq_remfirst.o)
 .debug_aranges
                0x0000000000001450       0x20 /home/tuofeichen/SLAM/MAV-Project/Firmware/build_px4fmu-v2_lpe/px4io-v2/NuttX/nuttx-export/libs/libnuttx.a(mm-mm_addfreechunk.o)
 .debug_aranges
                0x0000000000001470       0x28 /home/tuofeichen/SLAM/MAV-Project/Firmware/build_px4fmu-v2_lpe/px4io-v2/NuttX/nuttx-export/libs/libnuttx.a(mm-mm_initialize.o)
 .debug_aranges
                0x0000000000001498       0x20 /home/tuofeichen/SLAM/MAV-Project/Firmware/build_px4fmu-v2_lpe/px4io-v2/NuttX/nuttx-export/libs/libnuttx.a(arch-stm32_allocateheap.o)
 .debug_aranges
                0x00000000000014b8       0x20 /home/tuofeichen/SLAM/MAV-Project/Firmware/build_px4fmu-v2_lpe/px4io-v2/NuttX/nuttx-export/libs/libnuttx.a(arch-stm32_idle.o)
 .debug_aranges
                0x00000000000014d8       0x28 /home/tuofeichen/SLAM/MAV-Project/Firmware/build_px4fmu-v2_lpe/px4io-v2/NuttX/nuttx-export/libs/libnuttx.a(arch-stm32_lowputc.o)
 .debug_aranges
                0x0000000000001500       0x20 /home/tuofeichen/SLAM/MAV-Project/Firmware/build_px4fmu-v2_lpe/px4io-v2/NuttX/nuttx-export/libs/libnuttx.a(arch-stm32_rcc.o)
 .debug_aranges
                0x0000000000001520       0x20 /home/tuofeichen/SLAM/MAV-Project/Firmware/build_px4fmu-v2_lpe/px4io-v2/NuttX/nuttx-export/libs/libnuttx.a(arch-up_blocktask.o)
 .debug_aranges
                0x0000000000001540       0x20 /home/tuofeichen/SLAM/MAV-Project/Firmware/build_px4fmu-v2_lpe/px4io-v2/NuttX/nuttx-export/libs/libnuttx.a(arch-up_copystate.o)
 .debug_aranges
                0x0000000000001560       0x20 /home/tuofeichen/SLAM/MAV-Project/Firmware/build_px4fmu-v2_lpe/px4io-v2/NuttX/nuttx-export/libs/libnuttx.a(arch-up_exception.o)
 .debug_aranges
                0x0000000000001580       0x20 /home/tuofeichen/SLAM/MAV-Project/Firmware/build_px4fmu-v2_lpe/px4io-v2/NuttX/nuttx-export/libs/libnuttx.a(arch-up_exit.o)
 .debug_aranges
                0x00000000000015a0       0x20 /home/tuofeichen/SLAM/MAV-Project/Firmware/build_px4fmu-v2_lpe/px4io-v2/NuttX/nuttx-export/libs/libnuttx.a(arch-up_fullcontextrestore.o)
 .debug_aranges
                0x00000000000015c0       0x20 /home/tuofeichen/SLAM/MAV-Project/Firmware/build_px4fmu-v2_lpe/px4io-v2/NuttX/nuttx-export/libs/libnuttx.a(arch-up_initialize.o)
 .debug_aranges
                0x00000000000015e0       0x20 /home/tuofeichen/SLAM/MAV-Project/Firmware/build_px4fmu-v2_lpe/px4io-v2/NuttX/nuttx-export/libs/libnuttx.a(arch-up_initialstate.o)
 .debug_aranges
                0x0000000000001600       0x20 /home/tuofeichen/SLAM/MAV-Project/Firmware/build_px4fmu-v2_lpe/px4io-v2/NuttX/nuttx-export/libs/libnuttx.a(arch-up_interruptcontext.o)
 .debug_aranges
                0x0000000000001620       0x20 /home/tuofeichen/SLAM/MAV-Project/Firmware/build_px4fmu-v2_lpe/px4io-v2/NuttX/nuttx-export/libs/libnuttx.a(arch-up_mdelay.o)
 .debug_aranges
                0x0000000000001640       0x20 /home/tuofeichen/SLAM/MAV-Project/Firmware/build_px4fmu-v2_lpe/px4io-v2/NuttX/nuttx-export/libs/libnuttx.a(arch-up_switchcontext.o)
 .debug_aranges
                0x0000000000001660       0x20 /home/tuofeichen/SLAM/MAV-Project/Firmware/build_px4fmu-v2_lpe/px4io-v2/NuttX/nuttx-export/libs/libnuttx.a(arch-up_unblocktask.o)
 .debug_aranges
                0x0000000000001680       0x60 /home/tuofeichen/SLAM/MAV-Project/Firmware/build_px4fmu-v2_lpe/px4io-v2/NuttX/nuttx-export/libs/libnuttx.a(fs-fs_files.o)
 .debug_aranges
                0x00000000000016e0       0x20 /home/tuofeichen/SLAM/MAV-Project/Firmware/build_px4fmu-v2_lpe/px4io-v2/NuttX/nuttx-export/libs/libnuttx.a(fs-fs_inodeaddref.o)
 .debug_aranges
                0x0000000000001700       0x20 /home/tuofeichen/SLAM/MAV-Project/Firmware/build_px4fmu-v2_lpe/px4io-v2/NuttX/nuttx-export/libs/libnuttx.a(fs-fs_inodefind.o)
 .debug_aranges
                0x0000000000001720       0x48 /home/tuofeichen/SLAM/MAV-Project/Firmware/build_px4fmu-v2_lpe/px4io-v2/NuttX/nuttx-export/libs/libnuttx.a(fs-fs_inode.o)
 .debug_aranges
                0x0000000000001768       0x20 /home/tuofeichen/SLAM/MAV-Project/Firmware/build_px4fmu-v2_lpe/px4io-v2/NuttX/nuttx-export/libs/libnuttx.a(fs-fs_inoderelease.o)
 .debug_aranges
                0x0000000000001788       0x20 /home/tuofeichen/SLAM/MAV-Project/Firmware/build_px4fmu-v2_lpe/px4io-v2/NuttX/nuttx-export/libs/libnuttx.a(fs-fs_registerdriver.o)
 .debug_aranges
                0x00000000000017a8       0x28 /home/tuofeichen/SLAM/MAV-Project/Firmware/build_px4fmu-v2_lpe/px4io-v2/NuttX/nuttx-export/libs/libnuttx.a(sched-group_create.o)
 .debug_aranges
                0x00000000000017d0       0x20 /home/tuofeichen/SLAM/MAV-Project/Firmware/build_px4fmu-v2_lpe/px4io-v2/NuttX/nuttx-export/libs/libnuttx.a(sched-group_leave.o)
 .debug_aranges
                0x00000000000017f0       0x20 /home/tuofeichen/SLAM/MAV-Project/Firmware/build_px4fmu-v2_lpe/px4io-v2/NuttX/nuttx-export/libs/libnuttx.a(sched-group_setupidlefiles.o)
 .debug_aranges
                0x0000000000001810       0x20 /home/tuofeichen/SLAM/MAV-Project/Firmware/build_px4fmu-v2_lpe/px4io-v2/NuttX/nuttx-export/libs/libnuttx.a(sched-os_bringup.o)
 .debug_aranges
                0x0000000000001830       0x20 /home/tuofeichen/SLAM/MAV-Project/Firmware/build_px4fmu-v2_lpe/px4io-v2/NuttX/nuttx-export/libs/libnuttx.a(sched-sched_addblocked.o)
 .debug_aranges
                0x0000000000001850       0x20 /home/tuofeichen/SLAM/MAV-Project/Firmware/build_px4fmu-v2_lpe/px4io-v2/NuttX/nuttx-export/libs/libnuttx.a(sched-sched_addprioritized.o)
 .debug_aranges
                0x0000000000001870       0x20 /home/tuofeichen/SLAM/MAV-Project/Firmware/build_px4fmu-v2_lpe/px4io-v2/NuttX/nuttx-export/libs/libnuttx.a(sched-sched_addreadytorun.o)
 .debug_aranges
                0x0000000000001890       0x20 /home/tuofeichen/SLAM/MAV-Project/Firmware/build_px4fmu-v2_lpe/px4io-v2/NuttX/nuttx-export/libs/libnuttx.a(sched-sched_free.o)
 .debug_aranges
                0x00000000000018b0       0x20 /home/tuofeichen/SLAM/MAV-Project/Firmware/build_px4fmu-v2_lpe/px4io-v2/NuttX/nuttx-export/libs/libnuttx.a(sched-sched_mergepending.o)
 .debug_aranges
                0x00000000000018d0       0x20 /home/tuofeichen/SLAM/MAV-Project/Firmware/build_px4fmu-v2_lpe/px4io-v2/NuttX/nuttx-export/libs/libnuttx.a(sched-sched_removeblocked.o)
 .debug_aranges
                0x00000000000018f0       0x20 /home/tuofeichen/SLAM/MAV-Project/Firmware/build_px4fmu-v2_lpe/px4io-v2/NuttX/nuttx-export/libs/libnuttx.a(sched-sched_removereadytorun.o)
 .debug_aranges
                0x0000000000001910       0x20 /home/tuofeichen/SLAM/MAV-Project/Firmware/build_px4fmu-v2_lpe/px4io-v2/NuttX/nuttx-export/libs/libnuttx.a(sched-sem_destroy.o)
 .debug_aranges
                0x0000000000001930       0x30 /home/tuofeichen/SLAM/MAV-Project/Firmware/build_px4fmu-v2_lpe/px4io-v2/NuttX/nuttx-export/libs/libnuttx.a(sched-task_create.o)
 .debug_aranges
                0x0000000000001960       0x20 /home/tuofeichen/SLAM/MAV-Project/Firmware/build_px4fmu-v2_lpe/px4io-v2/NuttX/nuttx-export/libs/libnuttx.a(sched-task_exit.o)
 .debug_aranges
                0x0000000000001980       0x28 /home/tuofeichen/SLAM/MAV-Project/Firmware/build_px4fmu-v2_lpe/px4io-v2/NuttX/nuttx-export/libs/libnuttx.a(sched-task_setup.o)
 .debug_aranges
                0x00000000000019a8       0x20 /home/tuofeichen/SLAM/MAV-Project/Firmware/build_px4fmu-v2_lpe/px4io-v2/NuttX/nuttx-export/libs/libnuttx.a(sched-task_start.o)
 .debug_aranges
                0x00000000000019c8       0x20 /home/tuofeichen/SLAM/MAV-Project/Firmware/build_px4fmu-v2_lpe/px4io-v2/NuttX/nuttx-export/libs/libnuttx.a(sched-task_terminate.o)
 .debug_aranges
                0x00000000000019e8       0x20 /home/tuofeichen/SLAM/MAV-Project/Firmware/build_px4fmu-v2_lpe/px4io-v2/NuttX/nuttx-export/libs/libnuttx.a(c-dq_addlast.o)
 .debug_aranges
                0x0000000000001a08       0x20 /home/tuofeichen/SLAM/MAV-Project/Firmware/build_px4fmu-v2_lpe/px4io-v2/NuttX/nuttx-export/libs/libnuttx.a(c-dq_rem.o)
 .debug_aranges
                0x0000000000001a28       0x20 /home/tuofeichen/SLAM/MAV-Project/Firmware/build_px4fmu-v2_lpe/px4io-v2/NuttX/nuttx-export/libs/libnuttx.a(c-lib_strdup.o)
 .debug_aranges
                0x0000000000001a48       0x28 /home/tuofeichen/SLAM/MAV-Project/Firmware/build_px4fmu-v2_lpe/px4io-v2/NuttX/nuttx-export/libs/libnuttx.a(arch-stm32_timerisr.o)
 .debug_aranges
                0x0000000000001a70       0x20 /home/tuofeichen/SLAM/MAV-Project/Firmware/build_px4fmu-v2_lpe/px4io-v2/NuttX/nuttx-export/libs/libnuttx.a(arch-up_createstack.o)
 .debug_aranges
                0x0000000000001a90       0x20 /home/tuofeichen/SLAM/MAV-Project/Firmware/build_px4fmu-v2_lpe/px4io-v2/NuttX/nuttx-export/libs/libnuttx.a(arch-up_doirq.o)
 .debug_aranges
                0x0000000000001ab0       0x20 /home/tuofeichen/SLAM/MAV-Project/Firmware/build_px4fmu-v2_lpe/px4io-v2/NuttX/nuttx-export/libs/libnuttx.a(arch-up_releasestack.o)
 .debug_aranges
                0x0000000000001ad0       0x20 /home/tuofeichen/SLAM/MAV-Project/Firmware/build_px4fmu-v2_lpe/px4io-v2/NuttX/nuttx-export/libs/libnuttx.a(fs-fs_close.o)
 .debug_aranges
                0x0000000000001af0       0x20 /home/tuofeichen/SLAM/MAV-Project/Firmware/build_px4fmu-v2_lpe/px4io-v2/NuttX/nuttx-export/libs/libnuttx.a(fs-fs_filedup2.o)
 .debug_aranges
                0x0000000000001b10       0x28 /home/tuofeichen/SLAM/MAV-Project/Firmware/build_px4fmu-v2_lpe/px4io-v2/NuttX/nuttx-export/libs/libnuttx.a(fs-fs_inodereserve.o)
 .debug_aranges
                0x0000000000001b38       0x20 /home/tuofeichen/SLAM/MAV-Project/Firmware/build_px4fmu-v2_lpe/px4io-v2/NuttX/nuttx-export/libs/libnuttx.a(sched-group_setuptaskfiles.o)
 .debug_aranges
                0x0000000000001b58       0x20 /home/tuofeichen/SLAM/MAV-Project/Firmware/build_px4fmu-v2_lpe/px4io-v2/NuttX/nuttx-export/libs/libnuttx.a(sched-irq_dispatch.o)
 .debug_aranges
                0x0000000000001b78       0x20 /home/tuofeichen/SLAM/MAV-Project/Firmware/build_px4fmu-v2_lpe/px4io-v2/NuttX/nuttx-export/libs/libnuttx.a(sched-sched_gettcb.o)
 .debug_aranges
                0x0000000000001b98       0x20 /home/tuofeichen/SLAM/MAV-Project/Firmware/build_px4fmu-v2_lpe/px4io-v2/NuttX/nuttx-export/libs/libnuttx.a(sched-sched_lock.o)
 .debug_aranges
                0x0000000000001bb8       0x20 /home/tuofeichen/SLAM/MAV-Project/Firmware/build_px4fmu-v2_lpe/px4io-v2/NuttX/nuttx-export/libs/libnuttx.a(sched-sched_processtimer.o)
 .debug_aranges
                0x0000000000001bd8       0x20 /home/tuofeichen/SLAM/MAV-Project/Firmware/build_px4fmu-v2_lpe/px4io-v2/NuttX/nuttx-export/libs/libnuttx.a(sched-sched_releasetcb.o)
 .debug_aranges
                0x0000000000001bf8       0x20 /home/tuofeichen/SLAM/MAV-Project/Firmware/build_px4fmu-v2_lpe/px4io-v2/NuttX/nuttx-export/libs/libnuttx.a(sched-sched_unlock.o)
 .debug_aranges
                0x0000000000001c18       0x20 /home/tuofeichen/SLAM/MAV-Project/Firmware/build_px4fmu-v2_lpe/px4io-v2/NuttX/nuttx-export/libs/libnuttx.a(sched-task_activate.o)
 .debug_aranges
                0x0000000000001c38       0x20 /home/tuofeichen/SLAM/MAV-Project/Firmware/build_px4fmu-v2_lpe/px4io-v2/NuttX/nuttx-export/libs/libnuttx.a(arch-up_releasepending.o)
OUTPUT(src/modules/px4iofirmware/px4io-v2 elf32-littlearm)

.debug_loc      0x0000000000000000    0x11652
 .debug_loc     0x0000000000000000       0x4e src/modules/px4iofirmware/CMakeFiles/px4io-v2.dir/adc.c.obj
 .debug_loc     0x000000000000004e      0x6a6 src/modules/px4iofirmware/CMakeFiles/px4io-v2.dir/controls.c.obj
 .debug_loc     0x00000000000006f4      0x2c2 src/modules/px4iofirmware/CMakeFiles/px4io-v2.dir/px4io.c.obj
 .debug_loc     0x00000000000009b6     0x14aa src/modules/px4iofirmware/CMakeFiles/px4io-v2.dir/registers.c.obj
 .debug_loc     0x0000000000001e60       0x9b src/modules/px4iofirmware/CMakeFiles/px4io-v2.dir/safety.c.obj
 .debug_loc     0x0000000000001efb       0x49 src/modules/px4iofirmware/CMakeFiles/px4io-v2.dir/__/systemlib/up_cxxinitialize.c.obj
 .debug_loc     0x0000000000001f44      0x782 src/modules/px4iofirmware/CMakeFiles/px4io-v2.dir/__/systemlib/perf_counter.c.obj
 .debug_loc     0x00000000000026c6      0x428 src/modules/px4iofirmware/CMakeFiles/px4io-v2.dir/mixer.cpp.obj
 .debug_loc     0x0000000000002aee      0x37e src/modules/px4iofirmware/CMakeFiles/px4io-v2.dir/__/systemlib/mixer/mixer.cpp.obj
 .debug_loc     0x0000000000002e6c      0x538 src/modules/px4iofirmware/CMakeFiles/px4io-v2.dir/__/systemlib/mixer/mixer_group.cpp.obj
 .debug_loc     0x00000000000033a4      0xbb0 src/modules/px4iofirmware/CMakeFiles/px4io-v2.dir/__/systemlib/mixer/mixer_multirotor.cpp.obj
 .debug_loc     0x0000000000003f54      0x846 src/modules/px4iofirmware/CMakeFiles/px4io-v2.dir/__/systemlib/mixer/mixer_simple.cpp.obj
 .debug_loc     0x000000000000479a      0x465 src/modules/px4iofirmware/CMakeFiles/px4io-v2.dir/__/systemlib/pwm_limit/pwm_limit.c.obj
 .debug_loc     0x0000000000004bff      0x4e8 src/modules/px4iofirmware/CMakeFiles/px4io-v2.dir/__/__/lib/rc/st24.c.obj
 .debug_loc     0x00000000000050e7      0x782 src/modules/px4iofirmware/CMakeFiles/px4io-v2.dir/__/__/lib/rc/sumd.c.obj
 .debug_loc     0x0000000000005869      0x869 src/modules/px4iofirmware/CMakeFiles/px4io-v2.dir/__/__/lib/rc/sbus.c.obj
 .debug_loc     0x00000000000060d2      0xc2e src/modules/px4iofirmware/CMakeFiles/px4io-v2.dir/__/__/lib/rc/dsm.c.obj
 .debug_loc     0x0000000000006d00      0x9cf src/modules/px4iofirmware/CMakeFiles/px4io-v2.dir/__/__/drivers/stm32/drv_hrt.c.obj
 .debug_loc     0x00000000000076cf      0xfb4 src/modules/px4iofirmware/CMakeFiles/px4io-v2.dir/__/__/drivers/stm32/drv_io_timer.c.obj
 .debug_loc     0x0000000000008683      0x263 src/modules/px4iofirmware/CMakeFiles/px4io-v2.dir/__/__/drivers/stm32/drv_pwm_servo.c.obj
 .debug_loc     0x00000000000088e6      0x35f src/modules/px4iofirmware/CMakeFiles/px4io-v2.dir/serial.c.obj
 .debug_loc     0x0000000000008c45      0x393 src/modules/px4iofirmware/CMakeFiles/px4io-v2.dir/__/systemlib/hx_stream.c.obj
 .debug_loc     0x0000000000008fd8       0xcd /home/tuofeichen/SLAM/MAV-Project/Firmware/build_px4fmu-v2_lpe/px4io-v2/NuttX/nuttx-export/libs/libnuttx.a(sched-irq_attach.o)
 .debug_loc     0x00000000000090a5       0x1f /home/tuofeichen/SLAM/MAV-Project/Firmware/build_px4fmu-v2_lpe/px4io-v2/NuttX/nuttx-export/libs/libnuttx.a(sched-irq_initialize.o)
 .debug_loc     0x00000000000090c4       0x42 /home/tuofeichen/SLAM/MAV-Project/Firmware/build_px4fmu-v2_lpe/px4io-v2/NuttX/nuttx-export/libs/libnuttx.a(sched-irq_unexpectedisr.o)
 .debug_loc     0x0000000000009106       0x21 /home/tuofeichen/SLAM/MAV-Project/Firmware/build_px4fmu-v2_lpe/px4io-v2/NuttX/nuttx-export/libs/libnuttx.a(c-lib_cfsetspeed.o)
 .debug_loc     0x0000000000009127       0xea /home/tuofeichen/SLAM/MAV-Project/Firmware/build_px4fmu-v2_lpe/px4io-v2/NuttX/nuttx-export/libs/libnuttx.a(c-lib_crc32.o)
 .debug_loc     0x0000000000009211       0x21 /home/tuofeichen/SLAM/MAV-Project/Firmware/build_px4fmu-v2_lpe/px4io-v2/NuttX/nuttx-export/libs/libnuttx.a(c-lib_dprintf.o)
 .debug_loc     0x0000000000009232       0x47 /home/tuofeichen/SLAM/MAV-Project/Firmware/build_px4fmu-v2_lpe/px4io-v2/NuttX/nuttx-export/libs/libnuttx.a(c-lib_lowsyslog.o)
 .debug_loc     0x0000000000009279       0x89 /home/tuofeichen/SLAM/MAV-Project/Firmware/build_px4fmu-v2_lpe/px4io-v2/NuttX/nuttx-export/libs/libnuttx.a(c-lib_memchr.o)
 .debug_loc     0x0000000000009302       0x87 /home/tuofeichen/SLAM/MAV-Project/Firmware/build_px4fmu-v2_lpe/px4io-v2/NuttX/nuttx-export/libs/libnuttx.a(c-lib_memcpy.o)
 .debug_loc     0x0000000000009389       0x49 /home/tuofeichen/SLAM/MAV-Project/Firmware/build_px4fmu-v2_lpe/px4io-v2/NuttX/nuttx-export/libs/libnuttx.a(c-lib_memset.o)
 .debug_loc     0x00000000000093d2      0x54c /home/tuofeichen/SLAM/MAV-Project/Firmware/build_px4fmu-v2_lpe/px4io-v2/NuttX/nuttx-export/libs/libnuttx.a(c-lib_sscanf.o)
 .debug_loc     0x000000000000991e       0x21 /home/tuofeichen/SLAM/MAV-Project/Firmware/build_px4fmu-v2_lpe/px4io-v2/NuttX/nuttx-export/libs/libnuttx.a(c-lib_strchr.o)
 .debug_loc     0x000000000000993f       0x8b /home/tuofeichen/SLAM/MAV-Project/Firmware/build_px4fmu-v2_lpe/px4io-v2/NuttX/nuttx-export/libs/libnuttx.a(c-lib_strcmp.o)
 .debug_loc     0x00000000000099ca       0x5b /home/tuofeichen/SLAM/MAV-Project/Firmware/build_px4fmu-v2_lpe/px4io-v2/NuttX/nuttx-export/libs/libnuttx.a(c-lib_strcspn.o)
 .debug_loc     0x0000000000009a25       0x9a /home/tuofeichen/SLAM/MAV-Project/Firmware/build_px4fmu-v2_lpe/px4io-v2/NuttX/nuttx-export/libs/libnuttx.a(c-lib_strncpy.o)
 .debug_loc     0x0000000000009abf       0xb2 /home/tuofeichen/SLAM/MAV-Project/Firmware/build_px4fmu-v2_lpe/px4io-v2/NuttX/nuttx-export/libs/libnuttx.a(c-lib_strtol.o)
 .debug_loc     0x0000000000009b71      0x103 /home/tuofeichen/SLAM/MAV-Project/Firmware/build_px4fmu-v2_lpe/px4io-v2/NuttX/nuttx-export/libs/libnuttx.a(c-lib_strtoul.o)
 .debug_loc     0x0000000000009c74       0x3c /home/tuofeichen/SLAM/MAV-Project/Firmware/build_px4fmu-v2_lpe/px4io-v2/NuttX/nuttx-export/libs/libnuttx.a(c-lib_syslog.o)
 .debug_loc     0x0000000000009cb0       0x4d /home/tuofeichen/SLAM/MAV-Project/Firmware/build_px4fmu-v2_lpe/px4io-v2/NuttX/nuttx-export/libs/libnuttx.a(c-lib_tcgetattr.o)
 .debug_loc     0x0000000000009cfd       0x92 /home/tuofeichen/SLAM/MAV-Project/Firmware/build_px4fmu-v2_lpe/px4io-v2/NuttX/nuttx-export/libs/libnuttx.a(c-lib_tcsetattr.o)
 .debug_loc     0x0000000000009d8f       0x68 /home/tuofeichen/SLAM/MAV-Project/Firmware/build_px4fmu-v2_lpe/px4io-v2/NuttX/nuttx-export/libs/libnuttx.a(c-lib_vdprintf.o)
 .debug_loc     0x0000000000009df7       0x78 /home/tuofeichen/SLAM/MAV-Project/Firmware/build_px4fmu-v2_lpe/px4io-v2/NuttX/nuttx-export/libs/libnuttx.a(c-lib_vsnprintf.o)
 .debug_loc     0x0000000000009e6f       0xa8 /home/tuofeichen/SLAM/MAV-Project/Firmware/build_px4fmu-v2_lpe/px4io-v2/NuttX/nuttx-export/libs/libnuttx.a(c-sq_addafter.o)
 .debug_loc     0x0000000000009f17       0x76 /home/tuofeichen/SLAM/MAV-Project/Firmware/build_px4fmu-v2_lpe/px4io-v2/NuttX/nuttx-export/libs/libnuttx.a(c-sq_rem.o)
 .debug_loc     0x0000000000009f8d       0x7a /home/tuofeichen/SLAM/MAV-Project/Firmware/build_px4fmu-v2_lpe/px4io-v2/NuttX/nuttx-export/libs/libnuttx.a(mm-mm_calloc.o)
 .debug_loc     0x000000000000a007       0xc1 /home/tuofeichen/SLAM/MAV-Project/Firmware/build_px4fmu-v2_lpe/px4io-v2/NuttX/nuttx-export/libs/libnuttx.a(mm-mm_free.o)
 .debug_loc     0x000000000000a0c8      0x138 /home/tuofeichen/SLAM/MAV-Project/Firmware/build_px4fmu-v2_lpe/px4io-v2/NuttX/nuttx-export/libs/libnuttx.a(mm-mm_mallinfo.o)
 .debug_loc     0x000000000000a200      0x162 /home/tuofeichen/SLAM/MAV-Project/Firmware/build_px4fmu-v2_lpe/px4io-v2/NuttX/nuttx-export/libs/libnuttx.a(mm-mm_malloc.o)
 .debug_loc     0x000000000000a362       0xba /home/tuofeichen/SLAM/MAV-Project/Firmware/build_px4fmu-v2_lpe/px4io-v2/NuttX/nuttx-export/libs/libnuttx.a(mm-mm_sem.o)
 .debug_loc     0x000000000000a41c       0x62 /home/tuofeichen/SLAM/MAV-Project/Firmware/build_px4fmu-v2_lpe/px4io-v2/NuttX/nuttx-export/libs/libnuttx.a(mm-mm_size2ndx.o)
 .debug_loc     0x000000000000a47e       0xb0 /home/tuofeichen/SLAM/MAV-Project/Firmware/build_px4fmu-v2_lpe/px4io-v2/NuttX/nuttx-export/libs/libnuttx.a(mm-mm_user.o)
 .debug_loc     0x000000000000a52e       0x3c /home/tuofeichen/SLAM/MAV-Project/Firmware/build_px4fmu-v2_lpe/px4io-v2/NuttX/nuttx-export/libs/libnuttx.a(mm-mm_zalloc.o)
 .debug_loc     0x000000000000a56a      0x54e /home/tuofeichen/SLAM/MAV-Project/Firmware/build_px4fmu-v2_lpe/px4io-v2/NuttX/nuttx-export/libs/libnuttx.a(arch-stm32_dma.o)
 .debug_loc     0x000000000000aab8      0x3fe /home/tuofeichen/SLAM/MAV-Project/Firmware/build_px4fmu-v2_lpe/px4io-v2/NuttX/nuttx-export/libs/libnuttx.a(arch-stm32_gpio.o)
 .debug_loc     0x000000000000aeb6      0x13f /home/tuofeichen/SLAM/MAV-Project/Firmware/build_px4fmu-v2_lpe/px4io-v2/NuttX/nuttx-export/libs/libnuttx.a(arch-stm32_irq.o)
 .debug_loc     0x000000000000aff5      0xc91 /home/tuofeichen/SLAM/MAV-Project/Firmware/build_px4fmu-v2_lpe/px4io-v2/NuttX/nuttx-export/libs/libnuttx.a(arch-stm32_serial.o)
 .debug_loc     0x000000000000bc86       0x43 /home/tuofeichen/SLAM/MAV-Project/Firmware/build_px4fmu-v2_lpe/px4io-v2/NuttX/nuttx-export/libs/libnuttx.a(arch-stm32_start.o)
 .debug_loc     0x000000000000bcc9      0x155 /home/tuofeichen/SLAM/MAV-Project/Firmware/build_px4fmu-v2_lpe/px4io-v2/NuttX/nuttx-export/libs/libnuttx.a(arch-up_assert.o)
 .debug_loc     0x000000000000be1e       0xa6 /home/tuofeichen/SLAM/MAV-Project/Firmware/build_px4fmu-v2_lpe/px4io-v2/NuttX/nuttx-export/libs/libnuttx.a(arch-up_hardfault.o)
 .debug_loc     0x000000000000bec4       0x6b /home/tuofeichen/SLAM/MAV-Project/Firmware/build_px4fmu-v2_lpe/px4io-v2/NuttX/nuttx-export/libs/libnuttx.a(arch-up_modifyreg32.o)
 .debug_loc     0x000000000000bf2f       0xd5 /home/tuofeichen/SLAM/MAV-Project/Firmware/build_px4fmu-v2_lpe/px4io-v2/NuttX/nuttx-export/libs/libnuttx.a(arch-up_svcall.o)
 .debug_loc     0x000000000000c004       0x1e /home/tuofeichen/SLAM/MAV-Project/Firmware/build_px4fmu-v2_lpe/px4io-v2/NuttX/nuttx-export/libs/libnuttx.a(arch-up_systemreset.o)
 .debug_loc     0x000000000000c022       0x1e /home/tuofeichen/SLAM/MAV-Project/Firmware/build_px4fmu-v2_lpe/px4io-v2/NuttX/nuttx-export/libs/libnuttx.a(arch-up_udelay.o)
 .debug_loc     0x000000000000c040       0x21 /home/tuofeichen/SLAM/MAV-Project/Firmware/build_px4fmu-v2_lpe/px4io-v2/NuttX/nuttx-export/libs/libnuttx.a(cxx-libxx_cxa_atexit.o)
 .debug_loc     0x000000000000c061       0x21 /home/tuofeichen/SLAM/MAV-Project/Firmware/build_px4fmu-v2_lpe/px4io-v2/NuttX/nuttx-export/libs/libnuttx.a(cxx-libxx_delete.o)
 .debug_loc     0x000000000000c082       0x79 /home/tuofeichen/SLAM/MAV-Project/Firmware/build_px4fmu-v2_lpe/px4io-v2/NuttX/nuttx-export/libs/libnuttx.a(cxx-libxx_eabi_atexit.o)
 .debug_loc     0x000000000000c0fb       0x4e /home/tuofeichen/SLAM/MAV-Project/Firmware/build_px4fmu-v2_lpe/px4io-v2/NuttX/nuttx-export/libs/libnuttx.a(cxx-libxx_new.o)
 .debug_loc     0x000000000000c149      0x187 /home/tuofeichen/SLAM/MAV-Project/Firmware/build_px4fmu-v2_lpe/px4io-v2/NuttX/nuttx-export/libs/libnuttx.a(fs-fs_ioctl.o)
 .debug_loc     0x000000000000c2d0      0x1df /home/tuofeichen/SLAM/MAV-Project/Firmware/build_px4fmu-v2_lpe/px4io-v2/NuttX/nuttx-export/libs/libnuttx.a(fs-fs_open.o)
 .debug_loc     0x000000000000c4af      0x2a4 /home/tuofeichen/SLAM/MAV-Project/Firmware/build_px4fmu-v2_lpe/px4io-v2/NuttX/nuttx-export/libs/libnuttx.a(fs-fs_read.o)
 .debug_loc     0x000000000000c753      0x202 /home/tuofeichen/SLAM/MAV-Project/Firmware/build_px4fmu-v2_lpe/px4io-v2/NuttX/nuttx-export/libs/libnuttx.a(fs-fs_write.o)
 .debug_loc     0x000000000000c955      0x10e /home/tuofeichen/SLAM/MAV-Project/Firmware/build_px4fmu-v2_lpe/px4io-v2/NuttX/nuttx-export/libs/libnuttx.a(drivers-serialirq.o)
 .debug_loc     0x000000000000ca63      0x876 /home/tuofeichen/SLAM/MAV-Project/Firmware/build_px4fmu-v2_lpe/px4io-v2/NuttX/nuttx-export/libs/libnuttx.a(drivers-serial.o)
 .debug_loc     0x000000000000d2d9       0x20 /home/tuofeichen/SLAM/MAV-Project/Firmware/build_px4fmu-v2_lpe/px4io-v2/NuttX/nuttx-export/libs/libnuttx.a(sched-errno_getptr.o)
 .debug_loc     0x000000000000d2f9       0x31 /home/tuofeichen/SLAM/MAV-Project/Firmware/build_px4fmu-v2_lpe/px4io-v2/NuttX/nuttx-export/libs/libnuttx.a(sched-exit.o)
 .debug_loc     0x000000000000d32a       0x38 /home/tuofeichen/SLAM/MAV-Project/Firmware/build_px4fmu-v2_lpe/px4io-v2/NuttX/nuttx-export/libs/libnuttx.a(sched-os_start.o)
 .debug_loc     0x000000000000d362       0x39 /home/tuofeichen/SLAM/MAV-Project/Firmware/build_px4fmu-v2_lpe/px4io-v2/NuttX/nuttx-export/libs/libnuttx.a(sched-sched_garbage.o)
 .debug_loc     0x000000000000d39b       0x1f /home/tuofeichen/SLAM/MAV-Project/Firmware/build_px4fmu-v2_lpe/px4io-v2/NuttX/nuttx-export/libs/libnuttx.a(sched-sched_getfiles.o)
 .debug_loc     0x000000000000d3ba       0xdd /home/tuofeichen/SLAM/MAV-Project/Firmware/build_px4fmu-v2_lpe/px4io-v2/NuttX/nuttx-export/libs/libnuttx.a(sched-sem_post.o)
 .debug_loc     0x000000000000d497       0x9d /home/tuofeichen/SLAM/MAV-Project/Firmware/build_px4fmu-v2_lpe/px4io-v2/NuttX/nuttx-export/libs/libnuttx.a(sched-sem_trywait.o)
 .debug_loc     0x000000000000d534       0xb6 /home/tuofeichen/SLAM/MAV-Project/Firmware/build_px4fmu-v2_lpe/px4io-v2/NuttX/nuttx-export/libs/libnuttx.a(sched-sem_wait.o)
 .debug_loc     0x000000000000d5ea       0x60 /home/tuofeichen/SLAM/MAV-Project/Firmware/build_px4fmu-v2_lpe/px4io-v2/NuttX/nuttx-export/libs/libnuttx.a(sched-task_exithook.o)
 .debug_loc     0x000000000000d64a       0x1e /home/tuofeichen/SLAM/MAV-Project/Firmware/build_px4fmu-v2_lpe/px4io-v2/NuttX/nuttx-export/libs/libnuttx.a(sched-task_recover.o)
 .debug_loc     0x000000000000d668       0xfe /home/tuofeichen/SLAM/MAV-Project/Firmware/build_px4fmu-v2_lpe/px4io-v2/NuttX/nuttx-export/libs/libnuttx.a(sched-wd_cancel.o)
 .debug_loc     0x000000000000d766       0x68 /home/tuofeichen/SLAM/MAV-Project/Firmware/build_px4fmu-v2_lpe/px4io-v2/NuttX/nuttx-export/libs/libnuttx.a(sched-wd_delete.o)
 .debug_loc     0x000000000000d7ce       0x1e /home/tuofeichen/SLAM/MAV-Project/Firmware/build_px4fmu-v2_lpe/px4io-v2/NuttX/nuttx-export/libs/libnuttx.a(sched-wd_initialize.o)
 .debug_loc     0x000000000000d7ec       0x21 /home/tuofeichen/SLAM/MAV-Project/Firmware/build_px4fmu-v2_lpe/px4io-v2/NuttX/nuttx-export/libs/libnuttx.a(c-lib_cfgetspeed.o)
 .debug_loc     0x000000000000d80d       0xd8 /home/tuofeichen/SLAM/MAV-Project/Firmware/build_px4fmu-v2_lpe/px4io-v2/NuttX/nuttx-export/libs/libnuttx.a(c-lib_checkbase.o)
 .debug_loc     0x000000000000d8e5      0x159 /home/tuofeichen/SLAM/MAV-Project/Firmware/build_px4fmu-v2_lpe/px4io-v2/NuttX/nuttx-export/libs/libnuttx.a(c-lib_isbasedigit.o)
 .debug_loc     0x000000000000da3e     0x12e6 /home/tuofeichen/SLAM/MAV-Project/Firmware/build_px4fmu-v2_lpe/px4io-v2/NuttX/nuttx-export/libs/libnuttx.a(c-lib_libvsprintf.o)
 .debug_loc     0x000000000000ed24       0x3f /home/tuofeichen/SLAM/MAV-Project/Firmware/build_px4fmu-v2_lpe/px4io-v2/NuttX/nuttx-export/libs/libnuttx.a(c-lib_lowoutstream.o)
 .debug_loc     0x000000000000ed63       0x41 /home/tuofeichen/SLAM/MAV-Project/Firmware/build_px4fmu-v2_lpe/px4io-v2/NuttX/nuttx-export/libs/libnuttx.a(c-lib_memoutstream.o)
 .debug_loc     0x000000000000eda4       0x70 /home/tuofeichen/SLAM/MAV-Project/Firmware/build_px4fmu-v2_lpe/px4io-v2/NuttX/nuttx-export/libs/libnuttx.a(c-lib_rawoutstream.o)
 .debug_loc     0x000000000000ee14       0x1f /home/tuofeichen/SLAM/MAV-Project/Firmware/build_px4fmu-v2_lpe/px4io-v2/NuttX/nuttx-export/libs/libnuttx.a(c-lib_skipspace.o)
 .debug_loc     0x000000000000ee33       0x3e /home/tuofeichen/SLAM/MAV-Project/Firmware/build_px4fmu-v2_lpe/px4io-v2/NuttX/nuttx-export/libs/libnuttx.a(c-lib_strcpy.o)
 .debug_loc     0x000000000000ee71       0x3f /home/tuofeichen/SLAM/MAV-Project/Firmware/build_px4fmu-v2_lpe/px4io-v2/NuttX/nuttx-export/libs/libnuttx.a(c-lib_strlen.o)
 .debug_loc     0x000000000000eeb0       0x7c /home/tuofeichen/SLAM/MAV-Project/Firmware/build_px4fmu-v2_lpe/px4io-v2/NuttX/nuttx-export/libs/libnuttx.a(c-sem_init.o)
 .debug_loc     0x000000000000ef2c       0x42 /home/tuofeichen/SLAM/MAV-Project/Firmware/build_px4fmu-v2_lpe/px4io-v2/NuttX/nuttx-export/libs/libnuttx.a(c-sq_remafter.o)
 .debug_loc     0x000000000000ef6e       0x21 /home/tuofeichen/SLAM/MAV-Project/Firmware/build_px4fmu-v2_lpe/px4io-v2/NuttX/nuttx-export/libs/libnuttx.a(c-sq_remfirst.o)
 .debug_loc     0x000000000000ef8f       0x97 /home/tuofeichen/SLAM/MAV-Project/Firmware/build_px4fmu-v2_lpe/px4io-v2/NuttX/nuttx-export/libs/libnuttx.a(mm-mm_addfreechunk.o)
 .debug_loc     0x000000000000f026      0x230 /home/tuofeichen/SLAM/MAV-Project/Firmware/build_px4fmu-v2_lpe/px4io-v2/NuttX/nuttx-export/libs/libnuttx.a(mm-mm_initialize.o)
 .debug_loc     0x000000000000f256       0x89 /home/tuofeichen/SLAM/MAV-Project/Firmware/build_px4fmu-v2_lpe/px4io-v2/NuttX/nuttx-export/libs/libnuttx.a(arch-stm32_lowputc.o)
 .debug_loc     0x000000000000f2df       0xea /home/tuofeichen/SLAM/MAV-Project/Firmware/build_px4fmu-v2_lpe/px4io-v2/NuttX/nuttx-export/libs/libnuttx.a(arch-stm32_rcc.o)
 .debug_loc     0x000000000000f3c9      0x121 /home/tuofeichen/SLAM/MAV-Project/Firmware/build_px4fmu-v2_lpe/px4io-v2/NuttX/nuttx-export/libs/libnuttx.a(arch-up_blocktask.o)
 .debug_loc     0x000000000000f4ea       0x81 /home/tuofeichen/SLAM/MAV-Project/Firmware/build_px4fmu-v2_lpe/px4io-v2/NuttX/nuttx-export/libs/libnuttx.a(arch-up_copystate.o)
 .debug_loc     0x000000000000f56b       0x41 /home/tuofeichen/SLAM/MAV-Project/Firmware/build_px4fmu-v2_lpe/px4io-v2/NuttX/nuttx-export/libs/libnuttx.a(arch-up_exit.o)
 .debug_loc     0x000000000000f5ac       0x4b /home/tuofeichen/SLAM/MAV-Project/Firmware/build_px4fmu-v2_lpe/px4io-v2/NuttX/nuttx-export/libs/libnuttx.a(arch-up_initialstate.o)
 .debug_loc     0x000000000000f5f7       0xc9 /home/tuofeichen/SLAM/MAV-Project/Firmware/build_px4fmu-v2_lpe/px4io-v2/NuttX/nuttx-export/libs/libnuttx.a(arch-up_unblocktask.o)
 .debug_loc     0x000000000000f6c0      0x3f6 /home/tuofeichen/SLAM/MAV-Project/Firmware/build_px4fmu-v2_lpe/px4io-v2/NuttX/nuttx-export/libs/libnuttx.a(fs-fs_files.o)
 .debug_loc     0x000000000000fab6       0x37 /home/tuofeichen/SLAM/MAV-Project/Firmware/build_px4fmu-v2_lpe/px4io-v2/NuttX/nuttx-export/libs/libnuttx.a(fs-fs_inodeaddref.o)
 .debug_loc     0x000000000000faed       0xb1 /home/tuofeichen/SLAM/MAV-Project/Firmware/build_px4fmu-v2_lpe/px4io-v2/NuttX/nuttx-export/libs/libnuttx.a(fs-fs_inodefind.o)
 .debug_loc     0x000000000000fb9e      0x28c /home/tuofeichen/SLAM/MAV-Project/Firmware/build_px4fmu-v2_lpe/px4io-v2/NuttX/nuttx-export/libs/libnuttx.a(fs-fs_inode.o)
 .debug_loc     0x000000000000fe2a       0x5b /home/tuofeichen/SLAM/MAV-Project/Firmware/build_px4fmu-v2_lpe/px4io-v2/NuttX/nuttx-export/libs/libnuttx.a(fs-fs_inoderelease.o)
 .debug_loc     0x000000000000fe85       0xa7 /home/tuofeichen/SLAM/MAV-Project/Firmware/build_px4fmu-v2_lpe/px4io-v2/NuttX/nuttx-export/libs/libnuttx.a(fs-fs_registerdriver.o)
 .debug_loc     0x000000000000ff2c       0x7d /home/tuofeichen/SLAM/MAV-Project/Firmware/build_px4fmu-v2_lpe/px4io-v2/NuttX/nuttx-export/libs/libnuttx.a(sched-group_create.o)
 .debug_loc     0x000000000000ffa9       0x31 /home/tuofeichen/SLAM/MAV-Project/Firmware/build_px4fmu-v2_lpe/px4io-v2/NuttX/nuttx-export/libs/libnuttx.a(sched-group_leave.o)
 .debug_loc     0x000000000000ffda       0x78 /home/tuofeichen/SLAM/MAV-Project/Firmware/build_px4fmu-v2_lpe/px4io-v2/NuttX/nuttx-export/libs/libnuttx.a(sched-group_setupidlefiles.o)
 .debug_loc     0x0000000000010052       0x1e /home/tuofeichen/SLAM/MAV-Project/Firmware/build_px4fmu-v2_lpe/px4io-v2/NuttX/nuttx-export/libs/libnuttx.a(sched-os_bringup.o)
 .debug_loc     0x0000000000010070       0x92 /home/tuofeichen/SLAM/MAV-Project/Firmware/build_px4fmu-v2_lpe/px4io-v2/NuttX/nuttx-export/libs/libnuttx.a(sched-sched_addblocked.o)
 .debug_loc     0x0000000000010102      0x145 /home/tuofeichen/SLAM/MAV-Project/Firmware/build_px4fmu-v2_lpe/px4io-v2/NuttX/nuttx-export/libs/libnuttx.a(sched-sched_addprioritized.o)
 .debug_loc     0x0000000000010247       0x80 /home/tuofeichen/SLAM/MAV-Project/Firmware/build_px4fmu-v2_lpe/px4io-v2/NuttX/nuttx-export/libs/libnuttx.a(sched-sched_addreadytorun.o)
 .debug_loc     0x00000000000102c7       0x52 /home/tuofeichen/SLAM/MAV-Project/Firmware/build_px4fmu-v2_lpe/px4io-v2/NuttX/nuttx-export/libs/libnuttx.a(sched-sched_free.o)
 .debug_loc     0x0000000000010319       0xc5 /home/tuofeichen/SLAM/MAV-Project/Firmware/build_px4fmu-v2_lpe/px4io-v2/NuttX/nuttx-export/libs/libnuttx.a(sched-sched_mergepending.o)
 .debug_loc     0x00000000000103de       0x60 /home/tuofeichen/SLAM/MAV-Project/Firmware/build_px4fmu-v2_lpe/px4io-v2/NuttX/nuttx-export/libs/libnuttx.a(sched-sched_removeblocked.o)
 .debug_loc     0x000000000001043e       0x79 /home/tuofeichen/SLAM/MAV-Project/Firmware/build_px4fmu-v2_lpe/px4io-v2/NuttX/nuttx-export/libs/libnuttx.a(sched-sched_removereadytorun.o)
 .debug_loc     0x00000000000104b7       0x3a /home/tuofeichen/SLAM/MAV-Project/Firmware/build_px4fmu-v2_lpe/px4io-v2/NuttX/nuttx-export/libs/libnuttx.a(sched-sem_destroy.o)
 .debug_loc     0x00000000000104f1      0x306 /home/tuofeichen/SLAM/MAV-Project/Firmware/build_px4fmu-v2_lpe/px4io-v2/NuttX/nuttx-export/libs/libnuttx.a(sched-task_create.o)
 .debug_loc     0x00000000000107f7       0x26 /home/tuofeichen/SLAM/MAV-Project/Firmware/build_px4fmu-v2_lpe/px4io-v2/NuttX/nuttx-export/libs/libnuttx.a(sched-task_exit.o)
 .debug_loc     0x000000000001081d      0x42e /home/tuofeichen/SLAM/MAV-Project/Firmware/build_px4fmu-v2_lpe/px4io-v2/NuttX/nuttx-export/libs/libnuttx.a(sched-task_setup.o)
 .debug_loc     0x0000000000010c4b       0x45 /home/tuofeichen/SLAM/MAV-Project/Firmware/build_px4fmu-v2_lpe/px4io-v2/NuttX/nuttx-export/libs/libnuttx.a(sched-task_start.o)
 .debug_loc     0x0000000000010c90       0xb2 /home/tuofeichen/SLAM/MAV-Project/Firmware/build_px4fmu-v2_lpe/px4io-v2/NuttX/nuttx-export/libs/libnuttx.a(sched-task_terminate.o)
 .debug_loc     0x0000000000010d42       0x13 /home/tuofeichen/SLAM/MAV-Project/Firmware/build_px4fmu-v2_lpe/px4io-v2/NuttX/nuttx-export/libs/libnuttx.a(c-dq_rem.o)
 .debug_loc     0x0000000000010d55       0x48 /home/tuofeichen/SLAM/MAV-Project/Firmware/build_px4fmu-v2_lpe/px4io-v2/NuttX/nuttx-export/libs/libnuttx.a(c-lib_strdup.o)
 .debug_loc     0x0000000000010d9d       0x65 /home/tuofeichen/SLAM/MAV-Project/Firmware/build_px4fmu-v2_lpe/px4io-v2/NuttX/nuttx-export/libs/libnuttx.a(arch-stm32_timerisr.o)
 .debug_loc     0x0000000000010e02       0xd6 /home/tuofeichen/SLAM/MAV-Project/Firmware/build_px4fmu-v2_lpe/px4io-v2/NuttX/nuttx-export/libs/libnuttx.a(arch-up_createstack.o)
 .debug_loc     0x0000000000010ed8       0x68 /home/tuofeichen/SLAM/MAV-Project/Firmware/build_px4fmu-v2_lpe/px4io-v2/NuttX/nuttx-export/libs/libnuttx.a(arch-up_doirq.o)
 .debug_loc     0x0000000000010f40       0x3f /home/tuofeichen/SLAM/MAV-Project/Firmware/build_px4fmu-v2_lpe/px4io-v2/NuttX/nuttx-export/libs/libnuttx.a(arch-up_releasestack.o)
 .debug_loc     0x0000000000010f7f       0x76 /home/tuofeichen/SLAM/MAV-Project/Firmware/build_px4fmu-v2_lpe/px4io-v2/NuttX/nuttx-export/libs/libnuttx.a(fs-fs_close.o)
 .debug_loc     0x0000000000010ff5       0xa2 /home/tuofeichen/SLAM/MAV-Project/Firmware/build_px4fmu-v2_lpe/px4io-v2/NuttX/nuttx-export/libs/libnuttx.a(fs-fs_filedup2.o)
 .debug_loc     0x0000000000011097      0x33e /home/tuofeichen/SLAM/MAV-Project/Firmware/build_px4fmu-v2_lpe/px4io-v2/NuttX/nuttx-export/libs/libnuttx.a(fs-fs_inodereserve.o)
 .debug_loc     0x00000000000113d5       0x44 /home/tuofeichen/SLAM/MAV-Project/Firmware/build_px4fmu-v2_lpe/px4io-v2/NuttX/nuttx-export/libs/libnuttx.a(sched-group_setuptaskfiles.o)
 .debug_loc     0x0000000000011419       0x55 /home/tuofeichen/SLAM/MAV-Project/Firmware/build_px4fmu-v2_lpe/px4io-v2/NuttX/nuttx-export/libs/libnuttx.a(sched-irq_dispatch.o)
 .debug_loc     0x000000000001146e       0x6a /home/tuofeichen/SLAM/MAV-Project/Firmware/build_px4fmu-v2_lpe/px4io-v2/NuttX/nuttx-export/libs/libnuttx.a(sched-sched_gettcb.o)
 .debug_loc     0x00000000000114d8       0x13 /home/tuofeichen/SLAM/MAV-Project/Firmware/build_px4fmu-v2_lpe/px4io-v2/NuttX/nuttx-export/libs/libnuttx.a(sched-sched_lock.o)
 .debug_loc     0x00000000000114eb       0x9f /home/tuofeichen/SLAM/MAV-Project/Firmware/build_px4fmu-v2_lpe/px4io-v2/NuttX/nuttx-export/libs/libnuttx.a(sched-sched_releasetcb.o)
 .debug_loc     0x000000000001158a       0x39 /home/tuofeichen/SLAM/MAV-Project/Firmware/build_px4fmu-v2_lpe/px4io-v2/NuttX/nuttx-export/libs/libnuttx.a(sched-sched_unlock.o)
 .debug_loc     0x00000000000115c3       0x21 /home/tuofeichen/SLAM/MAV-Project/Firmware/build_px4fmu-v2_lpe/px4io-v2/NuttX/nuttx-export/libs/libnuttx.a(sched-task_activate.o)
 .debug_loc     0x00000000000115e4       0x6e /home/tuofeichen/SLAM/MAV-Project/Firmware/build_px4fmu-v2_lpe/px4io-v2/NuttX/nuttx-export/libs/libnuttx.a(arch-up_releasepending.o)

.debug_ranges   0x0000000000000000     0x26c8
 .debug_ranges  0x0000000000000000       0x18 src/modules/px4iofirmware/CMakeFiles/px4io-v2.dir/adc.c.obj
 .debug_ranges  0x0000000000000018      0x1e8 src/modules/px4iofirmware/CMakeFiles/px4io-v2.dir/controls.c.obj
 .debug_ranges  0x0000000000000200       0xd0 src/modules/px4iofirmware/CMakeFiles/px4io-v2.dir/px4io.c.obj
 .debug_ranges  0x00000000000002d0      0x168 src/modules/px4iofirmware/CMakeFiles/px4io-v2.dir/registers.c.obj
 .debug_ranges  0x0000000000000438       0x28 src/modules/px4iofirmware/CMakeFiles/px4io-v2.dir/safety.c.obj
 .debug_ranges  0x0000000000000460       0x28 src/modules/px4iofirmware/CMakeFiles/px4io-v2.dir/__/systemlib/up_cxxinitialize.c.obj
 .debug_ranges  0x0000000000000488       0xc8 src/modules/px4iofirmware/CMakeFiles/px4io-v2.dir/__/systemlib/perf_counter.c.obj
 .debug_ranges  0x0000000000000550       0xd8 src/modules/px4iofirmware/CMakeFiles/px4io-v2.dir/mixer.cpp.obj
 .debug_ranges  0x0000000000000628       0xe8 src/modules/px4iofirmware/CMakeFiles/px4io-v2.dir/__/systemlib/mixer/mixer.cpp.obj
 .debug_ranges  0x0000000000000710      0x150 src/modules/px4iofirmware/CMakeFiles/px4io-v2.dir/__/systemlib/mixer/mixer_group.cpp.obj
 .debug_ranges  0x0000000000000860      0x2a0 src/modules/px4iofirmware/CMakeFiles/px4io-v2.dir/__/systemlib/mixer/mixer_multirotor.cpp.obj
 .debug_ranges  0x0000000000000b00      0x1c0 src/modules/px4iofirmware/CMakeFiles/px4io-v2.dir/__/systemlib/mixer/mixer_simple.cpp.obj
 .debug_ranges  0x0000000000000cc0       0x80 src/modules/px4iofirmware/CMakeFiles/px4io-v2.dir/__/systemlib/pwm_limit/pwm_limit.c.obj
 .debug_ranges  0x0000000000000d40       0x48 src/modules/px4iofirmware/CMakeFiles/px4io-v2.dir/__/__/lib/rc/st24.c.obj
 .debug_ranges  0x0000000000000d88       0x40 src/modules/px4iofirmware/CMakeFiles/px4io-v2.dir/__/__/lib/rc/sumd.c.obj
 .debug_ranges  0x0000000000000dc8      0x188 src/modules/px4iofirmware/CMakeFiles/px4io-v2.dir/__/__/lib/rc/sbus.c.obj
 .debug_ranges  0x0000000000000f50      0x158 src/modules/px4iofirmware/CMakeFiles/px4io-v2.dir/__/__/lib/rc/dsm.c.obj
 .debug_ranges  0x00000000000010a8      0x148 src/modules/px4iofirmware/CMakeFiles/px4io-v2.dir/__/__/drivers/stm32/drv_hrt.c.obj
 .debug_ranges  0x00000000000011f0      0x2e8 src/modules/px4iofirmware/CMakeFiles/px4io-v2.dir/__/__/drivers/stm32/drv_io_timer.c.obj
 .debug_ranges  0x00000000000014d8       0x60 src/modules/px4iofirmware/CMakeFiles/px4io-v2.dir/__/__/drivers/stm32/drv_pwm_servo.c.obj
 .debug_ranges  0x0000000000001538       0x10 src/modules/px4iofirmware/CMakeFiles/px4io-v2.dir/__/__/drivers/boards/px4io-v2/px4io_init.c.obj
 .debug_ranges  0x0000000000001548       0xc8 src/modules/px4iofirmware/CMakeFiles/px4io-v2.dir/serial.c.obj
 .debug_ranges  0x0000000000001610       0xe8 src/modules/px4iofirmware/CMakeFiles/px4io-v2.dir/__/systemlib/hx_stream.c.obj
 .debug_ranges  0x00000000000016f8       0x10 /home/tuofeichen/SLAM/MAV-Project/Firmware/build_px4fmu-v2_lpe/px4io-v2/NuttX/nuttx-export/libs/libnuttx.a(sched-irq_attach.o)
 .debug_ranges  0x0000000000001708       0x10 /home/tuofeichen/SLAM/MAV-Project/Firmware/build_px4fmu-v2_lpe/px4io-v2/NuttX/nuttx-export/libs/libnuttx.a(sched-irq_initialize.o)
 .debug_ranges  0x0000000000001718       0x10 /home/tuofeichen/SLAM/MAV-Project/Firmware/build_px4fmu-v2_lpe/px4io-v2/NuttX/nuttx-export/libs/libnuttx.a(sched-irq_unexpectedisr.o)
 .debug_ranges  0x0000000000001728       0x10 /home/tuofeichen/SLAM/MAV-Project/Firmware/build_px4fmu-v2_lpe/px4io-v2/NuttX/nuttx-export/libs/libnuttx.a(c-lib_abort.o)
 .debug_ranges  0x0000000000001738       0x10 /home/tuofeichen/SLAM/MAV-Project/Firmware/build_px4fmu-v2_lpe/px4io-v2/NuttX/nuttx-export/libs/libnuttx.a(c-lib_cfsetspeed.o)
 .debug_ranges  0x0000000000001748       0x18 /home/tuofeichen/SLAM/MAV-Project/Firmware/build_px4fmu-v2_lpe/px4io-v2/NuttX/nuttx-export/libs/libnuttx.a(c-lib_crc32.o)
 .debug_ranges  0x0000000000001760       0x10 /home/tuofeichen/SLAM/MAV-Project/Firmware/build_px4fmu-v2_lpe/px4io-v2/NuttX/nuttx-export/libs/libnuttx.a(c-lib_dprintf.o)
 .debug_ranges  0x0000000000001770       0x18 /home/tuofeichen/SLAM/MAV-Project/Firmware/build_px4fmu-v2_lpe/px4io-v2/NuttX/nuttx-export/libs/libnuttx.a(c-lib_lowsyslog.o)
 .debug_ranges  0x0000000000001788       0x10 /home/tuofeichen/SLAM/MAV-Project/Firmware/build_px4fmu-v2_lpe/px4io-v2/NuttX/nuttx-export/libs/libnuttx.a(c-lib_memchr.o)
 .debug_ranges  0x0000000000001798       0x10 /home/tuofeichen/SLAM/MAV-Project/Firmware/build_px4fmu-v2_lpe/px4io-v2/NuttX/nuttx-export/libs/libnuttx.a(c-lib_memcpy.o)
 .debug_ranges  0x00000000000017a8       0x10 /home/tuofeichen/SLAM/MAV-Project/Firmware/build_px4fmu-v2_lpe/px4io-v2/NuttX/nuttx-export/libs/libnuttx.a(c-lib_memset.o)
 .debug_ranges  0x00000000000017b8       0x10 /home/tuofeichen/SLAM/MAV-Project/Firmware/build_px4fmu-v2_lpe/px4io-v2/NuttX/nuttx-export/libs/libnuttx.a(c-lib_printf.o)
 .debug_ranges  0x00000000000017c8       0x38 /home/tuofeichen/SLAM/MAV-Project/Firmware/build_px4fmu-v2_lpe/px4io-v2/NuttX/nuttx-export/libs/libnuttx.a(c-lib_sscanf.o)
 .debug_ranges  0x0000000000001800       0x10 /home/tuofeichen/SLAM/MAV-Project/Firmware/build_px4fmu-v2_lpe/px4io-v2/NuttX/nuttx-export/libs/libnuttx.a(c-lib_strchr.o)
 .debug_ranges  0x0000000000001810       0x10 /home/tuofeichen/SLAM/MAV-Project/Firmware/build_px4fmu-v2_lpe/px4io-v2/NuttX/nuttx-export/libs/libnuttx.a(c-lib_strcmp.o)
 .debug_ranges  0x0000000000001820       0x10 /home/tuofeichen/SLAM/MAV-Project/Firmware/build_px4fmu-v2_lpe/px4io-v2/NuttX/nuttx-export/libs/libnuttx.a(c-lib_strcspn.o)
 .debug_ranges  0x0000000000001830       0x10 /home/tuofeichen/SLAM/MAV-Project/Firmware/build_px4fmu-v2_lpe/px4io-v2/NuttX/nuttx-export/libs/libnuttx.a(c-lib_strncpy.o)
 .debug_ranges  0x0000000000001840       0x10 /home/tuofeichen/SLAM/MAV-Project/Firmware/build_px4fmu-v2_lpe/px4io-v2/NuttX/nuttx-export/libs/libnuttx.a(c-lib_strtol.o)
 .debug_ranges  0x0000000000001850       0x10 /home/tuofeichen/SLAM/MAV-Project/Firmware/build_px4fmu-v2_lpe/px4io-v2/NuttX/nuttx-export/libs/libnuttx.a(c-lib_strtoul.o)
 .debug_ranges  0x0000000000001860       0x18 /home/tuofeichen/SLAM/MAV-Project/Firmware/build_px4fmu-v2_lpe/px4io-v2/NuttX/nuttx-export/libs/libnuttx.a(c-lib_syslog.o)
 .debug_ranges  0x0000000000001878       0x10 /home/tuofeichen/SLAM/MAV-Project/Firmware/build_px4fmu-v2_lpe/px4io-v2/NuttX/nuttx-export/libs/libnuttx.a(c-lib_tcgetattr.o)
 .debug_ranges  0x0000000000001888       0x10 /home/tuofeichen/SLAM/MAV-Project/Firmware/build_px4fmu-v2_lpe/px4io-v2/NuttX/nuttx-export/libs/libnuttx.a(c-lib_tcsetattr.o)
 .debug_ranges  0x0000000000001898       0x10 /home/tuofeichen/SLAM/MAV-Project/Firmware/build_px4fmu-v2_lpe/px4io-v2/NuttX/nuttx-export/libs/libnuttx.a(c-lib_vdprintf.o)
 .debug_ranges  0x00000000000018a8       0x10 /home/tuofeichen/SLAM/MAV-Project/Firmware/build_px4fmu-v2_lpe/px4io-v2/NuttX/nuttx-export/libs/libnuttx.a(c-lib_vsnprintf.o)
 .debug_ranges  0x00000000000018b8       0x10 /home/tuofeichen/SLAM/MAV-Project/Firmware/build_px4fmu-v2_lpe/px4io-v2/NuttX/nuttx-export/libs/libnuttx.a(c-sq_addafter.o)
 .debug_ranges  0x00000000000018c8       0x10 /home/tuofeichen/SLAM/MAV-Project/Firmware/build_px4fmu-v2_lpe/px4io-v2/NuttX/nuttx-export/libs/libnuttx.a(c-sq_addfirst.o)
 .debug_ranges  0x00000000000018d8       0x10 /home/tuofeichen/SLAM/MAV-Project/Firmware/build_px4fmu-v2_lpe/px4io-v2/NuttX/nuttx-export/libs/libnuttx.a(c-sq_addlast.o)
 .debug_ranges  0x00000000000018e8       0x10 /home/tuofeichen/SLAM/MAV-Project/Firmware/build_px4fmu-v2_lpe/px4io-v2/NuttX/nuttx-export/libs/libnuttx.a(c-sq_rem.o)
 .debug_ranges  0x00000000000018f8       0x10 /home/tuofeichen/SLAM/MAV-Project/Firmware/build_px4fmu-v2_lpe/px4io-v2/NuttX/nuttx-export/libs/libnuttx.a(mm-mm_calloc.o)
 .debug_ranges  0x0000000000001908       0x28 /home/tuofeichen/SLAM/MAV-Project/Firmware/build_px4fmu-v2_lpe/px4io-v2/NuttX/nuttx-export/libs/libnuttx.a(mm-mm_free.o)
 .debug_ranges  0x0000000000001930       0x30 /home/tuofeichen/SLAM/MAV-Project/Firmware/build_px4fmu-v2_lpe/px4io-v2/NuttX/nuttx-export/libs/libnuttx.a(mm-mm_mallinfo.o)
 .debug_ranges  0x0000000000001960       0x10 /home/tuofeichen/SLAM/MAV-Project/Firmware/build_px4fmu-v2_lpe/px4io-v2/NuttX/nuttx-export/libs/libnuttx.a(mm-mm_malloc.o)
 .debug_ranges  0x0000000000001970       0x28 /home/tuofeichen/SLAM/MAV-Project/Firmware/build_px4fmu-v2_lpe/px4io-v2/NuttX/nuttx-export/libs/libnuttx.a(mm-mm_sem.o)
 .debug_ranges  0x0000000000001998       0x10 /home/tuofeichen/SLAM/MAV-Project/Firmware/build_px4fmu-v2_lpe/px4io-v2/NuttX/nuttx-export/libs/libnuttx.a(mm-mm_size2ndx.o)
 .debug_ranges  0x00000000000019a8       0x28 /home/tuofeichen/SLAM/MAV-Project/Firmware/build_px4fmu-v2_lpe/px4io-v2/NuttX/nuttx-export/libs/libnuttx.a(mm-mm_user.o)
 .debug_ranges  0x00000000000019d0       0x10 /home/tuofeichen/SLAM/MAV-Project/Firmware/build_px4fmu-v2_lpe/px4io-v2/NuttX/nuttx-export/libs/libnuttx.a(mm-mm_zalloc.o)
 .debug_ranges  0x00000000000019e0       0x80 /home/tuofeichen/SLAM/MAV-Project/Firmware/build_px4fmu-v2_lpe/px4io-v2/NuttX/nuttx-export/libs/libnuttx.a(arch-stm32_dma.o)
 .debug_ranges  0x0000000000001a60       0x30 /home/tuofeichen/SLAM/MAV-Project/Firmware/build_px4fmu-v2_lpe/px4io-v2/NuttX/nuttx-export/libs/libnuttx.a(arch-stm32_gpio.o)
 .debug_ranges  0x0000000000001a90       0x30 /home/tuofeichen/SLAM/MAV-Project/Firmware/build_px4fmu-v2_lpe/px4io-v2/NuttX/nuttx-export/libs/libnuttx.a(arch-stm32_irq.o)
 .debug_ranges  0x0000000000001ac0      0x248 /home/tuofeichen/SLAM/MAV-Project/Firmware/build_px4fmu-v2_lpe/px4io-v2/NuttX/nuttx-export/libs/libnuttx.a(arch-stm32_serial.o)
 .debug_ranges  0x0000000000001d08       0x10 /home/tuofeichen/SLAM/MAV-Project/Firmware/build_px4fmu-v2_lpe/px4io-v2/NuttX/nuttx-export/libs/libnuttx.a(arch-stm32_start.o)
 .debug_ranges  0x0000000000001d18       0x28 /home/tuofeichen/SLAM/MAV-Project/Firmware/build_px4fmu-v2_lpe/px4io-v2/NuttX/nuttx-export/libs/libnuttx.a(arch-up_assert.o)
 .debug_ranges  0x0000000000001d40       0x28 /home/tuofeichen/SLAM/MAV-Project/Firmware/build_px4fmu-v2_lpe/px4io-v2/NuttX/nuttx-export/libs/libnuttx.a(arch-up_hardfault.o)
 .debug_ranges  0x0000000000001d68       0x10 /home/tuofeichen/SLAM/MAV-Project/Firmware/build_px4fmu-v2_lpe/px4io-v2/NuttX/nuttx-export/libs/libnuttx.a(arch-up_modifyreg32.o)
 .debug_ranges  0x0000000000001d78       0x10 /home/tuofeichen/SLAM/MAV-Project/Firmware/build_px4fmu-v2_lpe/px4io-v2/NuttX/nuttx-export/libs/libnuttx.a(arch-up_svcall.o)
 .debug_ranges  0x0000000000001d88       0x10 /home/tuofeichen/SLAM/MAV-Project/Firmware/build_px4fmu-v2_lpe/px4io-v2/NuttX/nuttx-export/libs/libnuttx.a(arch-up_systemreset.o)
 .debug_ranges  0x0000000000001d98       0x10 /home/tuofeichen/SLAM/MAV-Project/Firmware/build_px4fmu-v2_lpe/px4io-v2/NuttX/nuttx-export/libs/libnuttx.a(arch-up_udelay.o)
 .debug_ranges  0x0000000000001da8       0x10 /home/tuofeichen/SLAM/MAV-Project/Firmware/build_px4fmu-v2_lpe/px4io-v2/NuttX/nuttx-export/libs/libnuttx.a(cxx-libxx_cxa_atexit.o)
 .debug_ranges  0x0000000000001db8       0x10 /home/tuofeichen/SLAM/MAV-Project/Firmware/build_px4fmu-v2_lpe/px4io-v2/NuttX/nuttx-export/libs/libnuttx.a(cxx-libxx_cxapurevirtual.o)
 .debug_ranges  0x0000000000001dc8       0x10 /home/tuofeichen/SLAM/MAV-Project/Firmware/build_px4fmu-v2_lpe/px4io-v2/NuttX/nuttx-export/libs/libnuttx.a(cxx-libxx_delete.o)
 .debug_ranges  0x0000000000001dd8       0x10 /home/tuofeichen/SLAM/MAV-Project/Firmware/build_px4fmu-v2_lpe/px4io-v2/NuttX/nuttx-export/libs/libnuttx.a(cxx-libxx_eabi_atexit.o)
 .debug_ranges  0x0000000000001de8       0x10 /home/tuofeichen/SLAM/MAV-Project/Firmware/build_px4fmu-v2_lpe/px4io-v2/NuttX/nuttx-export/libs/libnuttx.a(cxx-libxx_new.o)
 .debug_ranges  0x0000000000001df8       0x10 /home/tuofeichen/SLAM/MAV-Project/Firmware/build_px4fmu-v2_lpe/px4io-v2/NuttX/nuttx-export/libs/libnuttx.a(fs-fs_ioctl.o)
 .debug_ranges  0x0000000000001e08       0x18 /home/tuofeichen/SLAM/MAV-Project/Firmware/build_px4fmu-v2_lpe/px4io-v2/NuttX/nuttx-export/libs/libnuttx.a(fs-fs_open.o)
 .debug_ranges  0x0000000000001e20       0x28 /home/tuofeichen/SLAM/MAV-Project/Firmware/build_px4fmu-v2_lpe/px4io-v2/NuttX/nuttx-export/libs/libnuttx.a(fs-fs_read.o)
 .debug_ranges  0x0000000000001e48       0x10 /home/tuofeichen/SLAM/MAV-Project/Firmware/build_px4fmu-v2_lpe/px4io-v2/NuttX/nuttx-export/libs/libnuttx.a(fs-fs_write.o)
 .debug_ranges  0x0000000000001e58       0x30 /home/tuofeichen/SLAM/MAV-Project/Firmware/build_px4fmu-v2_lpe/px4io-v2/NuttX/nuttx-export/libs/libnuttx.a(drivers-serialirq.o)
 .debug_ranges  0x0000000000001e88       0x78 /home/tuofeichen/SLAM/MAV-Project/Firmware/build_px4fmu-v2_lpe/px4io-v2/NuttX/nuttx-export/libs/libnuttx.a(drivers-serial.o)
 .debug_ranges  0x0000000000001f00       0x10 /home/tuofeichen/SLAM/MAV-Project/Firmware/build_px4fmu-v2_lpe/px4io-v2/NuttX/nuttx-export/libs/libnuttx.a(sched-errno_getptr.o)
 .debug_ranges  0x0000000000001f10       0x10 /home/tuofeichen/SLAM/MAV-Project/Firmware/build_px4fmu-v2_lpe/px4io-v2/NuttX/nuttx-export/libs/libnuttx.a(sched-exit.o)
 .debug_ranges  0x0000000000001f20       0x10 /home/tuofeichen/SLAM/MAV-Project/Firmware/build_px4fmu-v2_lpe/px4io-v2/NuttX/nuttx-export/libs/libnuttx.a(sched-getpid.o)
 .debug_ranges  0x0000000000001f30       0x10 /home/tuofeichen/SLAM/MAV-Project/Firmware/build_px4fmu-v2_lpe/px4io-v2/NuttX/nuttx-export/libs/libnuttx.a(sched-os_start.o)
 .debug_ranges  0x0000000000001f40       0x10 /home/tuofeichen/SLAM/MAV-Project/Firmware/build_px4fmu-v2_lpe/px4io-v2/NuttX/nuttx-export/libs/libnuttx.a(sched-sched_garbage.o)
 .debug_ranges  0x0000000000001f50       0x10 /home/tuofeichen/SLAM/MAV-Project/Firmware/build_px4fmu-v2_lpe/px4io-v2/NuttX/nuttx-export/libs/libnuttx.a(sched-sched_getfiles.o)
 .debug_ranges  0x0000000000001f60       0x10 /home/tuofeichen/SLAM/MAV-Project/Firmware/build_px4fmu-v2_lpe/px4io-v2/NuttX/nuttx-export/libs/libnuttx.a(sched-sem_post.o)
 .debug_ranges  0x0000000000001f70       0x10 /home/tuofeichen/SLAM/MAV-Project/Firmware/build_px4fmu-v2_lpe/px4io-v2/NuttX/nuttx-export/libs/libnuttx.a(sched-sem_trywait.o)
 .debug_ranges  0x0000000000001f80       0x10 /home/tuofeichen/SLAM/MAV-Project/Firmware/build_px4fmu-v2_lpe/px4io-v2/NuttX/nuttx-export/libs/libnuttx.a(sched-sem_wait.o)
 .debug_ranges  0x0000000000001f90       0x10 /home/tuofeichen/SLAM/MAV-Project/Firmware/build_px4fmu-v2_lpe/px4io-v2/NuttX/nuttx-export/libs/libnuttx.a(sched-task_exithook.o)
 .debug_ranges  0x0000000000001fa0       0x10 /home/tuofeichen/SLAM/MAV-Project/Firmware/build_px4fmu-v2_lpe/px4io-v2/NuttX/nuttx-export/libs/libnuttx.a(sched-task_recover.o)
 .debug_ranges  0x0000000000001fb0       0x10 /home/tuofeichen/SLAM/MAV-Project/Firmware/build_px4fmu-v2_lpe/px4io-v2/NuttX/nuttx-export/libs/libnuttx.a(sched-wd_cancel.o)
 .debug_ranges  0x0000000000001fc0       0x10 /home/tuofeichen/SLAM/MAV-Project/Firmware/build_px4fmu-v2_lpe/px4io-v2/NuttX/nuttx-export/libs/libnuttx.a(sched-wd_delete.o)
 .debug_ranges  0x0000000000001fd0       0x10 /home/tuofeichen/SLAM/MAV-Project/Firmware/build_px4fmu-v2_lpe/px4io-v2/NuttX/nuttx-export/libs/libnuttx.a(sched-wd_initialize.o)
 .debug_ranges  0x0000000000001fe0       0x10 /home/tuofeichen/SLAM/MAV-Project/Firmware/build_px4fmu-v2_lpe/px4io-v2/NuttX/nuttx-export/libs/libnuttx.a(c-dq_addfirst.o)
 .debug_ranges  0x0000000000001ff0       0x10 /home/tuofeichen/SLAM/MAV-Project/Firmware/build_px4fmu-v2_lpe/px4io-v2/NuttX/nuttx-export/libs/libnuttx.a(c-lib_cfgetspeed.o)
 .debug_ranges  0x0000000000002000       0x10 /home/tuofeichen/SLAM/MAV-Project/Firmware/build_px4fmu-v2_lpe/px4io-v2/NuttX/nuttx-export/libs/libnuttx.a(c-lib_checkbase.o)
 .debug_ranges  0x0000000000002010       0x10 /home/tuofeichen/SLAM/MAV-Project/Firmware/build_px4fmu-v2_lpe/px4io-v2/NuttX/nuttx-export/libs/libnuttx.a(c-lib_isbasedigit.o)
 .debug_ranges  0x0000000000002020       0xe8 /home/tuofeichen/SLAM/MAV-Project/Firmware/build_px4fmu-v2_lpe/px4io-v2/NuttX/nuttx-export/libs/libnuttx.a(c-lib_libvsprintf.o)
 .debug_ranges  0x0000000000002108       0x18 /home/tuofeichen/SLAM/MAV-Project/Firmware/build_px4fmu-v2_lpe/px4io-v2/NuttX/nuttx-export/libs/libnuttx.a(c-lib_lowoutstream.o)
 .debug_ranges  0x0000000000002120       0x18 /home/tuofeichen/SLAM/MAV-Project/Firmware/build_px4fmu-v2_lpe/px4io-v2/NuttX/nuttx-export/libs/libnuttx.a(c-lib_memoutstream.o)
 .debug_ranges  0x0000000000002138       0x18 /home/tuofeichen/SLAM/MAV-Project/Firmware/build_px4fmu-v2_lpe/px4io-v2/NuttX/nuttx-export/libs/libnuttx.a(c-lib_nulloutstream.o)
 .debug_ranges  0x0000000000002150       0x18 /home/tuofeichen/SLAM/MAV-Project/Firmware/build_px4fmu-v2_lpe/px4io-v2/NuttX/nuttx-export/libs/libnuttx.a(c-lib_rawoutstream.o)
 .debug_ranges  0x0000000000002168       0x10 /home/tuofeichen/SLAM/MAV-Project/Firmware/build_px4fmu-v2_lpe/px4io-v2/NuttX/nuttx-export/libs/libnuttx.a(c-lib_skipspace.o)
 .debug_ranges  0x0000000000002178       0x10 /home/tuofeichen/SLAM/MAV-Project/Firmware/build_px4fmu-v2_lpe/px4io-v2/NuttX/nuttx-export/libs/libnuttx.a(c-lib_strcpy.o)
 .debug_ranges  0x0000000000002188       0x10 /home/tuofeichen/SLAM/MAV-Project/Firmware/build_px4fmu-v2_lpe/px4io-v2/NuttX/nuttx-export/libs/libnuttx.a(c-lib_strlen.o)
 .debug_ranges  0x0000000000002198       0x10 /home/tuofeichen/SLAM/MAV-Project/Firmware/build_px4fmu-v2_lpe/px4io-v2/NuttX/nuttx-export/libs/libnuttx.a(c-sem_init.o)
 .debug_ranges  0x00000000000021a8       0x10 /home/tuofeichen/SLAM/MAV-Project/Firmware/build_px4fmu-v2_lpe/px4io-v2/NuttX/nuttx-export/libs/libnuttx.a(c-sq_remafter.o)
 .debug_ranges  0x00000000000021b8       0x10 /home/tuofeichen/SLAM/MAV-Project/Firmware/build_px4fmu-v2_lpe/px4io-v2/NuttX/nuttx-export/libs/libnuttx.a(c-sq_remfirst.o)
 .debug_ranges  0x00000000000021c8       0x10 /home/tuofeichen/SLAM/MAV-Project/Firmware/build_px4fmu-v2_lpe/px4io-v2/NuttX/nuttx-export/libs/libnuttx.a(mm-mm_addfreechunk.o)
 .debug_ranges  0x00000000000021d8       0x18 /home/tuofeichen/SLAM/MAV-Project/Firmware/build_px4fmu-v2_lpe/px4io-v2/NuttX/nuttx-export/libs/libnuttx.a(mm-mm_initialize.o)
 .debug_ranges  0x00000000000021f0       0x10 /home/tuofeichen/SLAM/MAV-Project/Firmware/build_px4fmu-v2_lpe/px4io-v2/NuttX/nuttx-export/libs/libnuttx.a(arch-stm32_allocateheap.o)
 .debug_ranges  0x0000000000002200       0x10 /home/tuofeichen/SLAM/MAV-Project/Firmware/build_px4fmu-v2_lpe/px4io-v2/NuttX/nuttx-export/libs/libnuttx.a(arch-stm32_idle.o)
 .debug_ranges  0x0000000000002210       0x18 /home/tuofeichen/SLAM/MAV-Project/Firmware/build_px4fmu-v2_lpe/px4io-v2/NuttX/nuttx-export/libs/libnuttx.a(arch-stm32_lowputc.o)
 .debug_ranges  0x0000000000002228       0x28 /home/tuofeichen/SLAM/MAV-Project/Firmware/build_px4fmu-v2_lpe/px4io-v2/NuttX/nuttx-export/libs/libnuttx.a(arch-stm32_rcc.o)
 .debug_ranges  0x0000000000002250       0x28 /home/tuofeichen/SLAM/MAV-Project/Firmware/build_px4fmu-v2_lpe/px4io-v2/NuttX/nuttx-export/libs/libnuttx.a(arch-up_blocktask.o)
 .debug_ranges  0x0000000000002278       0x10 /home/tuofeichen/SLAM/MAV-Project/Firmware/build_px4fmu-v2_lpe/px4io-v2/NuttX/nuttx-export/libs/libnuttx.a(arch-up_copystate.o)
 .debug_ranges  0x0000000000002288       0x10 /home/tuofeichen/SLAM/MAV-Project/Firmware/build_px4fmu-v2_lpe/px4io-v2/NuttX/nuttx-export/libs/libnuttx.a(arch-up_exit.o)
 .debug_ranges  0x0000000000002298       0x10 /home/tuofeichen/SLAM/MAV-Project/Firmware/build_px4fmu-v2_lpe/px4io-v2/NuttX/nuttx-export/libs/libnuttx.a(arch-up_initialize.o)
 .debug_ranges  0x00000000000022a8       0x10 /home/tuofeichen/SLAM/MAV-Project/Firmware/build_px4fmu-v2_lpe/px4io-v2/NuttX/nuttx-export/libs/libnuttx.a(arch-up_initialstate.o)
 .debug_ranges  0x00000000000022b8       0x10 /home/tuofeichen/SLAM/MAV-Project/Firmware/build_px4fmu-v2_lpe/px4io-v2/NuttX/nuttx-export/libs/libnuttx.a(arch-up_interruptcontext.o)
 .debug_ranges  0x00000000000022c8       0x10 /home/tuofeichen/SLAM/MAV-Project/Firmware/build_px4fmu-v2_lpe/px4io-v2/NuttX/nuttx-export/libs/libnuttx.a(arch-up_mdelay.o)
 .debug_ranges  0x00000000000022d8       0x28 /home/tuofeichen/SLAM/MAV-Project/Firmware/build_px4fmu-v2_lpe/px4io-v2/NuttX/nuttx-export/libs/libnuttx.a(arch-up_unblocktask.o)
 .debug_ranges  0x0000000000002300       0x50 /home/tuofeichen/SLAM/MAV-Project/Firmware/build_px4fmu-v2_lpe/px4io-v2/NuttX/nuttx-export/libs/libnuttx.a(fs-fs_files.o)
 .debug_ranges  0x0000000000002350       0x10 /home/tuofeichen/SLAM/MAV-Project/Firmware/build_px4fmu-v2_lpe/px4io-v2/NuttX/nuttx-export/libs/libnuttx.a(fs-fs_inodeaddref.o)
 .debug_ranges  0x0000000000002360       0x10 /home/tuofeichen/SLAM/MAV-Project/Firmware/build_px4fmu-v2_lpe/px4io-v2/NuttX/nuttx-export/libs/libnuttx.a(fs-fs_inodefind.o)
 .debug_ranges  0x0000000000002370       0x50 /home/tuofeichen/SLAM/MAV-Project/Firmware/build_px4fmu-v2_lpe/px4io-v2/NuttX/nuttx-export/libs/libnuttx.a(fs-fs_inode.o)
 .debug_ranges  0x00000000000023c0       0x10 /home/tuofeichen/SLAM/MAV-Project/Firmware/build_px4fmu-v2_lpe/px4io-v2/NuttX/nuttx-export/libs/libnuttx.a(fs-fs_inoderelease.o)
 .debug_ranges  0x00000000000023d0       0x10 /home/tuofeichen/SLAM/MAV-Project/Firmware/build_px4fmu-v2_lpe/px4io-v2/NuttX/nuttx-export/libs/libnuttx.a(fs-fs_registerdriver.o)
 .debug_ranges  0x00000000000023e0       0x18 /home/tuofeichen/SLAM/MAV-Project/Firmware/build_px4fmu-v2_lpe/px4io-v2/NuttX/nuttx-export/libs/libnuttx.a(sched-group_create.o)
 .debug_ranges  0x00000000000023f8       0x10 /home/tuofeichen/SLAM/MAV-Project/Firmware/build_px4fmu-v2_lpe/px4io-v2/NuttX/nuttx-export/libs/libnuttx.a(sched-group_leave.o)
 .debug_ranges  0x0000000000002408       0x10 /home/tuofeichen/SLAM/MAV-Project/Firmware/build_px4fmu-v2_lpe/px4io-v2/NuttX/nuttx-export/libs/libnuttx.a(sched-group_setupidlefiles.o)
 .debug_ranges  0x0000000000002418       0x10 /home/tuofeichen/SLAM/MAV-Project/Firmware/build_px4fmu-v2_lpe/px4io-v2/NuttX/nuttx-export/libs/libnuttx.a(sched-os_bringup.o)
 .debug_ranges  0x0000000000002428       0x10 /home/tuofeichen/SLAM/MAV-Project/Firmware/build_px4fmu-v2_lpe/px4io-v2/NuttX/nuttx-export/libs/libnuttx.a(sched-sched_addblocked.o)
 .debug_ranges  0x0000000000002438       0x10 /home/tuofeichen/SLAM/MAV-Project/Firmware/build_px4fmu-v2_lpe/px4io-v2/NuttX/nuttx-export/libs/libnuttx.a(sched-sched_addprioritized.o)
 .debug_ranges  0x0000000000002448       0x10 /home/tuofeichen/SLAM/MAV-Project/Firmware/build_px4fmu-v2_lpe/px4io-v2/NuttX/nuttx-export/libs/libnuttx.a(sched-sched_addreadytorun.o)
 .debug_ranges  0x0000000000002458       0x10 /home/tuofeichen/SLAM/MAV-Project/Firmware/build_px4fmu-v2_lpe/px4io-v2/NuttX/nuttx-export/libs/libnuttx.a(sched-sched_free.o)
 .debug_ranges  0x0000000000002468       0x10 /home/tuofeichen/SLAM/MAV-Project/Firmware/build_px4fmu-v2_lpe/px4io-v2/NuttX/nuttx-export/libs/libnuttx.a(sched-sched_mergepending.o)
 .debug_ranges  0x0000000000002478       0x10 /home/tuofeichen/SLAM/MAV-Project/Firmware/build_px4fmu-v2_lpe/px4io-v2/NuttX/nuttx-export/libs/libnuttx.a(sched-sched_removeblocked.o)
 .debug_ranges  0x0000000000002488       0x10 /home/tuofeichen/SLAM/MAV-Project/Firmware/build_px4fmu-v2_lpe/px4io-v2/NuttX/nuttx-export/libs/libnuttx.a(sched-sched_removereadytorun.o)
 .debug_ranges  0x0000000000002498       0x10 /home/tuofeichen/SLAM/MAV-Project/Firmware/build_px4fmu-v2_lpe/px4io-v2/NuttX/nuttx-export/libs/libnuttx.a(sched-sem_destroy.o)
 .debug_ranges  0x00000000000024a8       0x20 /home/tuofeichen/SLAM/MAV-Project/Firmware/build_px4fmu-v2_lpe/px4io-v2/NuttX/nuttx-export/libs/libnuttx.a(sched-task_create.o)
 .debug_ranges  0x00000000000024c8       0x10 /home/tuofeichen/SLAM/MAV-Project/Firmware/build_px4fmu-v2_lpe/px4io-v2/NuttX/nuttx-export/libs/libnuttx.a(sched-task_exit.o)
 .debug_ranges  0x00000000000024d8       0x48 /home/tuofeichen/SLAM/MAV-Project/Firmware/build_px4fmu-v2_lpe/px4io-v2/NuttX/nuttx-export/libs/libnuttx.a(sched-task_setup.o)
 .debug_ranges  0x0000000000002520       0x10 /home/tuofeichen/SLAM/MAV-Project/Firmware/build_px4fmu-v2_lpe/px4io-v2/NuttX/nuttx-export/libs/libnuttx.a(sched-task_start.o)
 .debug_ranges  0x0000000000002530       0x10 /home/tuofeichen/SLAM/MAV-Project/Firmware/build_px4fmu-v2_lpe/px4io-v2/NuttX/nuttx-export/libs/libnuttx.a(sched-task_terminate.o)
 .debug_ranges  0x0000000000002540       0x10 /home/tuofeichen/SLAM/MAV-Project/Firmware/build_px4fmu-v2_lpe/px4io-v2/NuttX/nuttx-export/libs/libnuttx.a(c-dq_addlast.o)
 .debug_ranges  0x0000000000002550       0x10 /home/tuofeichen/SLAM/MAV-Project/Firmware/build_px4fmu-v2_lpe/px4io-v2/NuttX/nuttx-export/libs/libnuttx.a(c-dq_rem.o)
 .debug_ranges  0x0000000000002560       0x10 /home/tuofeichen/SLAM/MAV-Project/Firmware/build_px4fmu-v2_lpe/px4io-v2/NuttX/nuttx-export/libs/libnuttx.a(c-lib_strdup.o)
 .debug_ranges  0x0000000000002570       0x18 /home/tuofeichen/SLAM/MAV-Project/Firmware/build_px4fmu-v2_lpe/px4io-v2/NuttX/nuttx-export/libs/libnuttx.a(arch-stm32_timerisr.o)
 .debug_ranges  0x0000000000002588       0x10 /home/tuofeichen/SLAM/MAV-Project/Firmware/build_px4fmu-v2_lpe/px4io-v2/NuttX/nuttx-export/libs/libnuttx.a(arch-up_createstack.o)
 .debug_ranges  0x0000000000002598       0x10 /home/tuofeichen/SLAM/MAV-Project/Firmware/build_px4fmu-v2_lpe/px4io-v2/NuttX/nuttx-export/libs/libnuttx.a(arch-up_doirq.o)
 .debug_ranges  0x00000000000025a8       0x10 /home/tuofeichen/SLAM/MAV-Project/Firmware/build_px4fmu-v2_lpe/px4io-v2/NuttX/nuttx-export/libs/libnuttx.a(arch-up_releasestack.o)
 .debug_ranges  0x00000000000025b8       0x10 /home/tuofeichen/SLAM/MAV-Project/Firmware/build_px4fmu-v2_lpe/px4io-v2/NuttX/nuttx-export/libs/libnuttx.a(fs-fs_close.o)
 .debug_ranges  0x00000000000025c8       0x10 /home/tuofeichen/SLAM/MAV-Project/Firmware/build_px4fmu-v2_lpe/px4io-v2/NuttX/nuttx-export/libs/libnuttx.a(fs-fs_filedup2.o)
 .debug_ranges  0x00000000000025d8       0x48 /home/tuofeichen/SLAM/MAV-Project/Firmware/build_px4fmu-v2_lpe/px4io-v2/NuttX/nuttx-export/libs/libnuttx.a(fs-fs_inodereserve.o)
 .debug_ranges  0x0000000000002620       0x10 /home/tuofeichen/SLAM/MAV-Project/Firmware/build_px4fmu-v2_lpe/px4io-v2/NuttX/nuttx-export/libs/libnuttx.a(sched-group_setuptaskfiles.o)
 .debug_ranges  0x0000000000002630       0x10 /home/tuofeichen/SLAM/MAV-Project/Firmware/build_px4fmu-v2_lpe/px4io-v2/NuttX/nuttx-export/libs/libnuttx.a(sched-irq_dispatch.o)
 .debug_ranges  0x0000000000002640       0x10 /home/tuofeichen/SLAM/MAV-Project/Firmware/build_px4fmu-v2_lpe/px4io-v2/NuttX/nuttx-export/libs/libnuttx.a(sched-sched_gettcb.o)
 .debug_ranges  0x0000000000002650       0x10 /home/tuofeichen/SLAM/MAV-Project/Firmware/build_px4fmu-v2_lpe/px4io-v2/NuttX/nuttx-export/libs/libnuttx.a(sched-sched_lock.o)
 .debug_ranges  0x0000000000002660       0x10 /home/tuofeichen/SLAM/MAV-Project/Firmware/build_px4fmu-v2_lpe/px4io-v2/NuttX/nuttx-export/libs/libnuttx.a(sched-sched_processtimer.o)
 .debug_ranges  0x0000000000002670       0x10 /home/tuofeichen/SLAM/MAV-Project/Firmware/build_px4fmu-v2_lpe/px4io-v2/NuttX/nuttx-export/libs/libnuttx.a(sched-sched_releasetcb.o)
 .debug_ranges  0x0000000000002680       0x10 /home/tuofeichen/SLAM/MAV-Project/Firmware/build_px4fmu-v2_lpe/px4io-v2/NuttX/nuttx-export/libs/libnuttx.a(sched-sched_unlock.o)
 .debug_ranges  0x0000000000002690       0x10 /home/tuofeichen/SLAM/MAV-Project/Firmware/build_px4fmu-v2_lpe/px4io-v2/NuttX/nuttx-export/libs/libnuttx.a(sched-task_activate.o)
 .debug_ranges  0x00000000000026a0       0x28 /home/tuofeichen/SLAM/MAV-Project/Firmware/build_px4fmu-v2_lpe/px4io-v2/NuttX/nuttx-export/libs/libnuttx.a(arch-up_releasepending.o)

.debug_str      0x0000000000000000     0x5c57
 .debug_str     0x0000000000000000      0x2bb src/modules/px4iofirmware/CMakeFiles/px4io-v2.dir/adc.c.obj
                                        0x31f (size before relaxing)
 .debug_str     0x00000000000002bb      0x341 src/modules/px4iofirmware/CMakeFiles/px4io-v2.dir/controls.c.obj
                                        0x64a (size before relaxing)
 .debug_str     0x00000000000005fc      0x331 src/modules/px4iofirmware/CMakeFiles/px4io-v2.dir/px4io.c.obj
                                        0x710 (size before relaxing)
 .debug_str     0x000000000000092d      0x1d2 src/modules/px4iofirmware/CMakeFiles/px4io-v2.dir/registers.c.obj
                                        0x5c8 (size before relaxing)
 .debug_str     0x0000000000000aff       0x9e src/modules/px4iofirmware/CMakeFiles/px4io-v2.dir/safety.c.obj
                                        0x3b5 (size before relaxing)
 .debug_str     0x0000000000000b9d       0x68 src/modules/px4iofirmware/CMakeFiles/px4io-v2.dir/__/systemlib/up_cxxinitialize.c.obj
                                        0x288 (size before relaxing)
 .debug_str     0x0000000000000c05      0x286 src/modules/px4iofirmware/CMakeFiles/px4io-v2.dir/__/systemlib/perf_counter.c.obj
                                        0x58c (size before relaxing)
 .debug_str     0x0000000000000e8b      0x681 src/modules/px4iofirmware/CMakeFiles/px4io-v2.dir/mixer.cpp.obj
                                        0xa39 (size before relaxing)
 .debug_str     0x000000000000150c      0x2d4 src/modules/px4iofirmware/CMakeFiles/px4io-v2.dir/__/systemlib/mixer/mixer.cpp.obj
                                        0x855 (size before relaxing)
 .debug_str     0x00000000000017e0      0x159 src/modules/px4iofirmware/CMakeFiles/px4io-v2.dir/__/systemlib/mixer/mixer_group.cpp.obj
                                        0x96f (size before relaxing)
 .debug_str     0x0000000000001939      0x4ae src/modules/px4iofirmware/CMakeFiles/px4io-v2.dir/__/systemlib/mixer/mixer_multirotor.cpp.obj
                                        0xcd4 (size before relaxing)
 .debug_str     0x0000000000001de7      0x21c src/modules/px4iofirmware/CMakeFiles/px4io-v2.dir/__/systemlib/mixer/mixer_simple.cpp.obj
                                        0xa05 (size before relaxing)
 .debug_str     0x0000000000002003       0xd1 src/modules/px4iofirmware/CMakeFiles/px4io-v2.dir/__/systemlib/pwm_limit/pwm_limit.c.obj
                                        0x408 (size before relaxing)
 .debug_str     0x00000000000020d4      0x1eb src/modules/px4iofirmware/CMakeFiles/px4io-v2.dir/__/__/lib/rc/st24.c.obj
                                        0x46c (size before relaxing)
 .debug_str     0x00000000000022bf      0x175 src/modules/px4iofirmware/CMakeFiles/px4io-v2.dir/__/__/lib/rc/sumd.c.obj
                                        0x44f (size before relaxing)
 .debug_str     0x0000000000002434      0x28d src/modules/px4iofirmware/CMakeFiles/px4io-v2.dir/__/__/lib/rc/sbus.c.obj
                                        0x61e (size before relaxing)
 .debug_str     0x00000000000026c1      0x1f2 src/modules/px4iofirmware/CMakeFiles/px4io-v2.dir/__/__/lib/rc/dsm.c.obj
                                        0x613 (size before relaxing)
 .debug_str     0x00000000000028b3      0x23a src/modules/px4iofirmware/CMakeFiles/px4io-v2.dir/__/__/drivers/stm32/drv_hrt.c.obj
                                        0x68c (size before relaxing)
 .debug_str     0x0000000000002aed      0x4cd src/modules/px4iofirmware/CMakeFiles/px4io-v2.dir/__/__/drivers/stm32/drv_io_timer.c.obj
                                        0x89d (size before relaxing)
 .debug_str     0x0000000000002fba       0x75 src/modules/px4iofirmware/CMakeFiles/px4io-v2.dir/__/__/drivers/stm32/drv_pwm_servo.c.obj
                                        0x5be (size before relaxing)
 .debug_str     0x000000000000302f       0x42 src/modules/px4iofirmware/CMakeFiles/px4io-v2.dir/__/__/drivers/boards/px4io-v2/px4io_init.c.obj
                                        0x293 (size before relaxing)
 .debug_str     0x0000000000003071       0x34 src/modules/px4iofirmware/CMakeFiles/px4io-v2.dir/__/__/drivers/boards/px4io-v2/px4io_timer_config.c.obj
                                        0x41e (size before relaxing)
 .debug_str     0x00000000000030a5      0x17a src/modules/px4iofirmware/CMakeFiles/px4io-v2.dir/serial.c.obj
                                        0x4f1 (size before relaxing)
 .debug_str     0x000000000000321f      0x1b6 src/modules/px4iofirmware/CMakeFiles/px4io-v2.dir/__/systemlib/hx_stream.c.obj
                                        0x4a6 (size before relaxing)
 .debug_str     0x00000000000033d5      0x18e /home/tuofeichen/SLAM/MAV-Project/Firmware/build_px4fmu-v2_lpe/px4io-v2/NuttX/nuttx-export/libs/libnuttx.a(sched-irq_attach.o)
                                        0x271 (size before relaxing)
 .debug_str     0x0000000000003563       0x20 /home/tuofeichen/SLAM/MAV-Project/Firmware/build_px4fmu-v2_lpe/px4io-v2/NuttX/nuttx-export/libs/libnuttx.a(sched-irq_initialize.o)
                                        0x238 (size before relaxing)
 .debug_str     0x0000000000003583       0x27 /home/tuofeichen/SLAM/MAV-Project/Firmware/build_px4fmu-v2_lpe/px4io-v2/NuttX/nuttx-export/libs/libnuttx.a(sched-irq_unexpectedisr.o)
                                        0x26a (size before relaxing)
 .debug_str     0x00000000000035aa       0x72 /home/tuofeichen/SLAM/MAV-Project/Firmware/build_px4fmu-v2_lpe/px4io-v2/NuttX/nuttx-export/libs/libnuttx.a(c-lib_abort.o)
                                        0x207 (size before relaxing)
 .debug_str     0x000000000000361c       0x22 /home/tuofeichen/SLAM/MAV-Project/Firmware/build_px4fmu-v2_lpe/px4io-v2/NuttX/nuttx-export/libs/libnuttx.a(c-lib_cfsetspeed.o)
                                        0x28d (size before relaxing)
 .debug_str     0x000000000000363e       0x24 /home/tuofeichen/SLAM/MAV-Project/Firmware/build_px4fmu-v2_lpe/px4io-v2/NuttX/nuttx-export/libs/libnuttx.a(c-lib_crc32.o)
                                        0x248 (size before relaxing)
 .debug_str     0x0000000000003662       0x1d /home/tuofeichen/SLAM/MAV-Project/Firmware/build_px4fmu-v2_lpe/px4io-v2/NuttX/nuttx-export/libs/libnuttx.a(c-lib_dprintf.o)
                                        0x24f (size before relaxing)
 .debug_str     0x000000000000367f       0x5a /home/tuofeichen/SLAM/MAV-Project/Firmware/build_px4fmu-v2_lpe/px4io-v2/NuttX/nuttx-export/libs/libnuttx.a(c-lib_lowsyslog.o)
                                        0x29a (size before relaxing)
 .debug_str     0x00000000000036d9       0x14 /home/tuofeichen/SLAM/MAV-Project/Firmware/build_px4fmu-v2_lpe/px4io-v2/NuttX/nuttx-export/libs/libnuttx.a(c-lib_memchr.o)
                                        0x215 (size before relaxing)
 .debug_str     0x00000000000036ed       0x1e /home/tuofeichen/SLAM/MAV-Project/Firmware/build_px4fmu-v2_lpe/px4io-v2/NuttX/nuttx-export/libs/libnuttx.a(c-lib_memcpy.o)
                                        0x21f (size before relaxing)
 .debug_str     0x000000000000370b       0x14 /home/tuofeichen/SLAM/MAV-Project/Firmware/build_px4fmu-v2_lpe/px4io-v2/NuttX/nuttx-export/libs/libnuttx.a(c-lib_memset.o)
                                        0x215 (size before relaxing)
 .debug_str     0x000000000000371f       0x13 /home/tuofeichen/SLAM/MAV-Project/Firmware/build_px4fmu-v2_lpe/px4io-v2/NuttX/nuttx-export/libs/libnuttx.a(c-lib_printf.o)
                                        0x24c (size before relaxing)
 .debug_str     0x0000000000003732       0xa4 /home/tuofeichen/SLAM/MAV-Project/Firmware/build_px4fmu-v2_lpe/px4io-v2/NuttX/nuttx-export/libs/libnuttx.a(c-lib_sscanf.o)
                                        0x317 (size before relaxing)
 .debug_str     0x00000000000037d6       0x14 /home/tuofeichen/SLAM/MAV-Project/Firmware/build_px4fmu-v2_lpe/px4io-v2/NuttX/nuttx-export/libs/libnuttx.a(c-lib_strchr.o)
                                        0x1fb (size before relaxing)
 .debug_str     0x00000000000037ea       0x14 /home/tuofeichen/SLAM/MAV-Project/Firmware/build_px4fmu-v2_lpe/px4io-v2/NuttX/nuttx-export/libs/libnuttx.a(c-lib_strcmp.o)
                                        0x202 (size before relaxing)
 .debug_str     0x00000000000037fe       0x1c /home/tuofeichen/SLAM/MAV-Project/Firmware/build_px4fmu-v2_lpe/px4io-v2/NuttX/nuttx-export/libs/libnuttx.a(c-lib_strcspn.o)
                                        0x225 (size before relaxing)
 .debug_str     0x000000000000381a       0x15 /home/tuofeichen/SLAM/MAV-Project/Firmware/build_px4fmu-v2_lpe/px4io-v2/NuttX/nuttx-export/libs/libnuttx.a(c-lib_strncpy.o)
                                        0x21c (size before relaxing)
 .debug_str     0x000000000000382f       0x43 /home/tuofeichen/SLAM/MAV-Project/Firmware/build_px4fmu-v2_lpe/px4io-v2/NuttX/nuttx-export/libs/libnuttx.a(c-lib_strtol.o)
                                        0x26b (size before relaxing)
 .debug_str     0x0000000000003872       0x33 /home/tuofeichen/SLAM/MAV-Project/Firmware/build_px4fmu-v2_lpe/px4io-v2/NuttX/nuttx-export/libs/libnuttx.a(c-lib_strtoul.o)
                                        0x282 (size before relaxing)
 .debug_str     0x00000000000038a5       0x3e /home/tuofeichen/SLAM/MAV-Project/Firmware/build_px4fmu-v2_lpe/px4io-v2/NuttX/nuttx-export/libs/libnuttx.a(c-lib_syslog.o)
                                        0x2b1 (size before relaxing)
 .debug_str     0x00000000000038e3       0x18 /home/tuofeichen/SLAM/MAV-Project/Firmware/build_px4fmu-v2_lpe/px4io-v2/NuttX/nuttx-export/libs/libnuttx.a(c-lib_tcgetattr.o)
                                        0x29d (size before relaxing)
 .debug_str     0x00000000000038fb       0x20 /home/tuofeichen/SLAM/MAV-Project/Firmware/build_px4fmu-v2_lpe/px4io-v2/NuttX/nuttx-export/libs/libnuttx.a(c-lib_tcsetattr.o)
                                        0x2a5 (size before relaxing)
 .debug_str     0x000000000000391b       0x15 /home/tuofeichen/SLAM/MAV-Project/Firmware/build_px4fmu-v2_lpe/px4io-v2/NuttX/nuttx-export/libs/libnuttx.a(c-lib_vdprintf.o)
                                        0x2ad (size before relaxing)
 .debug_str     0x0000000000003930       0x3a /home/tuofeichen/SLAM/MAV-Project/Firmware/build_px4fmu-v2_lpe/px4io-v2/NuttX/nuttx-export/libs/libnuttx.a(c-lib_vsnprintf.o)
                                        0x2e3 (size before relaxing)
 .debug_str     0x000000000000396a       0x1f /home/tuofeichen/SLAM/MAV-Project/Firmware/build_px4fmu-v2_lpe/px4io-v2/NuttX/nuttx-export/libs/libnuttx.a(c-sq_addafter.o)
                                        0x257 (size before relaxing)
 .debug_str     0x0000000000003989       0x14 /home/tuofeichen/SLAM/MAV-Project/Firmware/build_px4fmu-v2_lpe/px4io-v2/NuttX/nuttx-export/libs/libnuttx.a(c-sq_addfirst.o)
                                        0x247 (size before relaxing)
 .debug_str     0x000000000000399d       0x13 /home/tuofeichen/SLAM/MAV-Project/Firmware/build_px4fmu-v2_lpe/px4io-v2/NuttX/nuttx-export/libs/libnuttx.a(c-sq_addlast.o)
                                        0x245 (size before relaxing)
 .debug_str     0x00000000000039b0       0x1b /home/tuofeichen/SLAM/MAV-Project/Firmware/build_px4fmu-v2_lpe/px4io-v2/NuttX/nuttx-export/libs/libnuttx.a(c-sq_rem.o)
                                        0x24e (size before relaxing)
 .debug_str     0x00000000000039cb       0x74 /home/tuofeichen/SLAM/MAV-Project/Firmware/build_px4fmu-v2_lpe/px4io-v2/NuttX/nuttx-export/libs/libnuttx.a(mm-mm_calloc.o)
                                        0x225 (size before relaxing)
 .debug_str     0x0000000000003a3f       0xf1 /home/tuofeichen/SLAM/MAV-Project/Firmware/build_px4fmu-v2_lpe/px4io-v2/NuttX/nuttx-export/libs/libnuttx.a(mm-mm_free.o)
                                        0x351 (size before relaxing)
 .debug_str     0x0000000000003b30       0x1a /home/tuofeichen/SLAM/MAV-Project/Firmware/build_px4fmu-v2_lpe/px4io-v2/NuttX/nuttx-export/libs/libnuttx.a(mm-mm_mallinfo.o)
                                        0x367 (size before relaxing)
 .debug_str     0x0000000000003b4a       0x36 /home/tuofeichen/SLAM/MAV-Project/Firmware/build_px4fmu-v2_lpe/px4io-v2/NuttX/nuttx-export/libs/libnuttx.a(mm-mm_malloc.o)
                                        0x368 (size before relaxing)
 .debug_str     0x0000000000003b80       0x5d /home/tuofeichen/SLAM/MAV-Project/Firmware/build_px4fmu-v2_lpe/px4io-v2/NuttX/nuttx-export/libs/libnuttx.a(mm-mm_sem.o)
                                        0x390 (size before relaxing)
 .debug_str     0x0000000000003bdd        0xe /home/tuofeichen/SLAM/MAV-Project/Firmware/build_px4fmu-v2_lpe/px4io-v2/NuttX/nuttx-export/libs/libnuttx.a(mm-mm_size2ndx.o)
                                        0x220 (size before relaxing)
 .debug_str     0x0000000000003beb       0x5f /home/tuofeichen/SLAM/MAV-Project/Firmware/build_px4fmu-v2_lpe/px4io-v2/NuttX/nuttx-export/libs/libnuttx.a(mm-mm_user.o)
                                        0x385 (size before relaxing)
 .debug_str     0x0000000000003c4a        0xc /home/tuofeichen/SLAM/MAV-Project/Firmware/build_px4fmu-v2_lpe/px4io-v2/NuttX/nuttx-export/libs/libnuttx.a(mm-mm_zalloc.o)
                                        0x22d (size before relaxing)
 .debug_str     0x0000000000003c56      0x1e3 /home/tuofeichen/SLAM/MAV-Project/Firmware/build_px4fmu-v2_lpe/px4io-v2/NuttX/nuttx-export/libs/libnuttx.a(arch-stm32_dma.o)
                                        0x4d1 (size before relaxing)
 .debug_str     0x0000000000003e39       0x72 /home/tuofeichen/SLAM/MAV-Project/Firmware/build_px4fmu-v2_lpe/px4io-v2/NuttX/nuttx-export/libs/libnuttx.a(arch-stm32_gpio.o)
                                        0x30f (size before relaxing)
 .debug_str     0x0000000000003eab       0x78 /home/tuofeichen/SLAM/MAV-Project/Firmware/build_px4fmu-v2_lpe/px4io-v2/NuttX/nuttx-export/libs/libnuttx.a(arch-stm32_irq.o)
                                        0x36e (size before relaxing)
 .debug_str     0x0000000000003f23      0x584 /home/tuofeichen/SLAM/MAV-Project/Firmware/build_px4fmu-v2_lpe/px4io-v2/NuttX/nuttx-export/libs/libnuttx.a(arch-stm32_serial.o)
                                        0xafc (size before relaxing)
 .debug_str     0x00000000000044a7       0x5f /home/tuofeichen/SLAM/MAV-Project/Firmware/build_px4fmu-v2_lpe/px4io-v2/NuttX/nuttx-export/libs/libnuttx.a(arch-stm32_start.o)
                                        0x2ba (size before relaxing)
 .debug_str     0x0000000000004506      0x1d5 /home/tuofeichen/SLAM/MAV-Project/Firmware/build_px4fmu-v2_lpe/px4io-v2/NuttX/nuttx-export/libs/libnuttx.a(arch-up_assert.o)
                                        0x6b4 (size before relaxing)
 .debug_str     0x00000000000046db       0x33 /home/tuofeichen/SLAM/MAV-Project/Firmware/build_px4fmu-v2_lpe/px4io-v2/NuttX/nuttx-export/libs/libnuttx.a(arch-up_hardfault.o)
                                        0x2cb (size before relaxing)
 .debug_str     0x000000000000470e       0x18 /home/tuofeichen/SLAM/MAV-Project/Firmware/build_px4fmu-v2_lpe/px4io-v2/NuttX/nuttx-export/libs/libnuttx.a(arch-up_modifyreg32.o)
                                        0x28d (size before relaxing)
 .debug_str     0x0000000000004726       0x14 /home/tuofeichen/SLAM/MAV-Project/Firmware/build_px4fmu-v2_lpe/px4io-v2/NuttX/nuttx-export/libs/libnuttx.a(arch-up_svcall.o)
                                        0x25e (size before relaxing)
 .debug_str     0x000000000000473a       0x19 /home/tuofeichen/SLAM/MAV-Project/Firmware/build_px4fmu-v2_lpe/px4io-v2/NuttX/nuttx-export/libs/libnuttx.a(arch-up_systemreset.o)
                                        0x218 (size before relaxing)
 .debug_str     0x0000000000004753       0x20 /home/tuofeichen/SLAM/MAV-Project/Firmware/build_px4fmu-v2_lpe/px4io-v2/NuttX/nuttx-export/libs/libnuttx.a(arch-up_udelay.o)
                                        0x254 (size before relaxing)
 .debug_str     0x0000000000004773       0x1e /home/tuofeichen/SLAM/MAV-Project/Firmware/build_px4fmu-v2_lpe/px4io-v2/NuttX/nuttx-export/libs/libnuttx.a(arch-up_vectors.o)
                                        0x1ac (size before relaxing)
 .debug_str     0x0000000000004791      0x1f7 /home/tuofeichen/SLAM/MAV-Project/Firmware/build_px4fmu-v2_lpe/px4io-v2/NuttX/nuttx-export/libs/libnuttx.a(cxx-libxx_cxa_atexit.o)
                                        0x31c (size before relaxing)
 .debug_str     0x0000000000004988       0x2c /home/tuofeichen/SLAM/MAV-Project/Firmware/build_px4fmu-v2_lpe/px4io-v2/NuttX/nuttx-export/libs/libnuttx.a(cxx-libxx_cxapurevirtual.o)
                                        0x228 (size before relaxing)
 .debug_str     0x00000000000049b4       0x11 /home/tuofeichen/SLAM/MAV-Project/Firmware/build_px4fmu-v2_lpe/px4io-v2/NuttX/nuttx-export/libs/libnuttx.a(cxx-libxx_delete.o)
                                        0x2f9 (size before relaxing)
 .debug_str     0x00000000000049c5       0x1d /home/tuofeichen/SLAM/MAV-Project/Firmware/build_px4fmu-v2_lpe/px4io-v2/NuttX/nuttx-export/libs/libnuttx.a(cxx-libxx_eabi_atexit.o)
                                        0x326 (size before relaxing)
 .debug_str     0x00000000000049e2       0x67 /home/tuofeichen/SLAM/MAV-Project/Firmware/build_px4fmu-v2_lpe/px4io-v2/NuttX/nuttx-export/libs/libnuttx.a(cxx-libxx_new.o)
                                        0x3a9 (size before relaxing)
 .debug_str     0x0000000000004a49       0x82 /home/tuofeichen/SLAM/MAV-Project/Firmware/build_px4fmu-v2_lpe/px4io-v2/NuttX/nuttx-export/libs/libnuttx.a(fs-fs_ioctl.o)
                                        0x473 (size before relaxing)
 .debug_str     0x0000000000004acb       0x7a /home/tuofeichen/SLAM/MAV-Project/Firmware/build_px4fmu-v2_lpe/px4io-v2/NuttX/nuttx-export/libs/libnuttx.a(fs-fs_open.o)
                                        0x4e4 (size before relaxing)
 .debug_str     0x0000000000004b45       0x14 /home/tuofeichen/SLAM/MAV-Project/Firmware/build_px4fmu-v2_lpe/px4io-v2/NuttX/nuttx-export/libs/libnuttx.a(fs-fs_read.o)
                                        0x47c (size before relaxing)
 .debug_str     0x0000000000004b59       0x16 /home/tuofeichen/SLAM/MAV-Project/Firmware/build_px4fmu-v2_lpe/px4io-v2/NuttX/nuttx-export/libs/libnuttx.a(fs-fs_write.o)
                                        0x485 (size before relaxing)
 .debug_str     0x0000000000004b6f       0x98 /home/tuofeichen/SLAM/MAV-Project/Firmware/build_px4fmu-v2_lpe/px4io-v2/NuttX/nuttx-export/libs/libnuttx.a(drivers-serialirq.o)
                                        0x59a (size before relaxing)
 .debug_str     0x0000000000004c07       0xe2 /home/tuofeichen/SLAM/MAV-Project/Firmware/build_px4fmu-v2_lpe/px4io-v2/NuttX/nuttx-export/libs/libnuttx.a(drivers-serial.o)
                                        0x738 (size before relaxing)
 .debug_str     0x0000000000004ce9       0x1a /home/tuofeichen/SLAM/MAV-Project/Firmware/build_px4fmu-v2_lpe/px4io-v2/NuttX/nuttx-export/libs/libnuttx.a(sched-errno_getptr.o)
                                        0x684 (size before relaxing)
 .debug_str     0x0000000000004d03        0xe /home/tuofeichen/SLAM/MAV-Project/Firmware/build_px4fmu-v2_lpe/px4io-v2/NuttX/nuttx-export/libs/libnuttx.a(sched-exit.o)
                                        0x5d8 (size before relaxing)
 .debug_str     0x0000000000004d11        0x9 /home/tuofeichen/SLAM/MAV-Project/Firmware/build_px4fmu-v2_lpe/px4io-v2/NuttX/nuttx-export/libs/libnuttx.a(sched-getpid.o)
                                        0x5c1 (size before relaxing)
 .debug_str     0x0000000000004d1a      0x1bc /home/tuofeichen/SLAM/MAV-Project/Firmware/build_px4fmu-v2_lpe/px4io-v2/NuttX/nuttx-export/libs/libnuttx.a(sched-os_start.o)
                                        0x8c3 (size before relaxing)
 .debug_str     0x0000000000004ed6       0x34 /home/tuofeichen/SLAM/MAV-Project/Firmware/build_px4fmu-v2_lpe/px4io-v2/NuttX/nuttx-export/libs/libnuttx.a(sched-sched_garbage.o)
                                        0x2cf (size before relaxing)
 .debug_str     0x0000000000004f0a       0x11 /home/tuofeichen/SLAM/MAV-Project/Firmware/build_px4fmu-v2_lpe/px4io-v2/NuttX/nuttx-export/libs/libnuttx.a(sched-sched_getfiles.o)
                                        0x5d6 (size before relaxing)
 .debug_str     0x0000000000004f1b       0x2c /home/tuofeichen/SLAM/MAV-Project/Firmware/build_px4fmu-v2_lpe/px4io-v2/NuttX/nuttx-export/libs/libnuttx.a(sched-sem_post.o)
                                        0x61f (size before relaxing)
 .debug_str     0x0000000000004f47        0xe /home/tuofeichen/SLAM/MAV-Project/Firmware/build_px4fmu-v2_lpe/px4io-v2/NuttX/nuttx-export/libs/libnuttx.a(sched-sem_trywait.o)
                                        0x610 (size before relaxing)
 .debug_str     0x0000000000004f55       0x22 /home/tuofeichen/SLAM/MAV-Project/Firmware/build_px4fmu-v2_lpe/px4io-v2/NuttX/nuttx-export/libs/libnuttx.a(sched-sem_wait.o)
                                        0x6bc (size before relaxing)
 .debug_str     0x0000000000004f77       0x35 /home/tuofeichen/SLAM/MAV-Project/Firmware/build_px4fmu-v2_lpe/px4io-v2/NuttX/nuttx-export/libs/libnuttx.a(sched-task_exithook.o)
                                        0x5b8 (size before relaxing)
 .debug_str     0x0000000000004fac       0x2b /home/tuofeichen/SLAM/MAV-Project/Firmware/build_px4fmu-v2_lpe/px4io-v2/NuttX/nuttx-export/libs/libnuttx.a(sched-task_recover.o)
                                        0x5cc (size before relaxing)
 .debug_str     0x0000000000004fd7       0x2c /home/tuofeichen/SLAM/MAV-Project/Firmware/build_px4fmu-v2_lpe/px4io-v2/NuttX/nuttx-export/libs/libnuttx.a(sched-wd_cancel.o)
                                        0x335 (size before relaxing)
 .debug_str     0x0000000000005003       0x1e /home/tuofeichen/SLAM/MAV-Project/Firmware/build_px4fmu-v2_lpe/px4io-v2/NuttX/nuttx-export/libs/libnuttx.a(sched-wd_delete.o)
                                        0x323 (size before relaxing)
 .debug_str     0x0000000000005021       0x1e /home/tuofeichen/SLAM/MAV-Project/Firmware/build_px4fmu-v2_lpe/px4io-v2/NuttX/nuttx-export/libs/libnuttx.a(sched-wd_initialize.o)
                                        0x391 (size before relaxing)
 .debug_str     0x000000000000503f       0x14 /home/tuofeichen/SLAM/MAV-Project/Firmware/build_px4fmu-v2_lpe/px4io-v2/NuttX/nuttx-export/libs/libnuttx.a(c-dq_addfirst.o)
                                        0x24d (size before relaxing)
 .debug_str     0x0000000000005053       0x19 /home/tuofeichen/SLAM/MAV-Project/Firmware/build_px4fmu-v2_lpe/px4io-v2/NuttX/nuttx-export/libs/libnuttx.a(c-lib_cfgetspeed.o)
                                        0x287 (size before relaxing)
 .debug_str     0x000000000000506c       0x1c /home/tuofeichen/SLAM/MAV-Project/Firmware/build_px4fmu-v2_lpe/px4io-v2/NuttX/nuttx-export/libs/libnuttx.a(c-lib_checkbase.o)
                                        0x25b (size before relaxing)
 .debug_str     0x0000000000005088       0x19 /home/tuofeichen/SLAM/MAV-Project/Firmware/build_px4fmu-v2_lpe/px4io-v2/NuttX/nuttx-export/libs/libnuttx.a(c-lib_isbasedigit.o)
                                        0x250 (size before relaxing)
 .debug_str     0x00000000000050a1      0x10b /home/tuofeichen/SLAM/MAV-Project/Firmware/build_px4fmu-v2_lpe/px4io-v2/NuttX/nuttx-export/libs/libnuttx.a(c-lib_libvsprintf.o)
                                        0x3fc (size before relaxing)
 .debug_str     0x00000000000051ac       0x2b /home/tuofeichen/SLAM/MAV-Project/Firmware/build_px4fmu-v2_lpe/px4io-v2/NuttX/nuttx-export/libs/libnuttx.a(c-lib_lowoutstream.o)
                                        0x274 (size before relaxing)
 .debug_str     0x00000000000051d7       0x31 /home/tuofeichen/SLAM/MAV-Project/Firmware/build_px4fmu-v2_lpe/px4io-v2/NuttX/nuttx-export/libs/libnuttx.a(c-lib_memoutstream.o)
                                        0x2a9 (size before relaxing)
 .debug_str     0x0000000000005208       0x2d /home/tuofeichen/SLAM/MAV-Project/Firmware/build_px4fmu-v2_lpe/px4io-v2/NuttX/nuttx-export/libs/libnuttx.a(c-lib_nulloutstream.o)
                                        0x276 (size before relaxing)
 .debug_str     0x0000000000005235       0x3a /home/tuofeichen/SLAM/MAV-Project/Firmware/build_px4fmu-v2_lpe/px4io-v2/NuttX/nuttx-export/libs/libnuttx.a(c-lib_rawoutstream.o)
                                        0x2e9 (size before relaxing)
 .debug_str     0x000000000000526f       0x17 /home/tuofeichen/SLAM/MAV-Project/Firmware/build_px4fmu-v2_lpe/px4io-v2/NuttX/nuttx-export/libs/libnuttx.a(c-lib_skipspace.o)
                                        0x22e (size before relaxing)
 .debug_str     0x0000000000005286       0x14 /home/tuofeichen/SLAM/MAV-Project/Firmware/build_px4fmu-v2_lpe/px4io-v2/NuttX/nuttx-export/libs/libnuttx.a(c-lib_strcpy.o)
                                        0x200 (size before relaxing)
 .debug_str     0x000000000000529a       0x14 /home/tuofeichen/SLAM/MAV-Project/Firmware/build_px4fmu-v2_lpe/px4io-v2/NuttX/nuttx-export/libs/libnuttx.a(c-lib_strlen.o)
                                        0x215 (size before relaxing)
 .debug_str     0x00000000000052ae       0x1d /home/tuofeichen/SLAM/MAV-Project/Firmware/build_px4fmu-v2_lpe/px4io-v2/NuttX/nuttx-export/libs/libnuttx.a(c-sem_init.o)
                                        0x240 (size before relaxing)
 .debug_str     0x00000000000052cb       0x14 /home/tuofeichen/SLAM/MAV-Project/Firmware/build_px4fmu-v2_lpe/px4io-v2/NuttX/nuttx-export/libs/libnuttx.a(c-sq_remafter.o)
                                        0x247 (size before relaxing)
 .debug_str     0x00000000000052df       0x14 /home/tuofeichen/SLAM/MAV-Project/Firmware/build_px4fmu-v2_lpe/px4io-v2/NuttX/nuttx-export/libs/libnuttx.a(c-sq_remfirst.o)
                                        0x242 (size before relaxing)
 .debug_str     0x00000000000052f3       0x12 /home/tuofeichen/SLAM/MAV-Project/Firmware/build_px4fmu-v2_lpe/px4io-v2/NuttX/nuttx-export/libs/libnuttx.a(mm-mm_addfreechunk.o)
                                        0x323 (size before relaxing)
 .debug_str     0x0000000000005305       0x19 /home/tuofeichen/SLAM/MAV-Project/Firmware/build_px4fmu-v2_lpe/px4io-v2/NuttX/nuttx-export/libs/libnuttx.a(mm-mm_initialize.o)
                                        0x377 (size before relaxing)
 .debug_str     0x000000000000531e       0x1a /home/tuofeichen/SLAM/MAV-Project/Firmware/build_px4fmu-v2_lpe/px4io-v2/NuttX/nuttx-export/libs/libnuttx.a(arch-stm32_allocateheap.o)
                                        0x276 (size before relaxing)
 .debug_str     0x0000000000005338       0x12 /home/tuofeichen/SLAM/MAV-Project/Firmware/build_px4fmu-v2_lpe/px4io-v2/NuttX/nuttx-export/libs/libnuttx.a(arch-stm32_idle.o)
                                        0x226 (size before relaxing)
 .debug_str     0x000000000000534a       0x1a /home/tuofeichen/SLAM/MAV-Project/Firmware/build_px4fmu-v2_lpe/px4io-v2/NuttX/nuttx-export/libs/libnuttx.a(arch-stm32_lowputc.o)
                                        0x25b (size before relaxing)
 .debug_str     0x0000000000005364       0x7a /home/tuofeichen/SLAM/MAV-Project/Firmware/build_px4fmu-v2_lpe/px4io-v2/NuttX/nuttx-export/libs/libnuttx.a(arch-stm32_rcc.o)
                                        0x2c3 (size before relaxing)
 .debug_str     0x00000000000053de       0x86 /home/tuofeichen/SLAM/MAV-Project/Firmware/build_px4fmu-v2_lpe/px4io-v2/NuttX/nuttx-export/libs/libnuttx.a(arch-up_blocktask.o)
                                        0x711 (size before relaxing)
 .debug_str     0x0000000000005464       0x17 /home/tuofeichen/SLAM/MAV-Project/Firmware/build_px4fmu-v2_lpe/px4io-v2/NuttX/nuttx-export/libs/libnuttx.a(arch-up_copystate.o)
                                        0x248 (size before relaxing)
 .debug_str     0x000000000000547b       0x31 /home/tuofeichen/SLAM/MAV-Project/Firmware/build_px4fmu-v2_lpe/px4io-v2/NuttX/nuttx-export/libs/libnuttx.a(arch-up_exit.o)
                                        0x611 (size before relaxing)
 .debug_str     0x00000000000054ac       0x24 /home/tuofeichen/SLAM/MAV-Project/Firmware/build_px4fmu-v2_lpe/px4io-v2/NuttX/nuttx-export/libs/libnuttx.a(arch-up_initialize.o)
                                        0x28e (size before relaxing)
 .debug_str     0x00000000000054d0       0x1a /home/tuofeichen/SLAM/MAV-Project/Firmware/build_px4fmu-v2_lpe/px4io-v2/NuttX/nuttx-export/libs/libnuttx.a(arch-up_initialstate.o)
                                        0x5a7 (size before relaxing)
 .debug_str     0x00000000000054ea       0x1d /home/tuofeichen/SLAM/MAV-Project/Firmware/build_px4fmu-v2_lpe/px4io-v2/NuttX/nuttx-export/libs/libnuttx.a(arch-up_interruptcontext.o)
                                        0x276 (size before relaxing)
 .debug_str     0x0000000000005507       0x20 /home/tuofeichen/SLAM/MAV-Project/Firmware/build_px4fmu-v2_lpe/px4io-v2/NuttX/nuttx-export/libs/libnuttx.a(arch-up_mdelay.o)
                                        0x236 (size before relaxing)
 .debug_str     0x0000000000005527       0x41 /home/tuofeichen/SLAM/MAV-Project/Firmware/build_px4fmu-v2_lpe/px4io-v2/NuttX/nuttx-export/libs/libnuttx.a(arch-up_unblocktask.o)
                                        0x6dc (size before relaxing)
 .debug_str     0x0000000000005568       0xa8 /home/tuofeichen/SLAM/MAV-Project/Firmware/build_px4fmu-v2_lpe/px4io-v2/NuttX/nuttx-export/libs/libnuttx.a(fs-fs_files.o)
                                        0x581 (size before relaxing)
 .debug_str     0x0000000000005610       0x2d /home/tuofeichen/SLAM/MAV-Project/Firmware/build_px4fmu-v2_lpe/px4io-v2/NuttX/nuttx-export/libs/libnuttx.a(fs-fs_inodeaddref.o)
                                        0x438 (size before relaxing)
 .debug_str     0x000000000000563d       0x1c /home/tuofeichen/SLAM/MAV-Project/Firmware/build_px4fmu-v2_lpe/px4io-v2/NuttX/nuttx-export/libs/libnuttx.a(fs-fs_inodefind.o)
                                        0x453 (size before relaxing)
 .debug_str     0x0000000000005659       0x66 /home/tuofeichen/SLAM/MAV-Project/Firmware/build_px4fmu-v2_lpe/px4io-v2/NuttX/nuttx-export/libs/libnuttx.a(fs-fs_inode.o)
                                        0x525 (size before relaxing)
 .debug_str     0x00000000000056bf       0x12 /home/tuofeichen/SLAM/MAV-Project/Firmware/build_px4fmu-v2_lpe/px4io-v2/NuttX/nuttx-export/libs/libnuttx.a(fs-fs_inoderelease.o)
                                        0x458 (size before relaxing)
 .debug_str     0x00000000000056d1       0x27 /home/tuofeichen/SLAM/MAV-Project/Firmware/build_px4fmu-v2_lpe/px4io-v2/NuttX/nuttx-export/libs/libnuttx.a(fs-fs_registerdriver.o)
                                        0x465 (size before relaxing)
 .debug_str     0x00000000000056f8        0xf /home/tuofeichen/SLAM/MAV-Project/Firmware/build_px4fmu-v2_lpe/px4io-v2/NuttX/nuttx-export/libs/libnuttx.a(sched-group_create.o)
                                        0x5c2 (size before relaxing)
 .debug_str     0x0000000000005707       0x28 /home/tuofeichen/SLAM/MAV-Project/Firmware/build_px4fmu-v2_lpe/px4io-v2/NuttX/nuttx-export/libs/libnuttx.a(sched-group_leave.o)
                                        0x5b4 (size before relaxing)
 .debug_str     0x000000000000572f       0x1c /home/tuofeichen/SLAM/MAV-Project/Firmware/build_px4fmu-v2_lpe/px4io-v2/NuttX/nuttx-export/libs/libnuttx.a(sched-group_setupidlefiles.o)
                                        0x5cc (size before relaxing)
 .debug_str     0x000000000000574b       0x20 /home/tuofeichen/SLAM/MAV-Project/Firmware/build_px4fmu-v2_lpe/px4io-v2/NuttX/nuttx-export/libs/libnuttx.a(sched-os_bringup.o)
                                        0x252 (size before relaxing)
 .debug_str     0x000000000000576b       0x38 /home/tuofeichen/SLAM/MAV-Project/Firmware/build_px4fmu-v2_lpe/px4io-v2/NuttX/nuttx-export/libs/libnuttx.a(sched-sched_addblocked.o)
                                        0x6c8 (size before relaxing)
 .debug_str     0x00000000000057a3       0x17 /home/tuofeichen/SLAM/MAV-Project/Firmware/build_px4fmu-v2_lpe/px4io-v2/NuttX/nuttx-export/libs/libnuttx.a(sched-sched_addprioritized.o)
                                        0x5e9 (size before relaxing)
 .debug_str     0x00000000000057ba       0x16 /home/tuofeichen/SLAM/MAV-Project/Firmware/build_px4fmu-v2_lpe/px4io-v2/NuttX/nuttx-export/libs/libnuttx.a(sched-sched_addreadytorun.o)
                                        0x6a4 (size before relaxing)
 .debug_str     0x00000000000057d0        0xd /home/tuofeichen/SLAM/MAV-Project/Firmware/build_px4fmu-v2_lpe/px4io-v2/NuttX/nuttx-export/libs/libnuttx.a(sched-sched_free.o)
                                        0x2ff (size before relaxing)
 .debug_str     0x00000000000057dd       0x33 /home/tuofeichen/SLAM/MAV-Project/Firmware/build_px4fmu-v2_lpe/px4io-v2/NuttX/nuttx-export/libs/libnuttx.a(sched-sched_mergepending.o)
                                        0x6a1 (size before relaxing)
 .debug_str     0x0000000000005810       0x1d /home/tuofeichen/SLAM/MAV-Project/Firmware/build_px4fmu-v2_lpe/px4io-v2/NuttX/nuttx-export/libs/libnuttx.a(sched-sched_removeblocked.o)
                                        0x6b5 (size before relaxing)
 .debug_str     0x000000000000582d       0x19 /home/tuofeichen/SLAM/MAV-Project/Firmware/build_px4fmu-v2_lpe/px4io-v2/NuttX/nuttx-export/libs/libnuttx.a(sched-sched_removereadytorun.o)
                                        0x688 (size before relaxing)
 .debug_str     0x0000000000005846        0xe /home/tuofeichen/SLAM/MAV-Project/Firmware/build_px4fmu-v2_lpe/px4io-v2/NuttX/nuttx-export/libs/libnuttx.a(sched-sem_destroy.o)
                                        0x253 (size before relaxing)
 .debug_str     0x0000000000005854       0xaa /home/tuofeichen/SLAM/MAV-Project/Firmware/build_px4fmu-v2_lpe/px4io-v2/NuttX/nuttx-export/libs/libnuttx.a(sched-task_create.o)
                                        0x6df (size before relaxing)
 .debug_str     0x00000000000058fe       0x1b /home/tuofeichen/SLAM/MAV-Project/Firmware/build_px4fmu-v2_lpe/px4io-v2/NuttX/nuttx-export/libs/libnuttx.a(sched-task_exit.o)
                                        0x6c4 (size before relaxing)
 .debug_str     0x0000000000005919       0x8e /home/tuofeichen/SLAM/MAV-Project/Firmware/build_px4fmu-v2_lpe/px4io-v2/NuttX/nuttx-export/libs/libnuttx.a(sched-task_setup.o)
                                        0x76b (size before relaxing)
 .debug_str     0x00000000000059a7       0x21 /home/tuofeichen/SLAM/MAV-Project/Firmware/build_px4fmu-v2_lpe/px4io-v2/NuttX/nuttx-export/libs/libnuttx.a(sched-task_start.o)
                                        0x5fa (size before relaxing)
 .debug_str     0x00000000000059c8       0x1e /home/tuofeichen/SLAM/MAV-Project/Firmware/build_px4fmu-v2_lpe/px4io-v2/NuttX/nuttx-export/libs/libnuttx.a(sched-task_terminate.o)
                                        0x724 (size before relaxing)
 .debug_str     0x00000000000059e6       0x13 /home/tuofeichen/SLAM/MAV-Project/Firmware/build_px4fmu-v2_lpe/px4io-v2/NuttX/nuttx-export/libs/libnuttx.a(c-dq_addlast.o)
                                        0x24b (size before relaxing)
 .debug_str     0x00000000000059f9        0xf /home/tuofeichen/SLAM/MAV-Project/Firmware/build_px4fmu-v2_lpe/px4io-v2/NuttX/nuttx-export/libs/libnuttx.a(c-dq_rem.o)
                                        0x24d (size before relaxing)
 .debug_str     0x0000000000005a08       0x19 /home/tuofeichen/SLAM/MAV-Project/Firmware/build_px4fmu-v2_lpe/px4io-v2/NuttX/nuttx-export/libs/libnuttx.a(c-lib_strdup.o)
                                        0x253 (size before relaxing)
 .debug_str     0x0000000000005a21       0x36 /home/tuofeichen/SLAM/MAV-Project/Firmware/build_px4fmu-v2_lpe/px4io-v2/NuttX/nuttx-export/libs/libnuttx.a(arch-stm32_timerisr.o)
                                        0x28e (size before relaxing)
 .debug_str     0x0000000000005a57       0x44 /home/tuofeichen/SLAM/MAV-Project/Firmware/build_px4fmu-v2_lpe/px4io-v2/NuttX/nuttx-export/libs/libnuttx.a(arch-up_createstack.o)
                                        0x5e1 (size before relaxing)
 .debug_str     0x0000000000005a9b       0x33 /home/tuofeichen/SLAM/MAV-Project/Firmware/build_px4fmu-v2_lpe/px4io-v2/NuttX/nuttx-export/libs/libnuttx.a(arch-up_doirq.o)
                                        0x281 (size before relaxing)
 .debug_str     0x0000000000005ace       0x19 /home/tuofeichen/SLAM/MAV-Project/Firmware/build_px4fmu-v2_lpe/px4io-v2/NuttX/nuttx-export/libs/libnuttx.a(arch-up_releasestack.o)
                                        0x5b6 (size before relaxing)
 .debug_str     0x0000000000005ae7        0xb /home/tuofeichen/SLAM/MAV-Project/Firmware/build_px4fmu-v2_lpe/px4io-v2/NuttX/nuttx-export/libs/libnuttx.a(fs-fs_close.o)
                                        0x234 (size before relaxing)
 .debug_str     0x0000000000005af2       0x1e /home/tuofeichen/SLAM/MAV-Project/Firmware/build_px4fmu-v2_lpe/px4io-v2/NuttX/nuttx-export/libs/libnuttx.a(fs-fs_filedup2.o)
                                        0x484 (size before relaxing)
 .debug_str     0x0000000000005b10       0x51 /home/tuofeichen/SLAM/MAV-Project/Firmware/build_px4fmu-v2_lpe/px4io-v2/NuttX/nuttx-export/libs/libnuttx.a(fs-fs_inodereserve.o)
                                        0x4c1 (size before relaxing)
 .debug_str     0x0000000000005b61       0x17 /home/tuofeichen/SLAM/MAV-Project/Firmware/build_px4fmu-v2_lpe/px4io-v2/NuttX/nuttx-export/libs/libnuttx.a(sched-group_setuptaskfiles.o)
                                        0x5c7 (size before relaxing)
 .debug_str     0x0000000000005b78        0xf /home/tuofeichen/SLAM/MAV-Project/Firmware/build_px4fmu-v2_lpe/px4io-v2/NuttX/nuttx-export/libs/libnuttx.a(sched-irq_dispatch.o)
                                        0x243 (size before relaxing)
 .debug_str     0x0000000000005b87        0xf /home/tuofeichen/SLAM/MAV-Project/Firmware/build_px4fmu-v2_lpe/px4io-v2/NuttX/nuttx-export/libs/libnuttx.a(sched-sched_gettcb.o)
                                        0x5b1 (size before relaxing)
 .debug_str     0x0000000000005b96        0xd /home/tuofeichen/SLAM/MAV-Project/Firmware/build_px4fmu-v2_lpe/px4io-v2/NuttX/nuttx-export/libs/libnuttx.a(sched-sched_lock.o)
                                        0x5ed (size before relaxing)
 .debug_str     0x0000000000005ba3       0x42 /home/tuofeichen/SLAM/MAV-Project/Firmware/build_px4fmu-v2_lpe/px4io-v2/NuttX/nuttx-export/libs/libnuttx.a(sched-sched_processtimer.o)
                                        0x25b (size before relaxing)
 .debug_str     0x0000000000005be5       0x24 /home/tuofeichen/SLAM/MAV-Project/Firmware/build_px4fmu-v2_lpe/px4io-v2/NuttX/nuttx-export/libs/libnuttx.a(sched-sched_releasetcb.o)
                                        0x61c (size before relaxing)
 .debug_str     0x0000000000005c09       0x22 /home/tuofeichen/SLAM/MAV-Project/Firmware/build_px4fmu-v2_lpe/px4io-v2/NuttX/nuttx-export/libs/libnuttx.a(sched-sched_unlock.o)
                                        0x62f (size before relaxing)
 .debug_str     0x0000000000005c2b       0x10 /home/tuofeichen/SLAM/MAV-Project/Firmware/build_px4fmu-v2_lpe/px4io-v2/NuttX/nuttx-export/libs/libnuttx.a(sched-task_activate.o)
                                        0x5c2 (size before relaxing)
 .debug_str     0x0000000000005c3b       0x1c /home/tuofeichen/SLAM/MAV-Project/Firmware/build_px4fmu-v2_lpe/px4io-v2/NuttX/nuttx-export/libs/libnuttx.a(arch-up_releasepending.o)
                                        0x632 (size before relaxing)

.debug_frame    0x0000000000000000     0x3830
 .debug_frame   0x0000000000000000       0x54 src/modules/px4iofirmware/CMakeFiles/px4io-v2.dir/adc.c.obj
 .debug_frame   0x0000000000000054       0x68 src/modules/px4iofirmware/CMakeFiles/px4io-v2.dir/controls.c.obj
 .debug_frame   0x00000000000000bc       0x98 src/modules/px4iofirmware/CMakeFiles/px4io-v2.dir/px4io.c.obj
 .debug_frame   0x0000000000000154       0xb0 src/modules/px4iofirmware/CMakeFiles/px4io-v2.dir/registers.c.obj
 .debug_frame   0x0000000000000204       0x70 src/modules/px4iofirmware/CMakeFiles/px4io-v2.dir/safety.c.obj
 .debug_frame   0x0000000000000274       0x30 src/modules/px4iofirmware/CMakeFiles/px4io-v2.dir/__/systemlib/up_cxxinitialize.c.obj
 .debug_frame   0x00000000000002a4      0x244 src/modules/px4iofirmware/CMakeFiles/px4io-v2.dir/__/systemlib/perf_counter.c.obj
 .debug_frame   0x00000000000004e8      0x104 src/modules/px4iofirmware/CMakeFiles/px4io-v2.dir/mixer.cpp.obj
 .debug_frame   0x00000000000005ec      0x138 src/modules/px4iofirmware/CMakeFiles/px4io-v2.dir/__/systemlib/mixer/mixer.cpp.obj
 .debug_frame   0x0000000000000724       0xfc src/modules/px4iofirmware/CMakeFiles/px4io-v2.dir/__/systemlib/mixer/mixer_group.cpp.obj
 .debug_frame   0x0000000000000820       0xd0 src/modules/px4iofirmware/CMakeFiles/px4io-v2.dir/__/systemlib/mixer/mixer_multirotor.cpp.obj
 .debug_frame   0x00000000000008f0      0x198 src/modules/px4iofirmware/CMakeFiles/px4io-v2.dir/__/systemlib/mixer/mixer_simple.cpp.obj
 .debug_frame   0x0000000000000a88       0x50 src/modules/px4iofirmware/CMakeFiles/px4io-v2.dir/__/systemlib/pwm_limit/pwm_limit.c.obj
 .debug_frame   0x0000000000000ad8       0x70 src/modules/px4iofirmware/CMakeFiles/px4io-v2.dir/__/__/lib/rc/st24.c.obj
 .debug_frame   0x0000000000000b48       0x74 src/modules/px4iofirmware/CMakeFiles/px4io-v2.dir/__/__/lib/rc/sumd.c.obj
 .debug_frame   0x0000000000000bbc      0x100 src/modules/px4iofirmware/CMakeFiles/px4io-v2.dir/__/__/lib/rc/sbus.c.obj
 .debug_frame   0x0000000000000cbc       0xf0 src/modules/px4iofirmware/CMakeFiles/px4io-v2.dir/__/__/lib/rc/dsm.c.obj
 .debug_frame   0x0000000000000dac      0x258 src/modules/px4iofirmware/CMakeFiles/px4io-v2.dir/__/__/drivers/stm32/drv_hrt.c.obj
 .debug_frame   0x0000000000001004      0x1e0 src/modules/px4iofirmware/CMakeFiles/px4io-v2.dir/__/__/drivers/stm32/drv_io_timer.c.obj
 .debug_frame   0x00000000000011e4       0xb4 src/modules/px4iofirmware/CMakeFiles/px4io-v2.dir/__/__/drivers/stm32/drv_pwm_servo.c.obj
 .debug_frame   0x0000000000001298       0x30 src/modules/px4iofirmware/CMakeFiles/px4io-v2.dir/__/__/drivers/boards/px4io-v2/px4io_init.c.obj
 .debug_frame   0x00000000000012c8       0xa4 src/modules/px4iofirmware/CMakeFiles/px4io-v2.dir/serial.c.obj
 .debug_frame   0x000000000000136c      0x108 src/modules/px4iofirmware/CMakeFiles/px4io-v2.dir/__/systemlib/hx_stream.c.obj
 .debug_frame   0x0000000000001474       0x2c /home/tuofeichen/SLAM/MAV-Project/Firmware/build_px4fmu-v2_lpe/px4io-v2/NuttX/nuttx-export/libs/libnuttx.a(sched-irq_attach.o)
 .debug_frame   0x00000000000014a0       0x20 /home/tuofeichen/SLAM/MAV-Project/Firmware/build_px4fmu-v2_lpe/px4io-v2/NuttX/nuttx-export/libs/libnuttx.a(sched-irq_initialize.o)
 .debug_frame   0x00000000000014c0       0x28 /home/tuofeichen/SLAM/MAV-Project/Firmware/build_px4fmu-v2_lpe/px4io-v2/NuttX/nuttx-export/libs/libnuttx.a(sched-irq_unexpectedisr.o)
 .debug_frame   0x00000000000014e8       0x28 /home/tuofeichen/SLAM/MAV-Project/Firmware/build_px4fmu-v2_lpe/px4io-v2/NuttX/nuttx-export/libs/libnuttx.a(c-lib_abort.o)
 .debug_frame   0x0000000000001510       0x20 /home/tuofeichen/SLAM/MAV-Project/Firmware/build_px4fmu-v2_lpe/px4io-v2/NuttX/nuttx-export/libs/libnuttx.a(c-lib_cfsetspeed.o)
 .debug_frame   0x0000000000001530       0x38 /home/tuofeichen/SLAM/MAV-Project/Firmware/build_px4fmu-v2_lpe/px4io-v2/NuttX/nuttx-export/libs/libnuttx.a(c-lib_crc32.o)
 .debug_frame   0x0000000000001568       0x3c /home/tuofeichen/SLAM/MAV-Project/Firmware/build_px4fmu-v2_lpe/px4io-v2/NuttX/nuttx-export/libs/libnuttx.a(c-lib_dprintf.o)
 .debug_frame   0x00000000000015a4       0x5c /home/tuofeichen/SLAM/MAV-Project/Firmware/build_px4fmu-v2_lpe/px4io-v2/NuttX/nuttx-export/libs/libnuttx.a(c-lib_lowsyslog.o)
 .debug_frame   0x0000000000001600       0x2c /home/tuofeichen/SLAM/MAV-Project/Firmware/build_px4fmu-v2_lpe/px4io-v2/NuttX/nuttx-export/libs/libnuttx.a(c-lib_memchr.o)
 .debug_frame   0x000000000000162c       0x28 /home/tuofeichen/SLAM/MAV-Project/Firmware/build_px4fmu-v2_lpe/px4io-v2/NuttX/nuttx-export/libs/libnuttx.a(c-lib_memcpy.o)
 .debug_frame   0x0000000000001654       0x20 /home/tuofeichen/SLAM/MAV-Project/Firmware/build_px4fmu-v2_lpe/px4io-v2/NuttX/nuttx-export/libs/libnuttx.a(c-lib_memset.o)
 .debug_frame   0x0000000000001674       0x40 /home/tuofeichen/SLAM/MAV-Project/Firmware/build_px4fmu-v2_lpe/px4io-v2/NuttX/nuttx-export/libs/libnuttx.a(c-lib_printf.o)
 .debug_frame   0x00000000000016b4       0x8c /home/tuofeichen/SLAM/MAV-Project/Firmware/build_px4fmu-v2_lpe/px4io-v2/NuttX/nuttx-export/libs/libnuttx.a(c-lib_sscanf.o)
 .debug_frame   0x0000000000001740       0x20 /home/tuofeichen/SLAM/MAV-Project/Firmware/build_px4fmu-v2_lpe/px4io-v2/NuttX/nuttx-export/libs/libnuttx.a(c-lib_strchr.o)
 .debug_frame   0x0000000000001760       0x20 /home/tuofeichen/SLAM/MAV-Project/Firmware/build_px4fmu-v2_lpe/px4io-v2/NuttX/nuttx-export/libs/libnuttx.a(c-lib_strcmp.o)
 .debug_frame   0x0000000000001780       0x30 /home/tuofeichen/SLAM/MAV-Project/Firmware/build_px4fmu-v2_lpe/px4io-v2/NuttX/nuttx-export/libs/libnuttx.a(c-lib_strcspn.o)
 .debug_frame   0x00000000000017b0       0x28 /home/tuofeichen/SLAM/MAV-Project/Firmware/build_px4fmu-v2_lpe/px4io-v2/NuttX/nuttx-export/libs/libnuttx.a(c-lib_strncpy.o)
 .debug_frame   0x00000000000017d8       0x30 /home/tuofeichen/SLAM/MAV-Project/Firmware/build_px4fmu-v2_lpe/px4io-v2/NuttX/nuttx-export/libs/libnuttx.a(c-lib_strtol.o)
 .debug_frame   0x0000000000001808       0x30 /home/tuofeichen/SLAM/MAV-Project/Firmware/build_px4fmu-v2_lpe/px4io-v2/NuttX/nuttx-export/libs/libnuttx.a(c-lib_strtoul.o)
 .debug_frame   0x0000000000001838       0x60 /home/tuofeichen/SLAM/MAV-Project/Firmware/build_px4fmu-v2_lpe/px4io-v2/NuttX/nuttx-export/libs/libnuttx.a(c-lib_syslog.o)
 .debug_frame   0x0000000000001898       0x20 /home/tuofeichen/SLAM/MAV-Project/Firmware/build_px4fmu-v2_lpe/px4io-v2/NuttX/nuttx-export/libs/libnuttx.a(c-lib_tcgetattr.o)
 .debug_frame   0x00000000000018b8       0x20 /home/tuofeichen/SLAM/MAV-Project/Firmware/build_px4fmu-v2_lpe/px4io-v2/NuttX/nuttx-export/libs/libnuttx.a(c-lib_tcsetattr.o)
 .debug_frame   0x00000000000018d8       0x30 /home/tuofeichen/SLAM/MAV-Project/Firmware/build_px4fmu-v2_lpe/px4io-v2/NuttX/nuttx-export/libs/libnuttx.a(c-lib_vdprintf.o)
 .debug_frame   0x0000000000001908       0x34 /home/tuofeichen/SLAM/MAV-Project/Firmware/build_px4fmu-v2_lpe/px4io-v2/NuttX/nuttx-export/libs/libnuttx.a(c-lib_vsnprintf.o)
 .debug_frame   0x000000000000193c       0x20 /home/tuofeichen/SLAM/MAV-Project/Firmware/build_px4fmu-v2_lpe/px4io-v2/NuttX/nuttx-export/libs/libnuttx.a(c-sq_addafter.o)
 .debug_frame   0x000000000000195c       0x20 /home/tuofeichen/SLAM/MAV-Project/Firmware/build_px4fmu-v2_lpe/px4io-v2/NuttX/nuttx-export/libs/libnuttx.a(c-sq_addfirst.o)
 .debug_frame   0x000000000000197c       0x20 /home/tuofeichen/SLAM/MAV-Project/Firmware/build_px4fmu-v2_lpe/px4io-v2/NuttX/nuttx-export/libs/libnuttx.a(c-sq_addlast.o)
 .debug_frame   0x000000000000199c       0x20 /home/tuofeichen/SLAM/MAV-Project/Firmware/build_px4fmu-v2_lpe/px4io-v2/NuttX/nuttx-export/libs/libnuttx.a(c-sq_rem.o)
 .debug_frame   0x00000000000019bc       0x20 /home/tuofeichen/SLAM/MAV-Project/Firmware/build_px4fmu-v2_lpe/px4io-v2/NuttX/nuttx-export/libs/libnuttx.a(mm-mm_calloc.o)
 .debug_frame   0x00000000000019dc       0x38 /home/tuofeichen/SLAM/MAV-Project/Firmware/build_px4fmu-v2_lpe/px4io-v2/NuttX/nuttx-export/libs/libnuttx.a(mm-mm_free.o)
 .debug_frame   0x0000000000001a14       0x34 /home/tuofeichen/SLAM/MAV-Project/Firmware/build_px4fmu-v2_lpe/px4io-v2/NuttX/nuttx-export/libs/libnuttx.a(mm-mm_mallinfo.o)
 .debug_frame   0x0000000000001a48       0x30 /home/tuofeichen/SLAM/MAV-Project/Firmware/build_px4fmu-v2_lpe/px4io-v2/NuttX/nuttx-export/libs/libnuttx.a(mm-mm_malloc.o)
 .debug_frame   0x0000000000001a78       0x78 /home/tuofeichen/SLAM/MAV-Project/Firmware/build_px4fmu-v2_lpe/px4io-v2/NuttX/nuttx-export/libs/libnuttx.a(mm-mm_sem.o)
 .debug_frame   0x0000000000001af0       0x20 /home/tuofeichen/SLAM/MAV-Project/Firmware/build_px4fmu-v2_lpe/px4io-v2/NuttX/nuttx-export/libs/libnuttx.a(mm-mm_size2ndx.o)
 .debug_frame   0x0000000000001b10       0x50 /home/tuofeichen/SLAM/MAV-Project/Firmware/build_px4fmu-v2_lpe/px4io-v2/NuttX/nuttx-export/libs/libnuttx.a(mm-mm_user.o)
 .debug_frame   0x0000000000001b60       0x2c /home/tuofeichen/SLAM/MAV-Project/Firmware/build_px4fmu-v2_lpe/px4io-v2/NuttX/nuttx-export/libs/libnuttx.a(mm-mm_zalloc.o)
 .debug_frame   0x0000000000001b8c       0xcc /home/tuofeichen/SLAM/MAV-Project/Firmware/build_px4fmu-v2_lpe/px4io-v2/NuttX/nuttx-export/libs/libnuttx.a(arch-stm32_dma.o)
 .debug_frame   0x0000000000001c58       0x74 /home/tuofeichen/SLAM/MAV-Project/Firmware/build_px4fmu-v2_lpe/px4io-v2/NuttX/nuttx-export/libs/libnuttx.a(arch-stm32_gpio.o)
 .debug_frame   0x0000000000001ccc       0x78 /home/tuofeichen/SLAM/MAV-Project/Firmware/build_px4fmu-v2_lpe/px4io-v2/NuttX/nuttx-export/libs/libnuttx.a(arch-stm32_irq.o)
 .debug_frame   0x0000000000001d44      0x28c /home/tuofeichen/SLAM/MAV-Project/Firmware/build_px4fmu-v2_lpe/px4io-v2/NuttX/nuttx-export/libs/libnuttx.a(arch-stm32_serial.o)
 .debug_frame   0x0000000000001fd0       0x28 /home/tuofeichen/SLAM/MAV-Project/Firmware/build_px4fmu-v2_lpe/px4io-v2/NuttX/nuttx-export/libs/libnuttx.a(arch-stm32_start.o)
 .debug_frame   0x0000000000001ff8       0x28 /home/tuofeichen/SLAM/MAV-Project/Firmware/build_px4fmu-v2_lpe/px4io-v2/NuttX/nuttx-export/libs/libnuttx.a(arch-up_assert.o)
 .debug_frame   0x0000000000002020       0x30 /home/tuofeichen/SLAM/MAV-Project/Firmware/build_px4fmu-v2_lpe/px4io-v2/NuttX/nuttx-export/libs/libnuttx.a(arch-up_hardfault.o)
 .debug_frame   0x0000000000002050       0x28 /home/tuofeichen/SLAM/MAV-Project/Firmware/build_px4fmu-v2_lpe/px4io-v2/NuttX/nuttx-export/libs/libnuttx.a(arch-up_modifyreg32.o)
 .debug_frame   0x0000000000002078       0x28 /home/tuofeichen/SLAM/MAV-Project/Firmware/build_px4fmu-v2_lpe/px4io-v2/NuttX/nuttx-export/libs/libnuttx.a(arch-up_svcall.o)
 .debug_frame   0x00000000000020a0       0x20 /home/tuofeichen/SLAM/MAV-Project/Firmware/build_px4fmu-v2_lpe/px4io-v2/NuttX/nuttx-export/libs/libnuttx.a(arch-up_systemreset.o)
 .debug_frame   0x00000000000020c0       0x28 /home/tuofeichen/SLAM/MAV-Project/Firmware/build_px4fmu-v2_lpe/px4io-v2/NuttX/nuttx-export/libs/libnuttx.a(arch-up_udelay.o)
 .debug_frame   0x00000000000020e8       0x20 /home/tuofeichen/SLAM/MAV-Project/Firmware/build_px4fmu-v2_lpe/px4io-v2/NuttX/nuttx-export/libs/libnuttx.a(cxx-libxx_cxa_atexit.o)
 .debug_frame   0x0000000000002108       0x28 /home/tuofeichen/SLAM/MAV-Project/Firmware/build_px4fmu-v2_lpe/px4io-v2/NuttX/nuttx-export/libs/libnuttx.a(cxx-libxx_cxapurevirtual.o)
 .debug_frame   0x0000000000002130       0x20 /home/tuofeichen/SLAM/MAV-Project/Firmware/build_px4fmu-v2_lpe/px4io-v2/NuttX/nuttx-export/libs/libnuttx.a(cxx-libxx_delete.o)
 .debug_frame   0x0000000000002150       0x20 /home/tuofeichen/SLAM/MAV-Project/Firmware/build_px4fmu-v2_lpe/px4io-v2/NuttX/nuttx-export/libs/libnuttx.a(cxx-libxx_eabi_atexit.o)
 .debug_frame   0x0000000000002170       0x20 /home/tuofeichen/SLAM/MAV-Project/Firmware/build_px4fmu-v2_lpe/px4io-v2/NuttX/nuttx-export/libs/libnuttx.a(cxx-libxx_new.o)
 .debug_frame   0x0000000000002190       0x2c /home/tuofeichen/SLAM/MAV-Project/Firmware/build_px4fmu-v2_lpe/px4io-v2/NuttX/nuttx-export/libs/libnuttx.a(fs-fs_ioctl.o)
 .debug_frame   0x00000000000021bc       0x58 /home/tuofeichen/SLAM/MAV-Project/Firmware/build_px4fmu-v2_lpe/px4io-v2/NuttX/nuttx-export/libs/libnuttx.a(fs-fs_open.o)
 .debug_frame   0x0000000000002214       0x2c /home/tuofeichen/SLAM/MAV-Project/Firmware/build_px4fmu-v2_lpe/px4io-v2/NuttX/nuttx-export/libs/libnuttx.a(fs-fs_read.o)
 .debug_frame   0x0000000000002240       0x2c /home/tuofeichen/SLAM/MAV-Project/Firmware/build_px4fmu-v2_lpe/px4io-v2/NuttX/nuttx-export/libs/libnuttx.a(fs-fs_write.o)
 .debug_frame   0x000000000000226c       0x58 /home/tuofeichen/SLAM/MAV-Project/Firmware/build_px4fmu-v2_lpe/px4io-v2/NuttX/nuttx-export/libs/libnuttx.a(drivers-serialirq.o)
 .debug_frame   0x00000000000022c4      0x148 /home/tuofeichen/SLAM/MAV-Project/Firmware/build_px4fmu-v2_lpe/px4io-v2/NuttX/nuttx-export/libs/libnuttx.a(drivers-serial.o)
 .debug_frame   0x000000000000240c       0x28 /home/tuofeichen/SLAM/MAV-Project/Firmware/build_px4fmu-v2_lpe/px4io-v2/NuttX/nuttx-export/libs/libnuttx.a(sched-errno_getptr.o)
 .debug_frame   0x0000000000002434       0x28 /home/tuofeichen/SLAM/MAV-Project/Firmware/build_px4fmu-v2_lpe/px4io-v2/NuttX/nuttx-export/libs/libnuttx.a(sched-exit.o)
 .debug_frame   0x000000000000245c       0x20 /home/tuofeichen/SLAM/MAV-Project/Firmware/build_px4fmu-v2_lpe/px4io-v2/NuttX/nuttx-export/libs/libnuttx.a(sched-getpid.o)
 .debug_frame   0x000000000000247c       0x2c /home/tuofeichen/SLAM/MAV-Project/Firmware/build_px4fmu-v2_lpe/px4io-v2/NuttX/nuttx-export/libs/libnuttx.a(sched-os_start.o)
 .debug_frame   0x00000000000024a8       0x28 /home/tuofeichen/SLAM/MAV-Project/Firmware/build_px4fmu-v2_lpe/px4io-v2/NuttX/nuttx-export/libs/libnuttx.a(sched-sched_garbage.o)
 .debug_frame   0x00000000000024d0       0x20 /home/tuofeichen/SLAM/MAV-Project/Firmware/build_px4fmu-v2_lpe/px4io-v2/NuttX/nuttx-export/libs/libnuttx.a(sched-sched_getfiles.o)
 .debug_frame   0x00000000000024f0       0x28 /home/tuofeichen/SLAM/MAV-Project/Firmware/build_px4fmu-v2_lpe/px4io-v2/NuttX/nuttx-export/libs/libnuttx.a(sched-sem_post.o)
 .debug_frame   0x0000000000002518       0x2c /home/tuofeichen/SLAM/MAV-Project/Firmware/build_px4fmu-v2_lpe/px4io-v2/NuttX/nuttx-export/libs/libnuttx.a(sched-sem_trywait.o)
 .debug_frame   0x0000000000002544       0x30 /home/tuofeichen/SLAM/MAV-Project/Firmware/build_px4fmu-v2_lpe/px4io-v2/NuttX/nuttx-export/libs/libnuttx.a(sched-sem_wait.o)
 .debug_frame   0x0000000000002574       0x28 /home/tuofeichen/SLAM/MAV-Project/Firmware/build_px4fmu-v2_lpe/px4io-v2/NuttX/nuttx-export/libs/libnuttx.a(sched-task_exithook.o)
 .debug_frame   0x000000000000259c       0x2c /home/tuofeichen/SLAM/MAV-Project/Firmware/build_px4fmu-v2_lpe/px4io-v2/NuttX/nuttx-export/libs/libnuttx.a(sched-task_recover.o)
 .debug_frame   0x00000000000025c8       0x2c /home/tuofeichen/SLAM/MAV-Project/Firmware/build_px4fmu-v2_lpe/px4io-v2/NuttX/nuttx-export/libs/libnuttx.a(sched-wd_cancel.o)
 .debug_frame   0x00000000000025f4       0x2c /home/tuofeichen/SLAM/MAV-Project/Firmware/build_px4fmu-v2_lpe/px4io-v2/NuttX/nuttx-export/libs/libnuttx.a(sched-wd_delete.o)
 .debug_frame   0x0000000000002620       0x2c /home/tuofeichen/SLAM/MAV-Project/Firmware/build_px4fmu-v2_lpe/px4io-v2/NuttX/nuttx-export/libs/libnuttx.a(sched-wd_initialize.o)
 .debug_frame   0x000000000000264c       0x20 /home/tuofeichen/SLAM/MAV-Project/Firmware/build_px4fmu-v2_lpe/px4io-v2/NuttX/nuttx-export/libs/libnuttx.a(c-dq_addfirst.o)
 .debug_frame   0x000000000000266c       0x20 /home/tuofeichen/SLAM/MAV-Project/Firmware/build_px4fmu-v2_lpe/px4io-v2/NuttX/nuttx-export/libs/libnuttx.a(c-lib_cfgetspeed.o)
 .debug_frame   0x000000000000268c       0x2c /home/tuofeichen/SLAM/MAV-Project/Firmware/build_px4fmu-v2_lpe/px4io-v2/NuttX/nuttx-export/libs/libnuttx.a(c-lib_checkbase.o)
 .debug_frame   0x00000000000026b8       0x20 /home/tuofeichen/SLAM/MAV-Project/Firmware/build_px4fmu-v2_lpe/px4io-v2/NuttX/nuttx-export/libs/libnuttx.a(c-lib_isbasedigit.o)
 .debug_frame   0x00000000000026d8      0x25c /home/tuofeichen/SLAM/MAV-Project/Firmware/build_px4fmu-v2_lpe/px4io-v2/NuttX/nuttx-export/libs/libnuttx.a(c-lib_libvsprintf.o)
 .debug_frame   0x0000000000002934       0x38 /home/tuofeichen/SLAM/MAV-Project/Firmware/build_px4fmu-v2_lpe/px4io-v2/NuttX/nuttx-export/libs/libnuttx.a(c-lib_lowoutstream.o)
 .debug_frame   0x000000000000296c       0x30 /home/tuofeichen/SLAM/MAV-Project/Firmware/build_px4fmu-v2_lpe/px4io-v2/NuttX/nuttx-export/libs/libnuttx.a(c-lib_memoutstream.o)
 .debug_frame   0x000000000000299c       0x30 /home/tuofeichen/SLAM/MAV-Project/Firmware/build_px4fmu-v2_lpe/px4io-v2/NuttX/nuttx-export/libs/libnuttx.a(c-lib_nulloutstream.o)
 .debug_frame   0x00000000000029cc       0x3c /home/tuofeichen/SLAM/MAV-Project/Firmware/build_px4fmu-v2_lpe/px4io-v2/NuttX/nuttx-export/libs/libnuttx.a(c-lib_rawoutstream.o)
 .debug_frame   0x0000000000002a08       0x20 /home/tuofeichen/SLAM/MAV-Project/Firmware/build_px4fmu-v2_lpe/px4io-v2/NuttX/nuttx-export/libs/libnuttx.a(c-lib_skipspace.o)
 .debug_frame   0x0000000000002a28       0x20 /home/tuofeichen/SLAM/MAV-Project/Firmware/build_px4fmu-v2_lpe/px4io-v2/NuttX/nuttx-export/libs/libnuttx.a(c-lib_strcpy.o)
 .debug_frame   0x0000000000002a48       0x20 /home/tuofeichen/SLAM/MAV-Project/Firmware/build_px4fmu-v2_lpe/px4io-v2/NuttX/nuttx-export/libs/libnuttx.a(c-lib_strlen.o)
 .debug_frame   0x0000000000002a68       0x28 /home/tuofeichen/SLAM/MAV-Project/Firmware/build_px4fmu-v2_lpe/px4io-v2/NuttX/nuttx-export/libs/libnuttx.a(c-sem_init.o)
 .debug_frame   0x0000000000002a90       0x20 /home/tuofeichen/SLAM/MAV-Project/Firmware/build_px4fmu-v2_lpe/px4io-v2/NuttX/nuttx-export/libs/libnuttx.a(c-sq_remafter.o)
 .debug_frame   0x0000000000002ab0       0x20 /home/tuofeichen/SLAM/MAV-Project/Firmware/build_px4fmu-v2_lpe/px4io-v2/NuttX/nuttx-export/libs/libnuttx.a(c-sq_remfirst.o)
 .debug_frame   0x0000000000002ad0       0x2c /home/tuofeichen/SLAM/MAV-Project/Firmware/build_px4fmu-v2_lpe/px4io-v2/NuttX/nuttx-export/libs/libnuttx.a(mm-mm_addfreechunk.o)
 .debug_frame   0x0000000000002afc       0x5c /home/tuofeichen/SLAM/MAV-Project/Firmware/build_px4fmu-v2_lpe/px4io-v2/NuttX/nuttx-export/libs/libnuttx.a(mm-mm_initialize.o)
 .debug_frame   0x0000000000002b58       0x20 /home/tuofeichen/SLAM/MAV-Project/Firmware/build_px4fmu-v2_lpe/px4io-v2/NuttX/nuttx-export/libs/libnuttx.a(arch-stm32_allocateheap.o)
 .debug_frame   0x0000000000002b78       0x20 /home/tuofeichen/SLAM/MAV-Project/Firmware/build_px4fmu-v2_lpe/px4io-v2/NuttX/nuttx-export/libs/libnuttx.a(arch-stm32_idle.o)
 .debug_frame   0x0000000000002b98       0x38 /home/tuofeichen/SLAM/MAV-Project/Firmware/build_px4fmu-v2_lpe/px4io-v2/NuttX/nuttx-export/libs/libnuttx.a(arch-stm32_lowputc.o)
 .debug_frame   0x0000000000002bd0       0x34 /home/tuofeichen/SLAM/MAV-Project/Firmware/build_px4fmu-v2_lpe/px4io-v2/NuttX/nuttx-export/libs/libnuttx.a(arch-stm32_rcc.o)
 .debug_frame   0x0000000000002c04       0x3c /home/tuofeichen/SLAM/MAV-Project/Firmware/build_px4fmu-v2_lpe/px4io-v2/NuttX/nuttx-export/libs/libnuttx.a(arch-up_blocktask.o)
 .debug_frame   0x0000000000002c40       0x20 /home/tuofeichen/SLAM/MAV-Project/Firmware/build_px4fmu-v2_lpe/px4io-v2/NuttX/nuttx-export/libs/libnuttx.a(arch-up_copystate.o)
 .debug_frame   0x0000000000002c60       0x28 /home/tuofeichen/SLAM/MAV-Project/Firmware/build_px4fmu-v2_lpe/px4io-v2/NuttX/nuttx-export/libs/libnuttx.a(arch-up_exit.o)
 .debug_frame   0x0000000000002c88       0x2c /home/tuofeichen/SLAM/MAV-Project/Firmware/build_px4fmu-v2_lpe/px4io-v2/NuttX/nuttx-export/libs/libnuttx.a(arch-up_initialize.o)
 .debug_frame   0x0000000000002cb4       0x28 /home/tuofeichen/SLAM/MAV-Project/Firmware/build_px4fmu-v2_lpe/px4io-v2/NuttX/nuttx-export/libs/libnuttx.a(arch-up_initialstate.o)
 .debug_frame   0x0000000000002cdc       0x20 /home/tuofeichen/SLAM/MAV-Project/Firmware/build_px4fmu-v2_lpe/px4io-v2/NuttX/nuttx-export/libs/libnuttx.a(arch-up_interruptcontext.o)
 .debug_frame   0x0000000000002cfc       0x28 /home/tuofeichen/SLAM/MAV-Project/Firmware/build_px4fmu-v2_lpe/px4io-v2/NuttX/nuttx-export/libs/libnuttx.a(arch-up_mdelay.o)
 .debug_frame   0x0000000000002d24       0x38 /home/tuofeichen/SLAM/MAV-Project/Firmware/build_px4fmu-v2_lpe/px4io-v2/NuttX/nuttx-export/libs/libnuttx.a(arch-up_unblocktask.o)
 .debug_frame   0x0000000000002d5c      0x10c /home/tuofeichen/SLAM/MAV-Project/Firmware/build_px4fmu-v2_lpe/px4io-v2/NuttX/nuttx-export/libs/libnuttx.a(fs-fs_files.o)
 .debug_frame   0x0000000000002e68       0x30 /home/tuofeichen/SLAM/MAV-Project/Firmware/build_px4fmu-v2_lpe/px4io-v2/NuttX/nuttx-export/libs/libnuttx.a(fs-fs_inodeaddref.o)
 .debug_frame   0x0000000000002e98       0x2c /home/tuofeichen/SLAM/MAV-Project/Firmware/build_px4fmu-v2_lpe/px4io-v2/NuttX/nuttx-export/libs/libnuttx.a(fs-fs_inodefind.o)
 .debug_frame   0x0000000000002ec4       0xac /home/tuofeichen/SLAM/MAV-Project/Firmware/build_px4fmu-v2_lpe/px4io-v2/NuttX/nuttx-export/libs/libnuttx.a(fs-fs_inode.o)
 .debug_frame   0x0000000000002f70       0x38 /home/tuofeichen/SLAM/MAV-Project/Firmware/build_px4fmu-v2_lpe/px4io-v2/NuttX/nuttx-export/libs/libnuttx.a(fs-fs_inoderelease.o)
 .debug_frame   0x0000000000002fa8       0x30 /home/tuofeichen/SLAM/MAV-Project/Firmware/build_px4fmu-v2_lpe/px4io-v2/NuttX/nuttx-export/libs/libnuttx.a(fs-fs_registerdriver.o)
 .debug_frame   0x0000000000002fd8       0x38 /home/tuofeichen/SLAM/MAV-Project/Firmware/build_px4fmu-v2_lpe/px4io-v2/NuttX/nuttx-export/libs/libnuttx.a(sched-group_create.o)
 .debug_frame   0x0000000000003010       0x2c /home/tuofeichen/SLAM/MAV-Project/Firmware/build_px4fmu-v2_lpe/px4io-v2/NuttX/nuttx-export/libs/libnuttx.a(sched-group_leave.o)
 .debug_frame   0x000000000000303c       0x28 /home/tuofeichen/SLAM/MAV-Project/Firmware/build_px4fmu-v2_lpe/px4io-v2/NuttX/nuttx-export/libs/libnuttx.a(sched-group_setupidlefiles.o)
 .debug_frame   0x0000000000003064       0x2c /home/tuofeichen/SLAM/MAV-Project/Firmware/build_px4fmu-v2_lpe/px4io-v2/NuttX/nuttx-export/libs/libnuttx.a(sched-os_bringup.o)
 .debug_frame   0x0000000000003090       0x2c /home/tuofeichen/SLAM/MAV-Project/Firmware/build_px4fmu-v2_lpe/px4io-v2/NuttX/nuttx-export/libs/libnuttx.a(sched-sched_addblocked.o)
 .debug_frame   0x00000000000030bc       0x28 /home/tuofeichen/SLAM/MAV-Project/Firmware/build_px4fmu-v2_lpe/px4io-v2/NuttX/nuttx-export/libs/libnuttx.a(sched-sched_addprioritized.o)
 .debug_frame   0x00000000000030e4       0x2c /home/tuofeichen/SLAM/MAV-Project/Firmware/build_px4fmu-v2_lpe/px4io-v2/NuttX/nuttx-export/libs/libnuttx.a(sched-sched_addreadytorun.o)
 .debug_frame   0x0000000000003110       0x34 /home/tuofeichen/SLAM/MAV-Project/Firmware/build_px4fmu-v2_lpe/px4io-v2/NuttX/nuttx-export/libs/libnuttx.a(sched-sched_free.o)
 .debug_frame   0x0000000000003144       0x30 /home/tuofeichen/SLAM/MAV-Project/Firmware/build_px4fmu-v2_lpe/px4io-v2/NuttX/nuttx-export/libs/libnuttx.a(sched-sched_mergepending.o)
 .debug_frame   0x0000000000003174       0x28 /home/tuofeichen/SLAM/MAV-Project/Firmware/build_px4fmu-v2_lpe/px4io-v2/NuttX/nuttx-export/libs/libnuttx.a(sched-sched_removeblocked.o)
 .debug_frame   0x000000000000319c       0x2c /home/tuofeichen/SLAM/MAV-Project/Firmware/build_px4fmu-v2_lpe/px4io-v2/NuttX/nuttx-export/libs/libnuttx.a(sched-sched_removereadytorun.o)
 .debug_frame   0x00000000000031c8       0x28 /home/tuofeichen/SLAM/MAV-Project/Firmware/build_px4fmu-v2_lpe/px4io-v2/NuttX/nuttx-export/libs/libnuttx.a(sched-sem_destroy.o)
 .debug_frame   0x00000000000031f0       0x6c /home/tuofeichen/SLAM/MAV-Project/Firmware/build_px4fmu-v2_lpe/px4io-v2/NuttX/nuttx-export/libs/libnuttx.a(sched-task_create.o)
 .debug_frame   0x000000000000325c       0x2c /home/tuofeichen/SLAM/MAV-Project/Firmware/build_px4fmu-v2_lpe/px4io-v2/NuttX/nuttx-export/libs/libnuttx.a(sched-task_exit.o)
 .debug_frame   0x0000000000003288       0x50 /home/tuofeichen/SLAM/MAV-Project/Firmware/build_px4fmu-v2_lpe/px4io-v2/NuttX/nuttx-export/libs/libnuttx.a(sched-task_setup.o)
 .debug_frame   0x00000000000032d8       0x28 /home/tuofeichen/SLAM/MAV-Project/Firmware/build_px4fmu-v2_lpe/px4io-v2/NuttX/nuttx-export/libs/libnuttx.a(sched-task_start.o)
 .debug_frame   0x0000000000003300       0x2c /home/tuofeichen/SLAM/MAV-Project/Firmware/build_px4fmu-v2_lpe/px4io-v2/NuttX/nuttx-export/libs/libnuttx.a(sched-task_terminate.o)
 .debug_frame   0x000000000000332c       0x20 /home/tuofeichen/SLAM/MAV-Project/Firmware/build_px4fmu-v2_lpe/px4io-v2/NuttX/nuttx-export/libs/libnuttx.a(c-dq_addlast.o)
 .debug_frame   0x000000000000334c       0x20 /home/tuofeichen/SLAM/MAV-Project/Firmware/build_px4fmu-v2_lpe/px4io-v2/NuttX/nuttx-export/libs/libnuttx.a(c-dq_rem.o)
 .debug_frame   0x000000000000336c       0x2c /home/tuofeichen/SLAM/MAV-Project/Firmware/build_px4fmu-v2_lpe/px4io-v2/NuttX/nuttx-export/libs/libnuttx.a(c-lib_strdup.o)
 .debug_frame   0x0000000000003398       0x44 /home/tuofeichen/SLAM/MAV-Project/Firmware/build_px4fmu-v2_lpe/px4io-v2/NuttX/nuttx-export/libs/libnuttx.a(arch-stm32_timerisr.o)
 .debug_frame   0x00000000000033dc       0x2c /home/tuofeichen/SLAM/MAV-Project/Firmware/build_px4fmu-v2_lpe/px4io-v2/NuttX/nuttx-export/libs/libnuttx.a(arch-up_createstack.o)
 .debug_frame   0x0000000000003408       0x30 /home/tuofeichen/SLAM/MAV-Project/Firmware/build_px4fmu-v2_lpe/px4io-v2/NuttX/nuttx-export/libs/libnuttx.a(arch-up_doirq.o)
 .debug_frame   0x0000000000003438       0x28 /home/tuofeichen/SLAM/MAV-Project/Firmware/build_px4fmu-v2_lpe/px4io-v2/NuttX/nuttx-export/libs/libnuttx.a(arch-up_releasestack.o)
 .debug_frame   0x0000000000003460       0x28 /home/tuofeichen/SLAM/MAV-Project/Firmware/build_px4fmu-v2_lpe/px4io-v2/NuttX/nuttx-export/libs/libnuttx.a(fs-fs_close.o)
 .debug_frame   0x0000000000003488       0x38 /home/tuofeichen/SLAM/MAV-Project/Firmware/build_px4fmu-v2_lpe/px4io-v2/NuttX/nuttx-export/libs/libnuttx.a(fs-fs_filedup2.o)
 .debug_frame   0x00000000000034c0       0x48 /home/tuofeichen/SLAM/MAV-Project/Firmware/build_px4fmu-v2_lpe/px4io-v2/NuttX/nuttx-export/libs/libnuttx.a(fs-fs_inodereserve.o)
 .debug_frame   0x0000000000003508       0x28 /home/tuofeichen/SLAM/MAV-Project/Firmware/build_px4fmu-v2_lpe/px4io-v2/NuttX/nuttx-export/libs/libnuttx.a(sched-group_setuptaskfiles.o)
 .debug_frame   0x0000000000003530       0x20 /home/tuofeichen/SLAM/MAV-Project/Firmware/build_px4fmu-v2_lpe/px4io-v2/NuttX/nuttx-export/libs/libnuttx.a(sched-irq_dispatch.o)
 .debug_frame   0x0000000000003550       0x20 /home/tuofeichen/SLAM/MAV-Project/Firmware/build_px4fmu-v2_lpe/px4io-v2/NuttX/nuttx-export/libs/libnuttx.a(sched-sched_gettcb.o)
 .debug_frame   0x0000000000003570       0x28 /home/tuofeichen/SLAM/MAV-Project/Firmware/build_px4fmu-v2_lpe/px4io-v2/NuttX/nuttx-export/libs/libnuttx.a(sched-sched_lock.o)
 .debug_frame   0x0000000000003598       0x28 /home/tuofeichen/SLAM/MAV-Project/Firmware/build_px4fmu-v2_lpe/px4io-v2/NuttX/nuttx-export/libs/libnuttx.a(sched-sched_processtimer.o)
 .debug_frame   0x00000000000035c0       0x2c /home/tuofeichen/SLAM/MAV-Project/Firmware/build_px4fmu-v2_lpe/px4io-v2/NuttX/nuttx-export/libs/libnuttx.a(sched-sched_releasetcb.o)
 .debug_frame   0x00000000000035ec       0x2c /home/tuofeichen/SLAM/MAV-Project/Firmware/build_px4fmu-v2_lpe/px4io-v2/NuttX/nuttx-export/libs/libnuttx.a(sched-sched_unlock.o)
 .debug_frame   0x0000000000003618       0x28 /home/tuofeichen/SLAM/MAV-Project/Firmware/build_px4fmu-v2_lpe/px4io-v2/NuttX/nuttx-export/libs/libnuttx.a(sched-task_activate.o)
 .debug_frame   0x0000000000003640       0x38 /home/tuofeichen/SLAM/MAV-Project/Firmware/build_px4fmu-v2_lpe/px4io-v2/NuttX/nuttx-export/libs/libnuttx.a(arch-up_releasepending.o)
 .debug_frame   0x0000000000003678       0x2c /usr/bin/../lib/gcc/arm-none-eabi/4.9.3/../../../../arm-none-eabi/lib/armv7-m/libm.a(lib_a-sf_fmin.o)
 .debug_frame   0x00000000000036a4       0x20 /usr/bin/../lib/gcc/arm-none-eabi/4.9.3/../../../../arm-none-eabi/lib/armv7-m/libm.a(lib_a-sf_fpclassify.o)
 .debug_frame   0x00000000000036c4       0x3c /usr/bin/../lib/gcc/arm-none-eabi/4.9.3/../../../../arm-none-eabi/lib/armv7-m/libm.a(lib_a-wf_sqrt.o)
 .debug_frame   0x0000000000003700       0x2c /usr/bin/../lib/gcc/arm-none-eabi/4.9.3/../../../../arm-none-eabi/lib/armv7-m/libm.a(lib_a-ef_sqrt.o)
 .debug_frame   0x000000000000372c       0x20 /usr/bin/../lib/gcc/arm-none-eabi/4.9.3/../../../../arm-none-eabi/lib/armv7-m/libm.a(lib_a-s_matherr.o)
 .debug_frame   0x000000000000374c       0x28 /usr/bin/../lib/gcc/arm-none-eabi/4.9.3/armv7-m/libgcc.a(_aeabi_uldivmod.o)
 .debug_frame   0x0000000000003774       0x54 /usr/bin/../lib/gcc/arm-none-eabi/4.9.3/armv7-m/libgcc.a(bpabi.o)
 .debug_frame   0x00000000000037c8       0x34 /usr/bin/../lib/gcc/arm-none-eabi/4.9.3/armv7-m/libgcc.a(_divdi3.o)
 .debug_frame   0x00000000000037fc       0x34 /usr/bin/../lib/gcc/arm-none-eabi/4.9.3/armv7-m/libgcc.a(_udivdi3.o)
